

Microchip MPLAB XC8 Assembler V2.40 build 20220703182018 
                                                                                               Wed Aug 30 15:46:30 2023

Microchip MPLAB XC8 C Compiler v2.40 (Free license) build 20220703182018 Og1 
     1                           	processor	16F887
     2                           	pagewidth 120
     3                           	opt	flic
     4                           	psect	strings,global,class=STRING,delta=2,noexec
     5                           	psect	cinit,global,class=CODE,merge=1,delta=2
     6                           	psect	bssCOMMON,global,class=COMMON,space=1,delta=1,noexec
     7                           	psect	bssBANK1,global,class=BANK1,space=1,delta=1,noexec
     8                           	psect	bssBANK3,global,class=BANK3,space=1,delta=1,noexec
     9                           	psect	bssBANK2,global,class=BANK2,space=1,delta=1,noexec
    10                           	psect	clrtext,global,class=CODE,delta=2
    11                           	psect	cstackBANK1,global,class=BANK1,space=1,delta=1,noexec
    12                           	psect	cstackCOMMON,global,class=COMMON,space=1,delta=1,noexec
    13                           	psect	cstackBANK0,global,class=BANK0,space=1,delta=1,noexec
    14                           	psect	maintext,global,class=CODE,split=1,delta=2
    15                           	psect	text1,local,class=CODE,merge=1,delta=2,group=1
    16                           	psect	text2,local,class=CODE,merge=1,delta=2,group=3
    17                           	psect	text3,local,class=CODE,merge=1,delta=2,group=2
    18                           	psect	text4,local,class=CODE,merge=1,delta=2,group=2
    19                           	psect	text5,local,class=CODE,merge=1,delta=2,group=2
    20                           	psect	text6,local,class=CODE,merge=1,delta=2
    21                           	psect	text7,local,class=CODE,merge=1,delta=2
    22                           	psect	text8,local,class=CODE,merge=1,delta=2,group=2
    23                           	psect	text9,local,class=CODE,merge=1,delta=2
    24                           	psect	text10,local,class=CODE,merge=1,delta=2
    25                           	psect	text11,local,class=CODE,merge=1,delta=2
    26                           	psect	text12,local,class=CODE,merge=1,delta=2
    27                           	psect	text13,local,class=CODE,merge=1,delta=2
    28                           	psect	text14,local,class=CODE,merge=1,delta=2
    29                           	psect	text15,local,class=CODE,merge=1,delta=2
    30                           	psect	text16,local,class=CODE,merge=1,delta=2
    31                           	psect	text17,local,class=CODE,merge=1,delta=2
    32                           	psect	text18,local,class=CODE,merge=1,delta=2,group=2
    33                           	psect	text19,local,class=CODE,merge=1,delta=2
    34                           	psect	text20,local,class=CODE,merge=1,delta=2
    35                           	psect	text21,local,class=CODE,merge=1,delta=2
    36                           	psect	text22,local,class=CODE,merge=1,delta=2
    37                           	psect	text23,local,class=CODE,merge=1,delta=2
    38                           	psect	text24,local,class=CODE,merge=1,delta=2,group=2
    39                           	psect	text25,local,class=CODE,merge=1,delta=2,group=2
    40                           	psect	text26,local,class=CODE,merge=1,delta=2,group=2
    41                           	psect	text27,local,class=CODE,merge=1,delta=2,group=2
    42                           	psect	text28,local,class=CODE,merge=1,delta=2,group=2
    43                           	psect	text29,local,class=CODE,merge=1,delta=2,group=2
    44                           	psect	text30,local,class=CODE,merge=1,delta=2,group=2
    45                           	psect	text31,local,class=CODE,merge=1,delta=2,group=2
    46                           	psect	text32,local,class=CODE,merge=1,delta=2,group=2
    47                           	psect	text33,local,class=CODE,merge=1,delta=2
    48                           	psect	text34,local,class=CODE,merge=1,delta=2
    49                           	psect	text35,local,class=CODE,merge=1,delta=2
    50                           	psect	text36,local,class=CODE,merge=1,delta=2
    51                           	psect	text37,local,class=CODE,merge=1,delta=2
    52                           	psect	text38,local,class=CODE,merge=1,delta=2
    53                           	psect	text39,local,class=CODE,merge=1,delta=2
    54                           	psect	text40,local,class=CODE,merge=1,delta=2
    55                           	psect	text41,local,class=CODE,merge=1,delta=2
    56                           	psect	text42,local,class=CODE,merge=1,delta=2
    57                           	psect	text43,local,class=CODE,merge=1,delta=2
    58                           	psect	text44,local,class=CODE,merge=1,delta=2
    59                           	psect	text45,local,class=CODE,merge=1,delta=2
    60                           	psect	text46,local,class=CODE,merge=1,delta=2
    61                           	psect	text47,local,class=CODE,merge=1,delta=2
    62                           	psect	intentry,global,class=CODE,delta=2
    63                           	psect	text48,local,class=CODE,merge=1,delta=2
    64                           	psect	text49,local,class=CODE,merge=1,delta=2
    65                           	psect	text50,local,class=CODE,merge=1,delta=2
    66                           	psect	text51,local,class=CODE,merge=1,delta=2
    67                           	psect	idloc,global,abs,ovrld,class=IDLOC,space=5,delta=2,noexec
    68                           	psect	config,global,abs,ovrld,class=CONFIG,space=4,delta=2,noexec
    69                           	dabs	1,0x7E,2
    70     0000                     
    71                           ; Version 2.40
    72                           ; Generated 17/11/2021 GMT
    73                           ; 
    74                           ; Copyright © 2021, Microchip Technology Inc. and its subsidiaries ("Microchip")
    75                           ; All rights reserved.
    76                           ; 
    77                           ; This software is developed by Microchip Technology Inc. and its subsidiaries ("Microch
      +                          ip").
    78                           ; 
    79                           ; Redistribution and use in source and binary forms, with or without modification, are
    80                           ; permitted provided that the following conditions are met:
    81                           ; 
    82                           ;     1. Redistributions of source code must retain the above copyright notice, this lis
      +                          t of
    83                           ;        conditions and the following disclaimer.
    84                           ; 
    85                           ;     2. Redistributions in binary form must reproduce the above copyright notice, this 
      +                          list
    86                           ;        of conditions and the following disclaimer in the documentation and/or other
    87                           ;        materials provided with the distribution. Publication is not required when
    88                           ;        this file is used in an embedded application.
    89                           ; 
    90                           ;     3. Microchip's name may not be used to endorse or promote products derived from th
      +                          is
    91                           ;        software without specific prior written permission.
    92                           ; 
    93                           ; THIS SOFTWARE IS PROVIDED BY MICROCHIP "AS IS" AND ANY EXPRESS OR IMPLIED WARRANTIES,
    94                           ; INCLUDING, BUT NOT LIMITED TO, THE IMPLIED WARRANTIES OF MERCHANTABILITY AND FITNESS F
      +                          OR
    95                           ; PURPOSE ARE DISCLAIMED.  IN NO EVENT SHALL MICROCHIP BE LIABLE FOR ANY DIRECT, INDIREC
      +                          T,
    96                           ; INCIDENTAL, SPECIAL, EXEMPLARY, OR CONSEQUENTIAL DAMAGES (INCLUDING BUT NOT LIMITED TO
    97                           ; PROCUREMENT OF SUBSTITUTE GOODS OR SERVICES; LOSS OF USE, DATA OR PROFITS; OR BUSINESS
    98                           ; INTERRUPTION) HOWSOEVER CAUSED AND ON ANY THEORY OF LIABILITY, WHETHER IN CONTRACT, ST
      +                          RICT
    99                           ; LIABILITY, OR TORT (INCLUDING NEGLIGENCE OR OTHERWISE) ARISING IN ANY WAY OUT OF THE U
      +                          SE OF
   100                           ; THIS SOFTWARE, EVEN IF ADVISED OF THE POSSIBILITY OF SUCH DAMAGE.
   101                           ; 
   102                           ; 
   103                           ; Code-generator required, PIC16F887 Definitions
   104                           ; 
   105                           ; SFR Addresses
   106     0000                     	;# 
   107     0001                     	;# 
   108     0002                     	;# 
   109     0003                     	;# 
   110     0004                     	;# 
   111     0005                     	;# 
   112     0006                     	;# 
   113     0007                     	;# 
   114     0008                     	;# 
   115     0009                     	;# 
   116     000A                     	;# 
   117     000B                     	;# 
   118     000C                     	;# 
   119     000D                     	;# 
   120     000E                     	;# 
   121     000E                     	;# 
   122     000F                     	;# 
   123     0010                     	;# 
   124     0011                     	;# 
   125     0012                     	;# 
   126     0013                     	;# 
   127     0014                     	;# 
   128     0015                     	;# 
   129     0015                     	;# 
   130     0016                     	;# 
   131     0017                     	;# 
   132     0018                     	;# 
   133     0019                     	;# 
   134     001A                     	;# 
   135     001B                     	;# 
   136     001B                     	;# 
   137     001C                     	;# 
   138     001D                     	;# 
   139     001E                     	;# 
   140     001F                     	;# 
   141     0081                     	;# 
   142     0085                     	;# 
   143     0086                     	;# 
   144     0087                     	;# 
   145     0088                     	;# 
   146     0089                     	;# 
   147     008C                     	;# 
   148     008D                     	;# 
   149     008E                     	;# 
   150     008F                     	;# 
   151     0090                     	;# 
   152     0091                     	;# 
   153     0092                     	;# 
   154     0093                     	;# 
   155     0093                     	;# 
   156     0093                     	;# 
   157     0094                     	;# 
   158     0095                     	;# 
   159     0096                     	;# 
   160     0097                     	;# 
   161     0098                     	;# 
   162     0099                     	;# 
   163     009A                     	;# 
   164     009B                     	;# 
   165     009C                     	;# 
   166     009D                     	;# 
   167     009E                     	;# 
   168     009F                     	;# 
   169     0105                     	;# 
   170     0107                     	;# 
   171     0108                     	;# 
   172     0109                     	;# 
   173     010C                     	;# 
   174     010C                     	;# 
   175     010D                     	;# 
   176     010E                     	;# 
   177     010F                     	;# 
   178     0185                     	;# 
   179     0187                     	;# 
   180     0188                     	;# 
   181     0189                     	;# 
   182     018C                     	;# 
   183     018D                     	;# 
   184     0000                     	;# 
   185     0001                     	;# 
   186     0002                     	;# 
   187     0003                     	;# 
   188     0004                     	;# 
   189     0005                     	;# 
   190     0006                     	;# 
   191     0007                     	;# 
   192     0008                     	;# 
   193     0009                     	;# 
   194     000A                     	;# 
   195     000B                     	;# 
   196     000C                     	;# 
   197     000D                     	;# 
   198     000E                     	;# 
   199     000E                     	;# 
   200     000F                     	;# 
   201     0010                     	;# 
   202     0011                     	;# 
   203     0012                     	;# 
   204     0013                     	;# 
   205     0014                     	;# 
   206     0015                     	;# 
   207     0015                     	;# 
   208     0016                     	;# 
   209     0017                     	;# 
   210     0018                     	;# 
   211     0019                     	;# 
   212     001A                     	;# 
   213     001B                     	;# 
   214     001B                     	;# 
   215     001C                     	;# 
   216     001D                     	;# 
   217     001E                     	;# 
   218     001F                     	;# 
   219     0081                     	;# 
   220     0085                     	;# 
   221     0086                     	;# 
   222     0087                     	;# 
   223     0088                     	;# 
   224     0089                     	;# 
   225     008C                     	;# 
   226     008D                     	;# 
   227     008E                     	;# 
   228     008F                     	;# 
   229     0090                     	;# 
   230     0091                     	;# 
   231     0092                     	;# 
   232     0093                     	;# 
   233     0093                     	;# 
   234     0093                     	;# 
   235     0094                     	;# 
   236     0095                     	;# 
   237     0096                     	;# 
   238     0097                     	;# 
   239     0098                     	;# 
   240     0099                     	;# 
   241     009A                     	;# 
   242     009B                     	;# 
   243     009C                     	;# 
   244     009D                     	;# 
   245     009E                     	;# 
   246     009F                     	;# 
   247     0105                     	;# 
   248     0107                     	;# 
   249     0108                     	;# 
   250     0109                     	;# 
   251     010C                     	;# 
   252     010C                     	;# 
   253     010D                     	;# 
   254     010E                     	;# 
   255     010F                     	;# 
   256     0185                     	;# 
   257     0187                     	;# 
   258     0188                     	;# 
   259     0189                     	;# 
   260     018C                     	;# 
   261     018D                     	;# 
   262     0000                     	;# 
   263     0001                     	;# 
   264     0002                     	;# 
   265     0003                     	;# 
   266     0004                     	;# 
   267     0005                     	;# 
   268     0006                     	;# 
   269     0007                     	;# 
   270     0008                     	;# 
   271     0009                     	;# 
   272     000A                     	;# 
   273     000B                     	;# 
   274     000C                     	;# 
   275     000D                     	;# 
   276     000E                     	;# 
   277     000E                     	;# 
   278     000F                     	;# 
   279     0010                     	;# 
   280     0011                     	;# 
   281     0012                     	;# 
   282     0013                     	;# 
   283     0014                     	;# 
   284     0015                     	;# 
   285     0015                     	;# 
   286     0016                     	;# 
   287     0017                     	;# 
   288     0018                     	;# 
   289     0019                     	;# 
   290     001A                     	;# 
   291     001B                     	;# 
   292     001B                     	;# 
   293     001C                     	;# 
   294     001D                     	;# 
   295     001E                     	;# 
   296     001F                     	;# 
   297     0081                     	;# 
   298     0085                     	;# 
   299     0086                     	;# 
   300     0087                     	;# 
   301     0088                     	;# 
   302     0089                     	;# 
   303     008C                     	;# 
   304     008D                     	;# 
   305     008E                     	;# 
   306     008F                     	;# 
   307     0090                     	;# 
   308     0091                     	;# 
   309     0092                     	;# 
   310     0093                     	;# 
   311     0093                     	;# 
   312     0093                     	;# 
   313     0094                     	;# 
   314     0095                     	;# 
   315     0096                     	;# 
   316     0097                     	;# 
   317     0098                     	;# 
   318     0099                     	;# 
   319     009A                     	;# 
   320     009B                     	;# 
   321     009C                     	;# 
   322     009D                     	;# 
   323     009E                     	;# 
   324     009F                     	;# 
   325     0105                     	;# 
   326     0107                     	;# 
   327     0108                     	;# 
   328     0109                     	;# 
   329     010C                     	;# 
   330     010C                     	;# 
   331     010D                     	;# 
   332     010E                     	;# 
   333     010F                     	;# 
   334     0185                     	;# 
   335     0187                     	;# 
   336     0188                     	;# 
   337     0189                     	;# 
   338     018C                     	;# 
   339     018D                     	;# 
   340     0000                     	;# 
   341     0001                     	;# 
   342     0002                     	;# 
   343     0003                     	;# 
   344     0004                     	;# 
   345     0005                     	;# 
   346     0006                     	;# 
   347     0007                     	;# 
   348     0008                     	;# 
   349     0009                     	;# 
   350     000A                     	;# 
   351     000B                     	;# 
   352     000C                     	;# 
   353     000D                     	;# 
   354     000E                     	;# 
   355     000E                     	;# 
   356     000F                     	;# 
   357     0010                     	;# 
   358     0011                     	;# 
   359     0012                     	;# 
   360     0013                     	;# 
   361     0014                     	;# 
   362     0015                     	;# 
   363     0015                     	;# 
   364     0016                     	;# 
   365     0017                     	;# 
   366     0018                     	;# 
   367     0019                     	;# 
   368     001A                     	;# 
   369     001B                     	;# 
   370     001B                     	;# 
   371     001C                     	;# 
   372     001D                     	;# 
   373     001E                     	;# 
   374     001F                     	;# 
   375     0081                     	;# 
   376     0085                     	;# 
   377     0086                     	;# 
   378     0087                     	;# 
   379     0088                     	;# 
   380     0089                     	;# 
   381     008C                     	;# 
   382     008D                     	;# 
   383     008E                     	;# 
   384     008F                     	;# 
   385     0090                     	;# 
   386     0091                     	;# 
   387     0092                     	;# 
   388     0093                     	;# 
   389     0093                     	;# 
   390     0093                     	;# 
   391     0094                     	;# 
   392     0095                     	;# 
   393     0096                     	;# 
   394     0097                     	;# 
   395     0098                     	;# 
   396     0099                     	;# 
   397     009A                     	;# 
   398     009B                     	;# 
   399     009C                     	;# 
   400     009D                     	;# 
   401     009E                     	;# 
   402     009F                     	;# 
   403     0105                     	;# 
   404     0107                     	;# 
   405     0108                     	;# 
   406     0109                     	;# 
   407     010C                     	;# 
   408     010C                     	;# 
   409     010D                     	;# 
   410     010E                     	;# 
   411     010F                     	;# 
   412     0185                     	;# 
   413     0187                     	;# 
   414     0188                     	;# 
   415     0189                     	;# 
   416     018C                     	;# 
   417     018D                     	;# 
   418                           
   419                           	psect	strings
   420     1800                     __pstrings:
   421     1800                     stringtab:
   422     1800                     __stringtab:
   423                           
   424                           ;	String table - string pointers are 1 byte each
   425     1800  1BFF               	btfsc	btemp+1,7
   426     1801  280A               	ljmp	stringcode
   427     1802  1383               	bcf	3,7
   428     1803  187F               	btfsc	btemp+1,0
   429     1804  1783               	bsf	3,7
   430     1805  0800               	movf	0,w
   431     1806  0A84               	incf	4,f
   432     1807  1903               	skipnz
   433     1808  0AFF               	incf	btemp+1,f
   434     1809  0008               	return
   435     180A                     stringcode:
   436     180A                     stringdir:
   437     180A  3018               	movlw	high stringdir
   438     180B  008A               	movwf	10
   439     180C  0804               	movf	4,w
   440     180D  0A84               	incf	4,f
   441     180E  0782               	addwf	2,f
   442     180F                     __stringbase:
   443     180F  3400               	retlw	0
   444     1810                     __end_of__stringtab:
   445     1810                     _dpowers:
   446     1810  3401               	retlw	1
   447     1811  3400               	retlw	0
   448     1812  340A               	retlw	10
   449     1813  3400               	retlw	0
   450     1814  3464               	retlw	100
   451     1815  3400               	retlw	0
   452     1816  34E8               	retlw	232
   453     1817  3403               	retlw	3
   454     1818  3410               	retlw	16
   455     1819  3427               	retlw	39
   456     181A                     __end_of_dpowers:
   457     0013                     _SSPBUF	set	19
   458     000C                     _PIR1bits	set	12
   459     0014                     _SSPCON	set	20
   460     0008                     _PORTDbits	set	8
   461     0009                     _PORTE	set	9
   462     0008                     _PORTD	set	8
   463     0007                     _PORTC	set	7
   464     0006                     _PORTB	set	6
   465     0005                     _PORTA	set	5
   466     0001                     _TMR0	set	1
   467     0006                     _PORTBbits	set	6
   468     000B                     _INTCONbits	set	11
   469     0063                     _SSPIF	set	99
   470     005E                     _PEIE	set	94
   471     005F                     _GIE	set	95
   472     0091                     _SSPCON2bits	set	145
   473     0087                     _TRISCbits	set	135
   474     0094                     _SSPSTAT	set	148
   475     0093                     _SSPADD	set	147
   476     0091                     _SSPCON2	set	145
   477     0095                     _WPUBbits	set	149
   478     0096                     _IOCBbits	set	150
   479     0081                     _OPTION_REGbits	set	129
   480     008F                     _OSCCONbits	set	143
   481     0089                     _TRISE	set	137
   482     0088                     _TRISD	set	136
   483     0086                     _TRISB	set	134
   484     0463                     _SSPIE	set	1123
   485     043C                     _TRISC4	set	1084
   486     043B                     _TRISC3	set	1083
   487     0189                     _ANSELH	set	393
   488     0188                     _ANSEL	set	392
   489     181A                     STR_2:
   490     181A  3425               	retlw	37	;'%'
   491     181B  3430               	retlw	48	;'0'
   492     181C  3432               	retlw	50	;'2'
   493     181D  3475               	retlw	117	;'u'
   494     181E  343A               	retlw	58	;':'
   495     181F  3425               	retlw	37	;'%'
   496     1820  3430               	retlw	48	;'0'
   497     1821  3432               	retlw	50	;'2'
   498     1822  3475               	retlw	117	;'u'
   499     1823  343A               	retlw	58	;':'
   500     1824  3425               	retlw	37	;'%'
   501     1825  3430               	retlw	48	;'0'
   502     1826  3432               	retlw	50	;'2'
   503     1827  3475               	retlw	117	;'u'
   504     1828  3400               	retlw	0
   505     1829                     STR_1:
   506     1829  3454               	retlw	84	;'T'
   507     182A  343A               	retlw	58	;':'
   508     182B  3400               	retlw	0
   509     1829                     
   510                           	psect	cinit
   511     000F                     start_initialization:	
   512                           ; #config settings
   513                           
   514     000F                     __initialization:
   515                           
   516                           ; Clear objects allocated to COMMON
   517     000F  01FB               	clrf	__pbssCOMMON& (0+127)
   518     0010  01FC               	clrf	(__pbssCOMMON+1)& (0+127)
   519     0011  01FD               	clrf	(__pbssCOMMON+2)& (0+127)
   520                           
   521                           ; Clear objects allocated to BANK1
   522     0012  1383               	bcf	3,7	;select IRP bank0
   523     0013  30CE               	movlw	low __pbssBANK1
   524     0014  0084               	movwf	4
   525     0015  30DC               	movlw	low (__pbssBANK1+14)
   526     0016  160A  158A  2512  120A  118A  	fcall	clear_ram0
   527                           
   528                           ; Clear objects allocated to BANK3
   529     001B  1783               	bsf	3,7	;select IRP bank2
   530     001C  3090               	movlw	low __pbssBANK3
   531     001D  0084               	movwf	4
   532     001E  30DE               	movlw	low (__pbssBANK3+78)
   533     001F  160A  158A  2512  120A  118A  	fcall	clear_ram0
   534                           
   535                           ; Clear objects allocated to BANK2
   536     0024  3010               	movlw	low __pbssBANK2
   537     0025  0084               	movwf	4
   538     0026  3040               	movlw	low (__pbssBANK2+48)
   539     0027  160A  158A  2512  120A  118A  	fcall	clear_ram0
   540     002C                     end_of_initialization:	
   541                           ;End of C runtime variable initialization code
   542                           
   543     002C                     __end_of__initialization:
   544     002C  0183               	clrf	3
   545     002D  160A  118A  2EA9   	ljmp	_main	;jump to C main() function
   546                           
   547                           	psect	bssCOMMON
   548     007B                     __pbssCOMMON:
   549     007B                     _time:
   550     007B                     	ds	1
   551     007C                     _det:
   552     007C                     	ds	1
   553     007D                     _bandera:
   554     007D                     	ds	1
   555                           
   556                           	psect	bssBANK1
   557     00CE                     __pbssBANK1:
   558     00CE                     _temperatura:
   559     00CE                     	ds	4
   560     00D2                     _distancia:
   561     00D2                     	ds	4
   562     00D6                     _contador:
   563     00D6                     	ds	1
   564     00D7                     _cont:
   565     00D7                     	ds	1
   566     00D8                     _pantalla:
   567     00D8                     	ds	1
   568     00D9                     _horas:
   569     00D9                     	ds	1
   570     00DA                     _minutos:
   571     00DA                     	ds	1
   572     00DB                     _segundos:
   573     00DB                     	ds	1
   574                           
   575                           	psect	bssBANK3
   576     0190                     __pbssBANK3:
   577     0190                     _buffer2:
   578     0190                     	ds	48
   579     01C0                     _buffer:
   580     01C0                     	ds	30
   581                           
   582                           	psect	bssBANK2
   583     0110                     __pbssBANK2:
   584     0110                     _buffer3:
   585     0110                     	ds	48
   586                           
   587                           	psect	clrtext
   588     1D12                     clear_ram0:	
   589                           ;	Called with FSR containing the base address, and
   590                           ;	W with the last address+1
   591                           
   592     1D12  0064               	clrwdt	;clear the watchdog before getting into this loop
   593     1D13                     clrloop0:
   594     1D13  0180               	clrf	0	;clear RAM location pointed to by FSR
   595     1D14  0A84               	incf	4,f	;increment pointer
   596     1D15  0604               	xorwf	4,w	;XOR with final address
   597     1D16  1903               	btfsc	3,2	;have we reached the end yet?
   598     1D17  3400               	retlw	0	;all done for this memory range, return
   599     1D18  0604               	xorwf	4,w	;XOR again to restore value
   600     1D19  2D13               	goto	clrloop0	;do the next byte
   601                           
   602                           	psect	cstackBANK1
   603     00A0                     __pcstackBANK1:
   604     00A0                     ?_floattostr:
   605     00A0                     floattostr@numero_:	
   606                           ; 1 bytes @ 0x0
   607                           
   608                           
   609                           ; 4 bytes @ 0x0
   610     00A0                     	ds	4
   611     00A4                     floattostr@cadena_:
   612                           
   613                           ; 1 bytes @ 0x4
   614     00A4                     	ds	1
   615     00A5                     floattostr@decimales_:
   616                           
   617                           ; 1 bytes @ 0x5
   618     00A5                     	ds	1
   619     00A6                     ??_floattostr:
   620                           
   621                           ; 1 bytes @ 0x6
   622     00A6                     	ds	1
   623     00A7                     floattostr@tempo_int:
   624                           
   625                           ; 2 bytes @ 0x7
   626     00A7                     	ds	2
   627     00A9                     floattostr@tempo_float:
   628                           
   629                           ; 4 bytes @ 0x9
   630     00A9                     	ds	4
   631     00AD                     floattostr@largo_n:
   632                           
   633                           ; 2 bytes @ 0xD
   634     00AD                     	ds	2
   635     00AF                     floattostr@cont_for:
   636                           
   637                           ; 2 bytes @ 0xF
   638     00AF                     	ds	2
   639     00B1                     floattostr@largo_entera:
   640                           
   641                           ; 2 bytes @ 0x11
   642     00B1                     	ds	2
   643     00B3                     ??_AHT10_Read:
   644                           
   645                           ; 1 bytes @ 0x13
   646     00B3                     	ds	14
   647     00C1                     AHT10_Read@data:
   648                           
   649                           ; 7 bytes @ 0x21
   650     00C1                     	ds	7
   651     00C8                     ??_main:
   652                           
   653                           ; 1 bytes @ 0x28
   654     00C8                     	ds	6
   655                           
   656                           	psect	cstackCOMMON
   657     0070                     __pcstackCOMMON:
   658     0070                     ?_isdigit:
   659     0070                     ?_setup:	
   660                           ; 1 bit 
   661                           
   662     0070                     ?_Lcd_Init:	
   663                           ; 1 bytes @ 0x0
   664                           
   665     0070                     ?_AHT10_Soft_Reset:	
   666                           ; 1 bytes @ 0x0
   667                           
   668     0070                     ?_AHT10_Init:	
   669                           ; 1 bytes @ 0x0
   670                           
   671     0070                     ?_Set_sec:	
   672                           ; 1 bytes @ 0x0
   673                           
   674     0070                     ?_Set_min:	
   675                           ; 1 bytes @ 0x0
   676                           
   677     0070                     ?_Set_hour:	
   678                           ; 1 bytes @ 0x0
   679                           
   680     0070                     ?_Slave1_Total:	
   681                           ; 1 bytes @ 0x0
   682                           
   683     0070                     ?_AHT10_Read:	
   684                           ; 1 bytes @ 0x0
   685                           
   686     0070                     ?_Slave2:	
   687                           ; 1 bytes @ 0x0
   688                           
   689     0070                     ?_ESP32_Write:	
   690                           ; 1 bytes @ 0x0
   691                           
   692     0070                     ?_Lcd_Clear:	
   693                           ; 1 bytes @ 0x0
   694                           
   695     0070                     ?_I2C_Master_Start:	
   696                           ; 1 bytes @ 0x0
   697                           
   698     0070                     ?_I2C_Master_RepeatedStart:	
   699                           ; 1 bytes @ 0x0
   700                           
   701     0070                     ?_I2C_Nack:	
   702                           ; 1 bytes @ 0x0
   703                           
   704     0070                     ?_I2C_Master_Stop:	
   705                           ; 1 bytes @ 0x0
   706                           
   707     0070                     ?_Bcd_to_Dec:	
   708                           ; 1 bytes @ 0x0
   709                           
   710     0070                     ?_Dec_to_Bcd:	
   711                           ; 1 bytes @ 0x0
   712                           
   713     0070                     ?_I2C_Ack:	
   714                           ; 1 bytes @ 0x0
   715                           
   716     0070                     ?_main:	
   717                           ; 1 bytes @ 0x0
   718                           
   719     0070                     ?_isr:	
   720                           ; 1 bytes @ 0x0
   721                           
   722     0070                     ?_Read:	
   723                           ; 1 bytes @ 0x0
   724                           
   725     0070                     ?_Lcd_Port:	
   726                           ; 1 bytes @ 0x0
   727                           
   728     0070                     ?_Lcd_Cmd:	
   729                           ; 1 bytes @ 0x0
   730                           
   731     0070                     ?_Lcd_Write_Char:	
   732                           ; 1 bytes @ 0x0
   733                           
   734     0070                     ?_I2C_Master_Wait:	
   735                           ; 1 bytes @ 0x0
   736                           
   737     0070                     ?i1_Lcd_Port:	
   738                           ; 1 bytes @ 0x0
   739                           
   740     0070                     ??i1_Lcd_Port:	
   741                           ; 1 bytes @ 0x0
   742                           
   743     0070                     ?i1_Lcd_Cmd:	
   744                           ; 1 bytes @ 0x0
   745                           
   746     0070                     ?i1_Lcd_Init:	
   747                           ; 1 bytes @ 0x0
   748                           
   749     0070                     i1Lcd_Port@a:	
   750                           ; 1 bytes @ 0x0
   751                           
   752                           
   753                           ; 1 bytes @ 0x0
   754     0070                     	ds	1
   755     0071                     ??i1_Lcd_Cmd:
   756                           
   757                           ; 1 bytes @ 0x1
   758     0071                     	ds	2
   759     0073                     i1Lcd_Cmd@a:
   760                           
   761                           ; 1 bytes @ 0x3
   762     0073                     	ds	1
   763     0074                     ??_Lcd_Clear:
   764     0074                     ??i1_Lcd_Init:	
   765                           ; 1 bytes @ 0x4
   766                           
   767                           
   768                           ; 1 bytes @ 0x4
   769     0074                     	ds	2
   770     0076                     ??_isr:
   771                           
   772                           ; 1 bytes @ 0x6
   773     0076                     	ds	5
   774                           
   775                           	psect	cstackBANK0
   776     0020                     __pcstackBANK0:
   777     0020                     ?___flge:
   778     0020                     ??_I2C_Master_Start:	
   779                           ; 1 bit 
   780                           
   781     0020                     ??_I2C_Master_RepeatedStart:	
   782                           ; 1 bytes @ 0x0
   783                           
   784     0020                     ??_I2C_Nack:	
   785                           ; 1 bytes @ 0x0
   786                           
   787     0020                     ??_I2C_Master_Stop:	
   788                           ; 1 bytes @ 0x0
   789                           
   790     0020                     ??_Dec_to_Bcd:	
   791                           ; 1 bytes @ 0x0
   792                           
   793     0020                     ??_I2C_Ack:	
   794                           ; 1 bytes @ 0x0
   795                           
   796     0020                     ??_isdigit:	
   797                           ; 1 bytes @ 0x0
   798                           
   799     0020                     ??_Lcd_Port:	
   800                           ; 1 bytes @ 0x0
   801                           
   802     0020                     ??_I2C_Master_Wait:	
   803                           ; 1 bytes @ 0x0
   804                           
   805     0020                     ?___bmul:	
   806                           ; 1 bytes @ 0x0
   807                           
   808     0020                     ?_I2C_Master_Read:	
   809                           ; 1 bytes @ 0x0
   810                           
   811     0020                     ?__Umul8_16:	
   812                           ; 2 bytes @ 0x0
   813                           
   814     0020                     ?___wmul:	
   815                           ; 2 bytes @ 0x0
   816                           
   817     0020                     ?___lwdiv:	
   818                           ; 2 bytes @ 0x0
   819                           
   820     0020                     ?___lldiv:	
   821                           ; 2 bytes @ 0x0
   822                           
   823     0020                     ?___flneg:	
   824                           ; 4 bytes @ 0x0
   825                           
   826     0020                     ?___fltol:	
   827                           ; 4 bytes @ 0x0
   828                           
   829     0020                     ?___fldiv:	
   830                           ; 4 bytes @ 0x0
   831                           
   832     0020                     Dec_to_Bcd@dec_number:	
   833                           ; 4 bytes @ 0x0
   834                           
   835     0020                     Lcd_Port@a:	
   836                           ; 1 bytes @ 0x0
   837                           
   838     0020                     ___bmul@multiplicand:	
   839                           ; 1 bytes @ 0x0
   840                           
   841     0020                     __Umul8_16@multiplicand:	
   842                           ; 1 bytes @ 0x0
   843                           
   844     0020                     _isdigit$1066:	
   845                           ; 1 bytes @ 0x0
   846                           
   847     0020                     I2C_Master_Read@a:	
   848                           ; 1 bytes @ 0x0
   849                           
   850     0020                     ___wmul@multiplier:	
   851                           ; 2 bytes @ 0x0
   852                           
   853     0020                     ___lwdiv@divisor:	
   854                           ; 2 bytes @ 0x0
   855                           
   856     0020                     ___lldiv@divisor:	
   857                           ; 2 bytes @ 0x0
   858                           
   859     0020                     ___flge@ff1:	
   860                           ; 4 bytes @ 0x0
   861                           
   862     0020                     ___flneg@f1:	
   863                           ; 4 bytes @ 0x0
   864                           
   865     0020                     ___fltol@f1:	
   866                           ; 4 bytes @ 0x0
   867                           
   868     0020                     ___fldiv@a:	
   869                           ; 4 bytes @ 0x0
   870                           
   871                           
   872                           ; 4 bytes @ 0x0
   873     0020                     	ds	1
   874     0021                     ??_Lcd_Cmd:
   875     0021                     ??_Lcd_Write_Char:	
   876                           ; 1 bytes @ 0x1
   877                           
   878     0021                     ??___bmul:	
   879                           ; 1 bytes @ 0x1
   880                           
   881     0021                     Dec_to_Bcd@bcd_number:	
   882                           ; 1 bytes @ 0x1
   883                           
   884     0021                     isdigit@c:	
   885                           ; 1 bytes @ 0x1
   886                           
   887                           
   888                           ; 1 bytes @ 0x1
   889     0021                     	ds	1
   890     0022                     ??_I2C_Master_Read:
   891     0022                     ??__Umul8_16:	
   892                           ; 1 bytes @ 0x2
   893                           
   894     0022                     Lcd_Write_Char@temp:	
   895                           ; 1 bytes @ 0x2
   896                           
   897     0022                     ___bmul@product:	
   898                           ; 1 bytes @ 0x2
   899                           
   900     0022                     ___wmul@multiplicand:	
   901                           ; 1 bytes @ 0x2
   902                           
   903     0022                     ___lwdiv@dividend:	
   904                           ; 2 bytes @ 0x2
   905                           
   906                           
   907                           ; 2 bytes @ 0x2
   908     0022                     	ds	1
   909     0023                     Lcd_Cmd@a:
   910     0023                     Lcd_Write_Char@y:	
   911                           ; 1 bytes @ 0x3
   912                           
   913     0023                     ___bmul@multiplier:	
   914                           ; 1 bytes @ 0x3
   915                           
   916                           
   917                           ; 1 bytes @ 0x3
   918     0023                     	ds	1
   919     0024                     ??_Lcd_Init:
   920     0024                     ?_Lcd_Set_Cursor:	
   921                           ; 1 bytes @ 0x4
   922                           
   923     0024                     ??_Bcd_to_Dec:	
   924                           ; 1 bytes @ 0x4
   925                           
   926     0024                     ??___wmul:	
   927                           ; 1 bytes @ 0x4
   928                           
   929     0024                     ??___flneg:	
   930                           ; 1 bytes @ 0x4
   931                           
   932     0024                     ??___fltol:	
   933                           ; 1 bytes @ 0x4
   934                           
   935     0024                     ??___lwdiv:	
   936                           ; 1 bytes @ 0x4
   937                           
   938     0024                     Lcd_Set_Cursor@b:	
   939                           ; 1 bytes @ 0x4
   940                           
   941     0024                     Lcd_Write_Char@a:	
   942                           ; 1 bytes @ 0x4
   943                           
   944     0024                     I2C_Master_Read@temp:	
   945                           ; 1 bytes @ 0x4
   946                           
   947     0024                     ___wmul@product:	
   948                           ; 2 bytes @ 0x4
   949                           
   950     0024                     __Umul8_16@product:	
   951                           ; 2 bytes @ 0x4
   952                           
   953     0024                     ___lldiv@dividend:	
   954                           ; 2 bytes @ 0x4
   955                           
   956     0024                     ___flge@ff2:	
   957                           ; 4 bytes @ 0x4
   958                           
   959     0024                     ___fldiv@b:	
   960                           ; 4 bytes @ 0x4
   961                           
   962                           
   963                           ; 4 bytes @ 0x4
   964     0024                     	ds	1
   965     0025                     ??_Lcd_Set_Cursor:
   966     0025                     ?_Lcd_Write_String:	
   967                           ; 1 bytes @ 0x5
   968                           
   969     0025                     Lcd_Write_String@a:	
   970                           ; 1 bytes @ 0x5
   971                           
   972     0025                     ___lwdiv@quotient:	
   973                           ; 2 bytes @ 0x5
   974                           
   975                           
   976                           ; 2 bytes @ 0x5
   977     0025                     	ds	1
   978     0026                     ?___xxtofl:
   979     0026                     Bcd_to_Dec@dec:	
   980                           ; 4 bytes @ 0x6
   981                           
   982     0026                     Lcd_Set_Cursor@a:	
   983                           ; 1 bytes @ 0x6
   984                           
   985     0026                     __Umul8_16@word_mpld:	
   986                           ; 1 bytes @ 0x6
   987                           
   988     0026                     ___xxtofl@val:	
   989                           ; 2 bytes @ 0x6
   990                           
   991                           
   992                           ; 4 bytes @ 0x6
   993     0026                     	ds	1
   994     0027                     ??_Lcd_Write_String:
   995     0027                     Bcd_to_Dec@bcd:	
   996                           ; 1 bytes @ 0x7
   997                           
   998     0027                     Lcd_Set_Cursor@z:	
   999                           ; 1 bytes @ 0x7
  1000                           
  1001     0027                     ___lwdiv@counter:	
  1002                           ; 1 bytes @ 0x7
  1003                           
  1004                           
  1005                           ; 1 bytes @ 0x7
  1006     0027                     	ds	1
  1007     0028                     ??___lldiv:
  1008     0028                     ??___flge:	
  1009                           ; 1 bytes @ 0x8
  1010                           
  1011     0028                     ??___fldiv:	
  1012                           ; 1 bytes @ 0x8
  1013                           
  1014     0028                     ?___lwmod:	
  1015                           ; 1 bytes @ 0x8
  1016                           
  1017     0028                     Lcd_Set_Cursor@y:	
  1018                           ; 2 bytes @ 0x8
  1019                           
  1020     0028                     ___fltol@sign1:	
  1021                           ; 1 bytes @ 0x8
  1022                           
  1023     0028                     __Umul8_16@multiplier:	
  1024                           ; 1 bytes @ 0x8
  1025                           
  1026     0028                     ___lwmod@divisor:	
  1027                           ; 1 bytes @ 0x8
  1028                           
  1029                           
  1030                           ; 2 bytes @ 0x8
  1031     0028                     	ds	1
  1032     0029                     Lcd_Set_Cursor@temp:
  1033     0029                     ___fltol@exp1:	
  1034                           ; 1 bytes @ 0x9
  1035                           
  1036     0029                     ___lldiv@quotient:	
  1037                           ; 1 bytes @ 0x9
  1038                           
  1039                           
  1040                           ; 4 bytes @ 0x9
  1041     0029                     	ds	1
  1042     002A                     ?_I2C_Master_Write:
  1043     002A                     ??___xxtofl:	
  1044                           ; 1 bytes @ 0xA
  1045                           
  1046     002A                     Lcd_Write_String@i:	
  1047                           ; 1 bytes @ 0xA
  1048                           
  1049     002A                     I2C_Master_Write@d:	
  1050                           ; 2 bytes @ 0xA
  1051                           
  1052     002A                     ___lwmod@dividend:	
  1053                           ; 2 bytes @ 0xA
  1054                           
  1055                           
  1056                           ; 2 bytes @ 0xA
  1057     002A                     	ds	2
  1058     002C                     ??_AHT10_Soft_Reset:
  1059     002C                     ??_AHT10_Init:	
  1060                           ; 1 bytes @ 0xC
  1061                           
  1062     002C                     ??_Set_sec:	
  1063                           ; 1 bytes @ 0xC
  1064                           
  1065     002C                     ??_Set_min:	
  1066                           ; 1 bytes @ 0xC
  1067                           
  1068     002C                     ??_Set_hour:	
  1069                           ; 1 bytes @ 0xC
  1070                           
  1071     002C                     ??_Slave1_Total:	
  1072                           ; 1 bytes @ 0xC
  1073                           
  1074     002C                     ??_ESP32_Write:	
  1075                           ; 1 bytes @ 0xC
  1076                           
  1077     002C                     ??_I2C_Master_Write:	
  1078                           ; 1 bytes @ 0xC
  1079                           
  1080     002C                     ??_Read:	
  1081                           ; 1 bytes @ 0xC
  1082                           
  1083     002C                     ??___lwmod:	
  1084                           ; 1 bytes @ 0xC
  1085                           
  1086                           
  1087                           ; 1 bytes @ 0xC
  1088     002C                     	ds	1
  1089     002D                     ___lldiv@counter:
  1090     002D                     ___lwmod@counter:	
  1091                           ; 1 bytes @ 0xD
  1092                           
  1093     002D                     ___fldiv@rem:	
  1094                           ; 1 bytes @ 0xD
  1095                           
  1096                           
  1097                           ; 4 bytes @ 0xD
  1098     002D                     	ds	1
  1099     002E                     ?_I2C_Master_Init:
  1100     002E                     ?_sprintf:	
  1101                           ; 1 bytes @ 0xE
  1102                           
  1103     002E                     Read@address:	
  1104                           ; 2 bytes @ 0xE
  1105                           
  1106     002E                     Set_sec@sec:	
  1107                           ; 1 bytes @ 0xE
  1108                           
  1109     002E                     Set_min@min:	
  1110                           ; 1 bytes @ 0xE
  1111                           
  1112     002E                     Set_hour@hour:	
  1113                           ; 1 bytes @ 0xE
  1114                           
  1115     002E                     sprintf@f:	
  1116                           ; 1 bytes @ 0xE
  1117                           
  1118     002E                     ___xxtofl@sign:	
  1119                           ; 1 bytes @ 0xE
  1120                           
  1121     002E                     I2C_Master_Init@c:	
  1122                           ; 1 bytes @ 0xE
  1123                           
  1124                           
  1125                           ; 4 bytes @ 0xE
  1126     002E                     	ds	1
  1127     002F                     Read@dato:
  1128     002F                     ___xxtofl@exp:	
  1129                           ; 1 bytes @ 0xF
  1130                           
  1131                           
  1132                           ; 1 bytes @ 0xF
  1133     002F                     	ds	1
  1134     0030                     ?_Read_Time:
  1135     0030                     Read_Time@m:	
  1136                           ; 1 bytes @ 0x10
  1137                           
  1138     0030                     ___xxtofl@arg:	
  1139                           ; 1 bytes @ 0x10
  1140                           
  1141                           
  1142                           ; 4 bytes @ 0x10
  1143     0030                     	ds	1
  1144     0031                     Read_Time@h:
  1145     0031                     ___fldiv@sign:	
  1146                           ; 1 bytes @ 0x11
  1147                           
  1148                           
  1149                           ; 1 bytes @ 0x11
  1150     0031                     	ds	1
  1151     0032                     ??_Read_Time:
  1152     0032                     ??_I2C_Master_Init:	
  1153                           ; 1 bytes @ 0x12
  1154                           
  1155     0032                     Read_Time@s:	
  1156                           ; 1 bytes @ 0x12
  1157                           
  1158     0032                     ___fldiv@new_exp:	
  1159                           ; 1 bytes @ 0x12
  1160                           
  1161                           
  1162                           ; 2 bytes @ 0x12
  1163     0032                     	ds	2
  1164     0034                     ??_Slave2:
  1165     0034                     ___fldiv@grs:	
  1166                           ; 1 bytes @ 0x14
  1167                           
  1168                           
  1169                           ; 4 bytes @ 0x14
  1170     0034                     	ds	1
  1171     0035                     ??_sprintf:
  1172                           
  1173                           ; 1 bytes @ 0x15
  1174     0035                     	ds	1
  1175     0036                     ??_setup:
  1176                           
  1177                           ; 1 bytes @ 0x16
  1178     0036                     	ds	2
  1179     0038                     sprintf@ap:
  1180     0038                     ___fldiv@bexp:	
  1181                           ; 1 bytes @ 0x18
  1182                           
  1183                           
  1184                           ; 1 bytes @ 0x18
  1185     0038                     	ds	1
  1186     0039                     sprintf@flag:
  1187     0039                     ___fldiv@aexp:	
  1188                           ; 1 bytes @ 0x19
  1189                           
  1190                           
  1191                           ; 1 bytes @ 0x19
  1192     0039                     	ds	1
  1193     003A                     ?___flmul:
  1194     003A                     sprintf@val:	
  1195                           ; 4 bytes @ 0x1A
  1196                           
  1197     003A                     ___flmul@b:	
  1198                           ; 2 bytes @ 0x1A
  1199                           
  1200                           
  1201                           ; 4 bytes @ 0x1A
  1202     003A                     	ds	2
  1203     003C                     sprintf@prec:
  1204                           
  1205                           ; 1 bytes @ 0x1C
  1206     003C                     	ds	1
  1207     003D                     sprintf@sp:
  1208                           
  1209                           ; 1 bytes @ 0x1D
  1210     003D                     	ds	1
  1211     003E                     sprintf@width:
  1212     003E                     ___flmul@a:	
  1213                           ; 2 bytes @ 0x1E
  1214                           
  1215                           
  1216                           ; 4 bytes @ 0x1E
  1217     003E                     	ds	2
  1218     0040                     sprintf@c:
  1219                           
  1220                           ; 1 bytes @ 0x20
  1221     0040                     	ds	2
  1222     0042                     ??___flmul:
  1223                           
  1224                           ; 1 bytes @ 0x22
  1225     0042                     	ds	5
  1226     0047                     ___flmul@sign:
  1227                           
  1228                           ; 1 bytes @ 0x27
  1229     0047                     	ds	1
  1230     0048                     ___flmul@grs:
  1231                           
  1232                           ; 4 bytes @ 0x28
  1233     0048                     	ds	4
  1234     004C                     ___flmul@aexp:
  1235                           
  1236                           ; 1 bytes @ 0x2C
  1237     004C                     	ds	1
  1238     004D                     ___flmul@bexp:
  1239                           
  1240                           ; 1 bytes @ 0x2D
  1241     004D                     	ds	1
  1242     004E                     ___flmul@prod:
  1243                           
  1244                           ; 4 bytes @ 0x2E
  1245     004E                     	ds	4
  1246     0052                     ___flmul@temp:
  1247                           
  1248                           ; 2 bytes @ 0x32
  1249     0052                     	ds	2
  1250     0054                     ?___fladd:
  1251     0054                     ___fladd@b:	
  1252                           ; 4 bytes @ 0x34
  1253                           
  1254                           
  1255                           ; 4 bytes @ 0x34
  1256     0054                     	ds	4
  1257     0058                     ___fladd@a:
  1258                           
  1259                           ; 4 bytes @ 0x38
  1260     0058                     	ds	4
  1261     005C                     ??___fladd:
  1262                           
  1263                           ; 1 bytes @ 0x3C
  1264     005C                     	ds	8
  1265     0064                     ___fladd@signs:
  1266                           
  1267                           ; 1 bytes @ 0x44
  1268     0064                     	ds	1
  1269     0065                     ___fladd@aexp:
  1270                           
  1271                           ; 1 bytes @ 0x45
  1272     0065                     	ds	1
  1273     0066                     ___fladd@bexp:
  1274                           
  1275                           ; 1 bytes @ 0x46
  1276     0066                     	ds	1
  1277     0067                     ___fladd@grs:
  1278                           
  1279                           ; 1 bytes @ 0x47
  1280     0067                     	ds	1
  1281     0068                     ?___flsub:
  1282     0068                     ___flsub@a:	
  1283                           ; 4 bytes @ 0x48
  1284                           
  1285                           
  1286                           ; 4 bytes @ 0x48
  1287     0068                     	ds	4
  1288     006C                     ___flsub@b:
  1289                           
  1290                           ; 4 bytes @ 0x4C
  1291     006C                     	ds	4
  1292     0070                     ??___flsub:
  1293                           
  1294                           	psect	maintext
  1295     16A9                     __pmaintext:	
  1296                           ; 1 bytes @ 0x50
  1297 ;;
  1298 ;;Main: autosize = 0, tempsize = 6, incstack = 0, save=0
  1299 ;;
  1300 ;; *************** function _main *****************
  1301 ;; Defined at:
  1302 ;;		line 62 in file "main_master.c"
  1303 ;; Parameters:    Size  Location     Type
  1304 ;;		None
  1305 ;; Auto vars:     Size  Location     Type
  1306 ;;		None
  1307 ;; Return value:  Size  Location     Type
  1308 ;;                  1    wreg      void 
  1309 ;; Registers used:
  1310 ;;		wreg, fsr0l, fsr0h, status,2, status,0, btemp+1, pclath, cstack
  1311 ;; Tracked objects:
  1312 ;;		On entry : B00/0
  1313 ;;		On exit  : 0/0
  1314 ;;		Unchanged: 0/0
  1315 ;; Data sizes:     COMMON   BANK0   BANK1   BANK3   BANK2
  1316 ;;      Params:         0       0       0       0       0
  1317 ;;      Locals:         0       0       0       0       0
  1318 ;;      Temps:          0       0       6       0       0
  1319 ;;      Totals:         0       0       6       0       0
  1320 ;;Total ram usage:        6 bytes
  1321 ;; Hardware stack levels required when called: 8
  1322 ;; This function calls:
  1323 ;;		_AHT10_Init
  1324 ;;		_AHT10_Read
  1325 ;;		_AHT10_Soft_Reset
  1326 ;;		_ESP32_Write
  1327 ;;		_Lcd_Init
  1328 ;;		_Lcd_Set_Cursor
  1329 ;;		_Lcd_Write_String
  1330 ;;		_Read_Time
  1331 ;;		_Set_hour
  1332 ;;		_Set_min
  1333 ;;		_Set_sec
  1334 ;;		_Slave1_Total
  1335 ;;		_Slave2
  1336 ;;		_floattostr
  1337 ;;		_setup
  1338 ;;		_sprintf
  1339 ;; This function is called by:
  1340 ;;		Startup code after reset
  1341 ;; This function uses a non-reentrant model
  1342 ;;
  1343                           
  1344     16A9                     _main:	
  1345                           ;psect for function _main
  1346                           
  1347     16A9                     l3695:	
  1348                           ;incstack = 0
  1349                           ; Regs used in _main: [wreg-fsr0h+status,2+status,0+btemp+1+pclath+cstack]
  1350                           
  1351                           
  1352                           ;main_master.c: 63:     setup();
  1353     16A9  160A  158A  26B7  160A  118A  	fcall	_setup
  1354                           
  1355                           ;main_master.c: 64:     Lcd_Init();
  1356     16AE  160A  118A  230C  160A  118A  	fcall	_Lcd_Init
  1357                           
  1358                           ;main_master.c: 65:     AHT10_Soft_Reset();
  1359     16B3  160A  158A  271F  160A  118A  	fcall	_AHT10_Soft_Reset
  1360                           
  1361                           ;main_master.c: 66:     AHT10_Init();
  1362     16B8  160A  118A  24C0  160A  118A  	fcall	_AHT10_Init
  1363                           
  1364                           ;main_master.c: 67:     Set_sec(0);
  1365     16BD  3000               	movlw	0
  1366     16BE  160A  158A  2756  160A  118A  	fcall	_Set_sec
  1367                           
  1368                           ;main_master.c: 68:     Set_min(0);
  1369     16C3  3000               	movlw	0
  1370     16C4  160A  118A  201F  160A  118A  	fcall	_Set_min
  1371                           
  1372                           ;main_master.c: 69:     Set_hour(0);
  1373     16C9  3000               	movlw	0
  1374     16CA  160A  158A  27C7  160A  118A  	fcall	_Set_hour
  1375     16CF                     l3697:
  1376                           
  1377                           ;main_master.c: 70:     _delay((unsigned long)((1000)*(8000000/4000.0)));
  1378     16CF  300B               	movlw	11
  1379     16D0  1683               	bsf	3,5	;RP0=1, select bank1
  1380     16D1  1303               	bcf	3,6	;RP1=0, select bank1
  1381     16D2  00CA               	movwf	(??_main^(0+128)+2)
  1382     16D3  3026               	movlw	38
  1383     16D4  00C9               	movwf	(??_main^(0+128)+1)
  1384     16D5  305D               	movlw	93
  1385     16D6  00C8               	movwf	??_main^(0+128)
  1386     16D7                     u4787:
  1387     16D7  0BC8               	decfsz	??_main^(0+128),f
  1388     16D8  2ED7               	goto	u4787
  1389     16D9  0BC9               	decfsz	(??_main^(0+128)+1),f
  1390     16DA  2ED7               	goto	u4787
  1391     16DB  0BCA               	decfsz	(??_main^(0+128)+2),f
  1392     16DC  2ED7               	goto	u4787
  1393     16DD                     l3699:
  1394                           
  1395                           ;main_master.c: 72:         contador++;
  1396     16DD  3001               	movlw	1
  1397     16DE  1683               	bsf	3,5	;RP0=1, select bank1
  1398     16DF  1303               	bcf	3,6	;RP1=0, select bank1
  1399     16E0  00C8               	movwf	??_main^(0+128)
  1400     16E1  0848               	movf	??_main^(0+128),w
  1401     16E2  07D6               	addwf	_contador^(0+128),f
  1402     16E3                     l3701:
  1403                           
  1404                           ;main_master.c: 73:         Slave1_Total();
  1405     16E3  160A  118A  2252  160A  118A  	fcall	_Slave1_Total
  1406     16E8                     l3703:
  1407                           
  1408                           ;main_master.c: 74:         Read_Time(&segundos, &minutos, &horas);
  1409     16E8  30DA               	movlw	(low (_minutos| 0))& (0+255)
  1410     16E9  1283               	bcf	3,5	;RP0=0, select bank0
  1411     16EA  1303               	bcf	3,6	;RP1=0, select bank0
  1412     16EB  00B0               	movwf	Read_Time@m
  1413     16EC  30D9               	movlw	(low (_horas| 0))& (0+255)
  1414     16ED  00B1               	movwf	Read_Time@h
  1415     16EE  30DB               	movlw	(low (_segundos| 0))& (0+255)
  1416     16EF  160A  158A  26EA  160A  118A  	fcall	_Read_Time
  1417     16F4                     l3705:
  1418                           
  1419                           ;main_master.c: 75:         AHT10_Read();
  1420     16F4  120A  158A  2374  160A  118A  	fcall	_AHT10_Read
  1421     16F9                     l3707:
  1422                           
  1423                           ;main_master.c: 76:         Slave2();
  1424     16F9  160A  118A  21FA  160A  118A  	fcall	_Slave2
  1425     16FE                     l3709:
  1426                           
  1427                           ;main_master.c: 77:         _delay((unsigned long)((10)*(8000000/4000.0)));
  1428     16FE  301A               	movlw	26
  1429     16FF  1683               	bsf	3,5	;RP0=1, select bank1
  1430     1700  1303               	bcf	3,6	;RP1=0, select bank1
  1431     1701  00C9               	movwf	(??_main^(0+128)+1)
  1432     1702  30F7               	movlw	247
  1433     1703  00C8               	movwf	??_main^(0+128)
  1434     1704                     u4797:
  1435     1704  0BC8               	decfsz	??_main^(0+128),f
  1436     1705  2F04               	goto	u4797
  1437     1706  0BC9               	decfsz	(??_main^(0+128)+1),f
  1438     1707  2F04               	goto	u4797
  1439     1708  2F09               	nop2
  1440     1709                     l3711:
  1441                           
  1442                           ;main_master.c: 78:         ESP32_Write();
  1443     1709  120A  118A  277B  160A  118A  	fcall	_ESP32_Write
  1444     170E                     l3713:
  1445                           
  1446                           ;main_master.c: 80:         if (pantalla == 0){
  1447     170E  1683               	bsf	3,5	;RP0=1, select bank1
  1448     170F  1303               	bcf	3,6	;RP1=0, select bank1
  1449     1710  0858               	movf	_pantalla^(0+128),w
  1450     1711  1D03               	btfss	3,2
  1451     1712  2F14               	goto	u4661
  1452     1713  2F15               	goto	u4660
  1453     1714                     u4661:
  1454     1714  2FBA               	goto	l3729
  1455     1715                     u4660:
  1456     1715                     l3715:
  1457                           
  1458                           ;main_master.c: 81:             Lcd_Set_Cursor(1,10);
  1459     1715  300A               	movlw	10
  1460     1716  1283               	bcf	3,5	;RP0=0, select bank0
  1461     1717  1303               	bcf	3,6	;RP1=0, select bank0
  1462     1718  00A4               	movwf	Lcd_Set_Cursor@b
  1463     1719  3001               	movlw	1
  1464     171A  160A  118A  215A  160A  118A  	fcall	_Lcd_Set_Cursor
  1465     171F                     l3717:
  1466                           
  1467                           ;main_master.c: 82:             Lcd_Write_String("T:");
  1468     171F  301A               	movlw	(low ((STR_1-__stringbase)| (0+32768)))& (0+255)
  1469     1720  1283               	bcf	3,5	;RP0=0, select bank0
  1470     1721  1303               	bcf	3,6	;RP1=0, select bank0
  1471     1722  00A5               	movwf	Lcd_Write_String@a
  1472     1723  3080               	movlw	128
  1473     1724  00A6               	movwf	Lcd_Write_String@a+1
  1474     1725  160A  118A  20CE  160A  118A  	fcall	_Lcd_Write_String
  1475     172A                     l3719:
  1476                           
  1477                           ;main_master.c: 84:             Lcd_Set_Cursor(1,12);
  1478     172A  300C               	movlw	12
  1479     172B  1283               	bcf	3,5	;RP0=0, select bank0
  1480     172C  1303               	bcf	3,6	;RP1=0, select bank0
  1481     172D  00A4               	movwf	Lcd_Set_Cursor@b
  1482     172E  3001               	movlw	1
  1483     172F  160A  118A  215A  160A  118A  	fcall	_Lcd_Set_Cursor
  1484                           
  1485                           ;main_master.c: 85:             Lcd_Write_String(buffer2);
  1486     1734  3090               	movlw	(low (_buffer2| (0+256)))& (0+255)
  1487     1735  1283               	bcf	3,5	;RP0=0, select bank0
  1488     1736  1303               	bcf	3,6	;RP1=0, select bank0
  1489     1737  00A5               	movwf	Lcd_Write_String@a
  1490     1738  3001               	movlw	1
  1491     1739  00A6               	movwf	Lcd_Write_String@a+1
  1492     173A  160A  118A  20CE  160A  118A  	fcall	_Lcd_Write_String
  1493     173F                     l3721:
  1494                           
  1495                           ;main_master.c: 87:             Lcd_Set_Cursor(1,1);
  1496     173F  1283               	bcf	3,5	;RP0=0, select bank0
  1497     1740  1303               	bcf	3,6	;RP1=0, select bank0
  1498     1741  01A4               	clrf	Lcd_Set_Cursor@b
  1499     1742  0AA4               	incf	Lcd_Set_Cursor@b,f
  1500     1743  3001               	movlw	1
  1501     1744  160A  118A  215A  160A  118A  	fcall	_Lcd_Set_Cursor
  1502     1749                     l3723:
  1503                           
  1504                           ;main_master.c: 88:             sprintf(buffer, "%02u:%02u:%02u", horas, minutos, segund
      +                          os);
  1505     1749  300B               	movlw	(low ((STR_2-__stringbase)| (0+32768)))& (0+255)
  1506     174A  1283               	bcf	3,5	;RP0=0, select bank0
  1507     174B  1303               	bcf	3,6	;RP1=0, select bank0
  1508     174C  00AE               	movwf	sprintf@f
  1509     174D  1683               	bsf	3,5	;RP0=1, select bank1
  1510     174E  1303               	bcf	3,6	;RP1=0, select bank1
  1511     174F  0859               	movf	_horas^(0+128),w
  1512     1750  00C8               	movwf	??_main^(0+128)
  1513     1751  01C9               	clrf	(??_main^(0+128)+1)
  1514     1752  0848               	movf	??_main^(0+128),w
  1515     1753  1283               	bcf	3,5	;RP0=0, select bank0
  1516     1754  1303               	bcf	3,6	;RP1=0, select bank0
  1517     1755  00AF               	movwf	?_sprintf+1
  1518     1756  1683               	bsf	3,5	;RP0=1, select bank1
  1519     1757  1303               	bcf	3,6	;RP1=0, select bank1
  1520     1758  0849               	movf	(??_main+1)^(0+128),w
  1521     1759  1283               	bcf	3,5	;RP0=0, select bank0
  1522     175A  1303               	bcf	3,6	;RP1=0, select bank0
  1523     175B  00B0               	movwf	?_sprintf+2
  1524     175C  1683               	bsf	3,5	;RP0=1, select bank1
  1525     175D  1303               	bcf	3,6	;RP1=0, select bank1
  1526     175E  085A               	movf	_minutos^(0+128),w
  1527     175F  00CA               	movwf	(??_main+2)^(0+128)
  1528     1760  01CB               	clrf	((??_main+2)^(0+128)+1)
  1529     1761  084A               	movf	(??_main+2)^(0+128),w
  1530     1762  1283               	bcf	3,5	;RP0=0, select bank0
  1531     1763  1303               	bcf	3,6	;RP1=0, select bank0
  1532     1764  00B1               	movwf	?_sprintf+3
  1533     1765  1683               	bsf	3,5	;RP0=1, select bank1
  1534     1766  1303               	bcf	3,6	;RP1=0, select bank1
  1535     1767  084B               	movf	(??_main+3)^(0+128),w
  1536     1768  1283               	bcf	3,5	;RP0=0, select bank0
  1537     1769  1303               	bcf	3,6	;RP1=0, select bank0
  1538     176A  00B2               	movwf	?_sprintf+4
  1539     176B  1683               	bsf	3,5	;RP0=1, select bank1
  1540     176C  1303               	bcf	3,6	;RP1=0, select bank1
  1541     176D  085B               	movf	_segundos^(0+128),w
  1542     176E  00CC               	movwf	(??_main+4)^(0+128)
  1543     176F  01CD               	clrf	((??_main+4)^(0+128)+1)
  1544     1770  084C               	movf	(??_main+4)^(0+128),w
  1545     1771  1283               	bcf	3,5	;RP0=0, select bank0
  1546     1772  1303               	bcf	3,6	;RP1=0, select bank0
  1547     1773  00B3               	movwf	?_sprintf+5
  1548     1774  1683               	bsf	3,5	;RP0=1, select bank1
  1549     1775  1303               	bcf	3,6	;RP1=0, select bank1
  1550     1776  084D               	movf	(??_main+5)^(0+128),w
  1551     1777  1283               	bcf	3,5	;RP0=0, select bank0
  1552     1778  1303               	bcf	3,6	;RP1=0, select bank0
  1553     1779  00B4               	movwf	?_sprintf+6
  1554     177A  30C0               	movlw	(low (_buffer| (0+256)))& (0+255)
  1555     177B  120A  158A  201B  160A  118A  	fcall	_sprintf
  1556     1780                     l3725:
  1557                           
  1558                           ;main_master.c: 89:             Lcd_Write_String(buffer);
  1559     1780  30C0               	movlw	(low (_buffer| (0+256)))& (0+255)
  1560     1781  1283               	bcf	3,5	;RP0=0, select bank0
  1561     1782  1303               	bcf	3,6	;RP1=0, select bank0
  1562     1783  00A5               	movwf	Lcd_Write_String@a
  1563     1784  3001               	movlw	1
  1564     1785  00A6               	movwf	Lcd_Write_String@a+1
  1565     1786  160A  118A  20CE  160A  118A  	fcall	_Lcd_Write_String
  1566     178B                     l3727:
  1567                           
  1568                           ;main_master.c: 91:             Lcd_Set_Cursor(2,1);
  1569     178B  1283               	bcf	3,5	;RP0=0, select bank0
  1570     178C  1303               	bcf	3,6	;RP1=0, select bank0
  1571     178D  01A4               	clrf	Lcd_Set_Cursor@b
  1572     178E  0AA4               	incf	Lcd_Set_Cursor@b,f
  1573     178F  3002               	movlw	2
  1574     1790  160A  118A  215A  160A  118A  	fcall	_Lcd_Set_Cursor
  1575                           
  1576                           ;main_master.c: 92:             sprintf(buffer, "%02u", cont);
  1577     1795  3015               	movlw	(low (((STR_2+10)-__stringbase)| (0+32768)))& (0+255)
  1578     1796  1283               	bcf	3,5	;RP0=0, select bank0
  1579     1797  1303               	bcf	3,6	;RP1=0, select bank0
  1580     1798  00AE               	movwf	sprintf@f
  1581     1799  1683               	bsf	3,5	;RP0=1, select bank1
  1582     179A  1303               	bcf	3,6	;RP1=0, select bank1
  1583     179B  0857               	movf	_cont^(0+128),w
  1584     179C  00C8               	movwf	??_main^(0+128)
  1585     179D  01C9               	clrf	(??_main^(0+128)+1)
  1586     179E  0848               	movf	??_main^(0+128),w
  1587     179F  1283               	bcf	3,5	;RP0=0, select bank0
  1588     17A0  1303               	bcf	3,6	;RP1=0, select bank0
  1589     17A1  00AF               	movwf	?_sprintf+1
  1590     17A2  1683               	bsf	3,5	;RP0=1, select bank1
  1591     17A3  1303               	bcf	3,6	;RP1=0, select bank1
  1592     17A4  0849               	movf	(??_main+1)^(0+128),w
  1593     17A5  1283               	bcf	3,5	;RP0=0, select bank0
  1594     17A6  1303               	bcf	3,6	;RP1=0, select bank0
  1595     17A7  00B0               	movwf	?_sprintf+2
  1596     17A8  30C0               	movlw	(low (_buffer| (0+256)))& (0+255)
  1597     17A9  120A  158A  201B  160A  118A  	fcall	_sprintf
  1598                           
  1599                           ;main_master.c: 93:             Lcd_Write_String(buffer);
  1600     17AE  30C0               	movlw	(low (_buffer| (0+256)))& (0+255)
  1601     17AF  1283               	bcf	3,5	;RP0=0, select bank0
  1602     17B0  1303               	bcf	3,6	;RP1=0, select bank0
  1603     17B1  00A5               	movwf	Lcd_Write_String@a
  1604     17B2  3001               	movlw	1
  1605     17B3  00A6               	movwf	Lcd_Write_String@a+1
  1606     17B4  160A  118A  20CE  160A  118A  	fcall	_Lcd_Write_String
  1607                           
  1608                           ;main_master.c: 94:         }
  1609     17B9  2EDD               	goto	l3699
  1610     17BA                     l3729:
  1611     17BA  0358               	decf	_pantalla^(0+128),w
  1612     17BB  1D03               	btfss	3,2
  1613     17BC  2FBE               	goto	u4671
  1614     17BD  2FBF               	goto	u4670
  1615     17BE                     u4671:
  1616     17BE  2EDD               	goto	l3699
  1617     17BF                     u4670:
  1618     17BF                     l3731:
  1619                           
  1620                           ;main_master.c: 97:             Lcd_Set_Cursor(1,10);
  1621     17BF  300A               	movlw	10
  1622     17C0  1283               	bcf	3,5	;RP0=0, select bank0
  1623     17C1  1303               	bcf	3,6	;RP1=0, select bank0
  1624     17C2  00A4               	movwf	Lcd_Set_Cursor@b
  1625     17C3  3001               	movlw	1
  1626     17C4  160A  118A  215A  160A  118A  	fcall	_Lcd_Set_Cursor
  1627     17C9                     l3733:
  1628                           
  1629                           ;main_master.c: 98:             Lcd_Write_String("T:");
  1630     17C9  301A               	movlw	(low ((STR_1-__stringbase)| (0+32768)))& (0+255)
  1631     17CA  1283               	bcf	3,5	;RP0=0, select bank0
  1632     17CB  1303               	bcf	3,6	;RP1=0, select bank0
  1633     17CC  00A5               	movwf	Lcd_Write_String@a
  1634     17CD  3080               	movlw	128
  1635     17CE  00A6               	movwf	Lcd_Write_String@a+1
  1636     17CF  160A  118A  20CE  160A  118A  	fcall	_Lcd_Write_String
  1637     17D4                     l3735:
  1638                           
  1639                           ;main_master.c: 100:             floattostr(distancia, buffer3, 2);
  1640     17D4  1683               	bsf	3,5	;RP0=1, select bank1
  1641     17D5  1303               	bcf	3,6	;RP1=0, select bank1
  1642     17D6  0855               	movf	(_distancia+3)^(0+128),w
  1643     17D7  00A3               	movwf	(floattostr@numero_+3)^(0+128)
  1644     17D8  0854               	movf	(_distancia+2)^(0+128),w
  1645     17D9  00A2               	movwf	(floattostr@numero_+2)^(0+128)
  1646     17DA  0853               	movf	(_distancia+1)^(0+128),w
  1647     17DB  00A1               	movwf	(floattostr@numero_+1)^(0+128)
  1648     17DC  0852               	movf	_distancia^(0+128),w
  1649     17DD  00A0               	movwf	floattostr@numero_^(0+128)
  1650     17DE  3010               	movlw	(low (_buffer3| (0+256)))& (0+255)
  1651     17DF  00A4               	movwf	floattostr@cadena_^(0+128)
  1652     17E0  3002               	movlw	2
  1653     17E1  00A5               	movwf	floattostr@decimales_^(0+128)
  1654     17E2  120A  118A  2030  160A  118A  	fcall	_floattostr
  1655                           
  1656                           ;main_master.c: 101:             Lcd_Set_Cursor(1,1);
  1657     17E7  1283               	bcf	3,5	;RP0=0, select bank0
  1658     17E8  1303               	bcf	3,6	;RP1=0, select bank0
  1659     17E9  01A4               	clrf	Lcd_Set_Cursor@b
  1660     17EA  0AA4               	incf	Lcd_Set_Cursor@b,f
  1661     17EB  3001               	movlw	1
  1662     17EC  160A  118A  215A  160A  118A  	fcall	_Lcd_Set_Cursor
  1663     17F1                     l3737:
  1664                           
  1665                           ;main_master.c: 102:             Lcd_Write_String(buffer3);
  1666     17F1  3010               	movlw	(low (_buffer3| (0+256)))& (0+255)
  1667     17F2  1283               	bcf	3,5	;RP0=0, select bank0
  1668     17F3  1303               	bcf	3,6	;RP1=0, select bank0
  1669     17F4  00A5               	movwf	Lcd_Write_String@a
  1670     17F5  3001               	movlw	1
  1671     17F6  00A6               	movwf	Lcd_Write_String@a+1
  1672     17F7  160A  118A  20CE  160A  118A  	fcall	_Lcd_Write_String
  1673     17FC  2EDD               	goto	l3699
  1674     17FD  120A  118A  280C   	ljmp	start
  1675     1800                     __end_of_main:
  1676                           
  1677                           	psect	text1
  1678     081B                     __ptext1:	
  1679 ;; *************** function _sprintf *****************
  1680 ;; Defined at:
  1681 ;;		line 505 in file "C:\Program Files\Microchip\xc8\v2.40\pic\sources\c90\common\doprnt.c"
  1682 ;; Parameters:    Size  Location     Type
  1683 ;;  sp              1    wreg     PTR unsigned char 
  1684 ;;		 -> buffer(30), 
  1685 ;;  f               1   14[BANK0 ] PTR const unsigned char 
  1686 ;;		 -> STR_3(5), STR_2(15), 
  1687 ;; Auto vars:     Size  Location     Type
  1688 ;;  sp              1   29[BANK0 ] PTR unsigned char 
  1689 ;;		 -> buffer(30), 
  1690 ;;  tmpval          4    0        struct .
  1691 ;;  width           2   30[BANK0 ] int 
  1692 ;;  val             2   26[BANK0 ] unsigned int 
  1693 ;;  cp              2    0        PTR const unsigned char 
  1694 ;;  len             2    0        unsigned int 
  1695 ;;  c               1   32[BANK0 ] unsigned char 
  1696 ;;  prec            1   28[BANK0 ] char 
  1697 ;;  flag            1   25[BANK0 ] unsigned char 
  1698 ;;  ap              1   24[BANK0 ] PTR void [1]
  1699 ;;		 -> ?_sprintf(2), 
  1700 ;; Return value:  Size  Location     Type
  1701 ;;                  2   14[BANK0 ] int 
  1702 ;; Registers used:
  1703 ;;		wreg, fsr0l, fsr0h, status,2, status,0, btemp+1, pclath, cstack
  1704 ;; Tracked objects:
  1705 ;;		On entry : 0/0
  1706 ;;		On exit  : 0/0
  1707 ;;		Unchanged: 0/0
  1708 ;; Data sizes:     COMMON   BANK0   BANK1   BANK3   BANK2
  1709 ;;      Params:         0       7       0       0       0
  1710 ;;      Locals:         0       9       0       0       0
  1711 ;;      Temps:          0       3       0       0       0
  1712 ;;      Totals:         0      19       0       0       0
  1713 ;;Total ram usage:       19 bytes
  1714 ;; Hardware stack levels used: 1
  1715 ;; Hardware stack levels required when called: 5
  1716 ;; This function calls:
  1717 ;;		___lwdiv
  1718 ;;		___lwmod
  1719 ;;		___wmul
  1720 ;;		_isdigit
  1721 ;; This function is called by:
  1722 ;;		_main
  1723 ;; This function uses a non-reentrant model
  1724 ;;
  1725                           
  1726     081B                     _sprintf:	
  1727                           ;psect for function _sprintf
  1728                           
  1729                           
  1730                           ;incstack = 0
  1731                           ; Regs used in _sprintf: [wreg-fsr0h+status,2+status,0+btemp+1+pclath+cstack]
  1732                           ;sprintf@sp stored from wreg
  1733     081B  1283               	bcf	3,5	;RP0=0, select bank0
  1734     081C  1303               	bcf	3,6	;RP1=0, select bank0
  1735     081D  00BD               	movwf	sprintf@sp
  1736     081E                     l3583:
  1737                           
  1738                           ;C:\Program Files\Microchip\xc8\v2.40\pic\sources\c90\common\doprnt.c: 505: sprintf(char
      +                           * sp, const char * f, ...);C:\Program Files\Microchip\xc8\v2.40\pic\sources\c90\common\
      +                          doprnt.c: 506: {;C:\Program Files\Microchip\xc8\v2.40\pic\sources\c90\common\doprnt.c: 5
      +                          07:  va_list ap;;C:\Program Files\Microchip\xc8\v2.40\pic\sources\c90\common\doprnt.c: 5
      +                          12:  char c;;C:\Program Files\Microchip\xc8\v2.40\pic\sources\c90\common\doprnt.c: 514: 
      +                           int width;;C:\Program Files\Microchip\xc8\v2.40\pic\sources\c90\common\doprnt.c: 521:  
      +                          signed char prec;
  1739     081E  302F               	movlw	(low ((?_sprintf| 0+1)))& (0+255)
  1740     081F  00B8               	movwf	sprintf@ap
  1741                           
  1742                           ;C:\Program Files\Microchip\xc8\v2.40\pic\sources\c90\common\doprnt.c: 553:  while((c = 
      +                          *f++)) {
  1743     0820  298C               	goto	l3667
  1744     0821                     l3585:
  1745                           
  1746                           ;C:\Program Files\Microchip\xc8\v2.40\pic\sources\c90\common\doprnt.c: 555:   if(c != '%
      +                          ')
  1747     0821  3025               	movlw	37
  1748     0822  0640               	xorwf	sprintf@c,w
  1749     0823  1903               	btfsc	3,2
  1750     0824  2826               	goto	u4531
  1751     0825  2827               	goto	u4530
  1752     0826                     u4531:
  1753     0826  2831               	goto	l3591
  1754     0827                     u4530:
  1755     0827                     l3587:
  1756                           
  1757                           ;C:\Program Files\Microchip\xc8\v2.40\pic\sources\c90\common\doprnt.c: 557:   {;C:\Progr
      +                          am Files\Microchip\xc8\v2.40\pic\sources\c90\common\doprnt.c: 558:    ((*sp++ = (c)));
  1758     0827  083D               	movf	sprintf@sp,w
  1759     0828  0084               	movwf	4
  1760     0829  0840               	movf	sprintf@c,w
  1761     082A  1783               	bsf	3,7	;select IRP bank2
  1762     082B  0080               	movwf	0
  1763     082C                     l3589:
  1764     082C  3001               	movlw	1
  1765     082D  00B5               	movwf	??_sprintf
  1766     082E  0835               	movf	??_sprintf,w
  1767     082F  07BD               	addwf	sprintf@sp,f
  1768                           
  1769                           ;C:\Program Files\Microchip\xc8\v2.40\pic\sources\c90\common\doprnt.c: 559:    continue;
  1770     0830  298C               	goto	l3667
  1771     0831                     l3591:
  1772                           
  1773                           ;C:\Program Files\Microchip\xc8\v2.40\pic\sources\c90\common\doprnt.c: 563:   width = 0;
  1774     0831  01BE               	clrf	sprintf@width
  1775     0832  01BF               	clrf	sprintf@width+1
  1776                           
  1777                           ;C:\Program Files\Microchip\xc8\v2.40\pic\sources\c90\common\doprnt.c: 565:   flag = 0;
  1778     0833  01B9               	clrf	sprintf@flag
  1779     0834  283A               	goto	l3597
  1780     0835                     l434:	
  1781                           ;C:\Program Files\Microchip\xc8\v2.40\pic\sources\c90\common\doprnt.c: 596:    case '0':
  1782                           
  1783                           
  1784                           ;C:\Program Files\Microchip\xc8\v2.40\pic\sources\c90\common\doprnt.c: 597:     flag |= 
      +                          0x04;
  1785     0835  1539               	bsf	sprintf@flag,2
  1786     0836                     l3593:
  1787                           
  1788                           ;C:\Program Files\Microchip\xc8\v2.40\pic\sources\c90\common\doprnt.c: 598:     f++;
  1789     0836  3001               	movlw	1
  1790     0837  00B5               	movwf	??_sprintf
  1791     0838  0835               	movf	??_sprintf,w
  1792     0839  07AE               	addwf	sprintf@f,f
  1793     083A                     l3597:	
  1794                           ;C:\Program Files\Microchip\xc8\v2.40\pic\sources\c90\common\doprnt.c: 599:     continue
      +                          ;
  1795                           
  1796     083A  082E               	movf	sprintf@f,w
  1797     083B  0084               	movwf	4
  1798     083C  160A  158A  200A  120A  158A  	fcall	stringdir
  1799     0841  00B5               	movwf	??_sprintf
  1800     0842  01B6               	clrf	??_sprintf+1
  1801                           
  1802                           ; Switch on 2 bytes has been partitioned into a top level switch of size 1, and 1 sub-sw
      +                          itches
  1803                           ; Switch size 1, requested type "simple"
  1804                           ; Number of cases is 1, Range of values is 0 to 0
  1805                           ; switch strategies available:
  1806                           ; Name         Instructions Cycles
  1807                           ; simple_byte            4     3 (average)
  1808                           ; direct_byte           11     8 (fixed)
  1809                           ; jumptable            260     6 (fixed)
  1810                           ;	Chosen strategy is simple_byte
  1811     0843  0836               	movf	??_sprintf+1,w
  1812     0844  3A00               	xorlw	0	; case 0
  1813     0845  1903               	skipnz
  1814     0846  2848               	goto	l3841
  1815     0847  284D               	goto	l3599
  1816     0848                     l3841:
  1817                           
  1818                           ; Switch size 1, requested type "simple"
  1819                           ; Number of cases is 1, Range of values is 48 to 48
  1820                           ; switch strategies available:
  1821                           ; Name         Instructions Cycles
  1822                           ; simple_byte            4     3 (average)
  1823                           ; direct_byte           14    11 (fixed)
  1824                           ; jumptable            263     9 (fixed)
  1825                           ;	Chosen strategy is simple_byte
  1826     0848  0835               	movf	??_sprintf,w
  1827     0849  3A30               	xorlw	48	; case 48
  1828     084A  1903               	skipnz
  1829     084B  2835               	goto	l434
  1830     084C  284D               	goto	l3599
  1831     084D                     l3599:
  1832                           
  1833                           ;C:\Program Files\Microchip\xc8\v2.40\pic\sources\c90\common\doprnt.c: 614:   if(isdigit
      +                          ((unsigned)*f)) {
  1834     084D  082E               	movf	sprintf@f,w
  1835     084E  0084               	movwf	4
  1836     084F  160A  158A  200A  120A  158A  	fcall	stringdir
  1837     0854  160A  158A  2582  120A  158A  	fcall	_isdigit
  1838     0859  1C03               	btfss	3,0
  1839     085A  285C               	goto	u4541
  1840     085B  285D               	goto	u4540
  1841     085C                     u4541:
  1842     085C  28A3               	goto	l3615
  1843     085D                     u4540:
  1844     085D                     l3601:
  1845                           
  1846                           ;C:\Program Files\Microchip\xc8\v2.40\pic\sources\c90\common\doprnt.c: 615:    width = 0
      +                          ;
  1847     085D  1283               	bcf	3,5	;RP0=0, select bank0
  1848     085E  1303               	bcf	3,6	;RP1=0, select bank0
  1849     085F  01BE               	clrf	sprintf@width
  1850     0860  01BF               	clrf	sprintf@width+1
  1851     0861                     l3603:
  1852                           
  1853                           ;C:\Program Files\Microchip\xc8\v2.40\pic\sources\c90\common\doprnt.c: 617:     width *=
      +                           10;
  1854     0861  300A               	movlw	10
  1855     0862  1283               	bcf	3,5	;RP0=0, select bank0
  1856     0863  1303               	bcf	3,6	;RP1=0, select bank0
  1857     0864  00A0               	movwf	___wmul@multiplier
  1858     0865  3000               	movlw	0
  1859     0866  00A1               	movwf	___wmul@multiplier+1
  1860     0867  083F               	movf	sprintf@width+1,w
  1861     0868  00A3               	movwf	___wmul@multiplicand+1
  1862     0869  083E               	movf	sprintf@width,w
  1863     086A  00A2               	movwf	___wmul@multiplicand
  1864     086B  160A  158A  2667  120A  158A  	fcall	___wmul
  1865     0870  1283               	bcf	3,5	;RP0=0, select bank0
  1866     0871  1303               	bcf	3,6	;RP1=0, select bank0
  1867     0872  0821               	movf	?___wmul+1,w
  1868     0873  00BF               	movwf	sprintf@width+1
  1869     0874  0820               	movf	?___wmul,w
  1870     0875  00BE               	movwf	sprintf@width
  1871     0876                     l3605:
  1872                           
  1873                           ;C:\Program Files\Microchip\xc8\v2.40\pic\sources\c90\common\doprnt.c: 618:        width
      +                           += *f++ - '0';
  1874     0876  082E               	movf	sprintf@f,w
  1875     0877  0084               	movwf	4
  1876     0878  160A  158A  200A  120A  158A  	fcall	stringdir
  1877     087D  3ED0               	addlw	208
  1878     087E  00B5               	movwf	??_sprintf
  1879     087F  30FF               	movlw	255
  1880     0880  1803               	skipnc
  1881     0881  3000               	movlw	0
  1882     0882  00B6               	movwf	??_sprintf+1
  1883     0883  0835               	movf	??_sprintf,w
  1884     0884  07BE               	addwf	sprintf@width,f
  1885     0885  1803               	skipnc
  1886     0886  0ABF               	incf	sprintf@width+1,f
  1887     0887  0836               	movf	??_sprintf+1,w
  1888     0888  07BF               	addwf	sprintf@width+1,f
  1889     0889                     l3607:
  1890     0889  3001               	movlw	1
  1891     088A  00B5               	movwf	??_sprintf
  1892     088B  0835               	movf	??_sprintf,w
  1893     088C  07AE               	addwf	sprintf@f,f
  1894     088D                     l3609:
  1895                           
  1896                           ;C:\Program Files\Microchip\xc8\v2.40\pic\sources\c90\common\doprnt.c: 619:    } while(i
      +                          sdigit((unsigned)*f));
  1897     088D  082E               	movf	sprintf@f,w
  1898     088E  0084               	movwf	4
  1899     088F  160A  158A  200A  120A  158A  	fcall	stringdir
  1900     0894  160A  158A  2582  120A  158A  	fcall	_isdigit
  1901     0899  1803               	btfsc	3,0
  1902     089A  289C               	goto	u4551
  1903     089B  289D               	goto	u4550
  1904     089C                     u4551:
  1905     089C  2861               	goto	l3603
  1906     089D                     u4550:
  1907     089D  28A3               	goto	l3615
  1908     089E                     l3611:
  1909                           
  1910                           ;C:\Program Files\Microchip\xc8\v2.40\pic\sources\c90\common\doprnt.c: 844:    flag |= 0
      +                          xC0;
  1911     089E  30C0               	movlw	192
  1912     089F  00B5               	movwf	??_sprintf
  1913     08A0  0835               	movf	??_sprintf,w
  1914     08A1  04B9               	iorwf	sprintf@flag,f
  1915                           
  1916                           ;C:\Program Files\Microchip\xc8\v2.40\pic\sources\c90\common\doprnt.c: 845:    break;
  1917     08A2  28BF               	goto	l3617
  1918     08A3                     l3615:
  1919     08A3  3001               	movlw	1
  1920     08A4  1283               	bcf	3,5	;RP0=0, select bank0
  1921     08A5  1303               	bcf	3,6	;RP1=0, select bank0
  1922     08A6  07AE               	addwf	sprintf@f,f
  1923     08A7  30FF               	movlw	-1
  1924     08A8  072E               	addwf	sprintf@f,w
  1925     08A9  0084               	movwf	4
  1926     08AA  160A  158A  200A  120A  158A  	fcall	stringdir
  1927     08AF  00C0               	movwf	sprintf@c
  1928     08B0  00B5               	movwf	??_sprintf
  1929     08B1  01B6               	clrf	??_sprintf+1
  1930                           
  1931                           ; Switch on 2 bytes has been partitioned into a top level switch of size 1, and 1 sub-sw
      +                          itches
  1932                           ; Switch size 1, requested type "simple"
  1933                           ; Number of cases is 1, Range of values is 0 to 0
  1934                           ; switch strategies available:
  1935                           ; Name         Instructions Cycles
  1936                           ; simple_byte            4     3 (average)
  1937                           ; direct_byte           11     8 (fixed)
  1938                           ; jumptable            260     6 (fixed)
  1939                           ;	Chosen strategy is simple_byte
  1940     08B2  0836               	movf	??_sprintf+1,w
  1941     08B3  3A00               	xorlw	0	; case 0
  1942     08B4  1903               	skipnz
  1943     08B5  28B7               	goto	l3843
  1944     08B6  298C               	goto	l3667
  1945     08B7                     l3843:
  1946                           
  1947                           ; Switch size 1, requested type "simple"
  1948                           ; Number of cases is 2, Range of values is 0 to 117
  1949                           ; switch strategies available:
  1950                           ; Name         Instructions Cycles
  1951                           ; simple_byte            7     4 (average)
  1952                           ; jumptable            260     6 (fixed)
  1953                           ;	Chosen strategy is simple_byte
  1954     08B7  0835               	movf	??_sprintf,w
  1955     08B8  3A00               	xorlw	0	; case 0
  1956     08B9  1903               	skipnz
  1957     08BA  299C               	goto	l3669
  1958     08BB  3A75               	xorlw	117	; case 117
  1959     08BC  1903               	skipnz
  1960     08BD  289E               	goto	l3611
  1961     08BE  298C               	goto	l3667
  1962     08BF                     l3617:
  1963                           
  1964                           ;C:\Program Files\Microchip\xc8\v2.40\pic\sources\c90\common\doprnt.c: 1299:   {;C:\Prog
      +                          ram Files\Microchip\xc8\v2.40\pic\sources\c90\common\doprnt.c: 1312:     val = (*(unsign
      +                          ed *)__va_arg((*(unsigned **)ap), (unsigned)0));
  1965     08BF  0838               	movf	sprintf@ap,w
  1966     08C0  0084               	movwf	4
  1967     08C1  1383               	bcf	3,7	;select IRP bank0
  1968     08C2  0800               	movf	0,w
  1969     08C3  00BA               	movwf	sprintf@val
  1970     08C4  0A84               	incf	4,f
  1971     08C5  0800               	movf	0,w
  1972     08C6  00BB               	movwf	sprintf@val+1
  1973     08C7                     l3619:
  1974     08C7  3002               	movlw	2
  1975     08C8  00B5               	movwf	??_sprintf
  1976     08C9  0835               	movf	??_sprintf,w
  1977     08CA  07B8               	addwf	sprintf@ap,f
  1978     08CB                     l3621:
  1979                           
  1980                           ;C:\Program Files\Microchip\xc8\v2.40\pic\sources\c90\common\doprnt.c: 1313:   };C:\Prog
      +                          ram Files\Microchip\xc8\v2.40\pic\sources\c90\common\doprnt.c: 1331:    for(c = 1 ; c !=
      +                           sizeof dpowers/sizeof dpowers[0] ; c++)
  1981     08CB  01C0               	clrf	sprintf@c
  1982     08CC  0AC0               	incf	sprintf@c,f
  1983     08CD                     l3627:
  1984                           
  1985                           ;C:\Program Files\Microchip\xc8\v2.40\pic\sources\c90\common\doprnt.c: 1332:     if(val 
      +                          < dpowers[c])
  1986     08CD  0840               	movf	sprintf@c,w
  1987     08CE  00B5               	movwf	??_sprintf
  1988     08CF  0735               	addwf	??_sprintf,w
  1989     08D0  3E01               	addlw	low ((_dpowers-__stringbase)| (0+32768))
  1990     08D1  0084               	movwf	4
  1991     08D2  160A  158A  200A  120A  158A  	fcall	stringdir
  1992     08D7  00B6               	movwf	??_sprintf+1
  1993     08D8  160A  158A  200A  120A  158A  	fcall	stringdir
  1994     08DD  00B7               	movwf	??_sprintf+2
  1995     08DE  0837               	movf	??_sprintf+2,w
  1996     08DF  023B               	subwf	sprintf@val+1,w
  1997     08E0  1D03               	skipz
  1998     08E1  28E4               	goto	u4565
  1999     08E2  0836               	movf	??_sprintf+1,w
  2000     08E3  023A               	subwf	sprintf@val,w
  2001     08E4                     u4565:
  2002     08E4  1803               	skipnc
  2003     08E5  28E7               	goto	u4561
  2004     08E6  28E8               	goto	u4560
  2005     08E7                     u4561:
  2006     08E7  28E9               	goto	l3631
  2007     08E8                     u4560:
  2008     08E8  28F3               	goto	l3633
  2009     08E9                     l3631:
  2010     08E9  3001               	movlw	1
  2011     08EA  00B5               	movwf	??_sprintf
  2012     08EB  0835               	movf	??_sprintf,w
  2013     08EC  07C0               	addwf	sprintf@c,f
  2014     08ED  3005               	movlw	5
  2015     08EE  0640               	xorwf	sprintf@c,w
  2016     08EF  1D03               	btfss	3,2
  2017     08F0  28F2               	goto	u4571
  2018     08F1  28F3               	goto	u4570
  2019     08F2                     u4571:
  2020     08F2  28CD               	goto	l3627
  2021     08F3                     u4570:
  2022     08F3                     l3633:
  2023                           
  2024                           ;C:\Program Files\Microchip\xc8\v2.40\pic\sources\c90\common\doprnt.c: 1407:   if(width 
      +                          > c)
  2025     08F3  083F               	movf	sprintf@width+1,w
  2026     08F4  3A80               	xorlw	128
  2027     08F5  3C80               	sublw	128
  2028     08F6  1D03               	skipz
  2029     08F7  28FA               	goto	u4585
  2030     08F8  083E               	movf	sprintf@width,w
  2031     08F9  0240               	subwf	sprintf@c,w
  2032     08FA                     u4585:
  2033     08FA  1803               	skipnc
  2034     08FB  28FD               	goto	u4581
  2035     08FC  28FE               	goto	u4580
  2036     08FD                     u4581:
  2037     08FD  290A               	goto	l3637
  2038     08FE                     u4580:
  2039     08FE                     l3635:
  2040                           
  2041                           ;C:\Program Files\Microchip\xc8\v2.40\pic\sources\c90\common\doprnt.c: 1408:    width -=
      +                           c;
  2042     08FE  1283               	bcf	3,5	;RP0=0, select bank0
  2043     08FF  1303               	bcf	3,6	;RP1=0, select bank0
  2044     0900  0840               	movf	sprintf@c,w
  2045     0901  00B5               	movwf	??_sprintf
  2046     0902  01B6               	clrf	??_sprintf+1
  2047     0903  0835               	movf	??_sprintf,w
  2048     0904  02BE               	subwf	sprintf@width,f
  2049     0905  0836               	movf	??_sprintf+1,w
  2050     0906  1C03               	skipc
  2051     0907  03BF               	decf	sprintf@width+1,f
  2052     0908  02BF               	subwf	sprintf@width+1,f
  2053     0909  290E               	goto	l3639
  2054     090A                     l3637:
  2055                           
  2056                           ;C:\Program Files\Microchip\xc8\v2.40\pic\sources\c90\common\doprnt.c: 1410:    width = 
      +                          0;
  2057     090A  1283               	bcf	3,5	;RP0=0, select bank0
  2058     090B  1303               	bcf	3,6	;RP1=0, select bank0
  2059     090C  01BE               	clrf	sprintf@width
  2060     090D  01BF               	clrf	sprintf@width+1
  2061     090E                     l3639:
  2062                           
  2063                           ;C:\Program Files\Microchip\xc8\v2.40\pic\sources\c90\common\doprnt.c: 1413:   if(flag &
      +                           0x04) {
  2064     090E  1D39               	btfss	sprintf@flag,2
  2065     090F  2911               	goto	u4591
  2066     0910  2912               	goto	u4590
  2067     0911                     u4591:
  2068     0911  292E               	goto	l3649
  2069     0912                     u4590:
  2070     0912                     l3641:
  2071                           
  2072                           ;C:\Program Files\Microchip\xc8\v2.40\pic\sources\c90\common\doprnt.c: 1441:    if(width
      +                          )
  2073     0912  083E               	movf	sprintf@width,w
  2074     0913  043F               	iorwf	sprintf@width+1,w
  2075     0914  1903               	btfsc	3,2
  2076     0915  2917               	goto	u4601
  2077     0916  2918               	goto	u4600
  2078     0917                     u4601:
  2079     0917  2949               	goto	l3657
  2080     0918                     u4600:
  2081     0918                     l3643:
  2082                           
  2083                           ;C:\Program Files\Microchip\xc8\v2.40\pic\sources\c90\common\doprnt.c: 1443:      ((*sp+
      +                          + = ('0')));
  2084     0918  083D               	movf	sprintf@sp,w
  2085     0919  0084               	movwf	4
  2086     091A  3030               	movlw	48
  2087     091B  1783               	bsf	3,7	;select IRP bank2
  2088     091C  0080               	movwf	0
  2089     091D                     l3645:
  2090     091D  3001               	movlw	1
  2091     091E  00B5               	movwf	??_sprintf
  2092     091F  0835               	movf	??_sprintf,w
  2093     0920  07BD               	addwf	sprintf@sp,f
  2094     0921                     l3647:
  2095     0921  30FF               	movlw	255
  2096     0922  07BE               	addwf	sprintf@width,f
  2097     0923  1803               	skipnc
  2098     0924  0ABF               	incf	sprintf@width+1,f
  2099     0925  30FF               	movlw	255
  2100     0926  07BF               	addwf	sprintf@width+1,f
  2101     0927  083E               	movf	sprintf@width,w
  2102     0928  043F               	iorwf	sprintf@width+1,w
  2103     0929  1D03               	btfss	3,2
  2104     092A  292C               	goto	u4611
  2105     092B  292D               	goto	u4610
  2106     092C                     u4611:
  2107     092C  2918               	goto	l3643
  2108     092D                     u4610:
  2109     092D  2949               	goto	l3657
  2110     092E                     l3649:
  2111                           
  2112                           ;C:\Program Files\Microchip\xc8\v2.40\pic\sources\c90\common\doprnt.c: 1448:   {;C:\Prog
      +                          ram Files\Microchip\xc8\v2.40\pic\sources\c90\common\doprnt.c: 1450:    if(width
  2113     092E  083E               	movf	sprintf@width,w
  2114     092F  043F               	iorwf	sprintf@width+1,w
  2115     0930  1903               	btfsc	3,2
  2116     0931  2933               	goto	u4621
  2117     0932  2934               	goto	u4620
  2118     0933                     u4621:
  2119     0933  2949               	goto	l3657
  2120     0934                     u4620:
  2121     0934                     l3651:
  2122                           
  2123                           ;C:\Program Files\Microchip\xc8\v2.40\pic\sources\c90\common\doprnt.c: 1456:      ((*sp+
      +                          + = (' ')));
  2124     0934  083D               	movf	sprintf@sp,w
  2125     0935  0084               	movwf	4
  2126     0936  3020               	movlw	32
  2127     0937  1783               	bsf	3,7	;select IRP bank2
  2128     0938  0080               	movwf	0
  2129     0939                     l3653:
  2130     0939  3001               	movlw	1
  2131     093A  00B5               	movwf	??_sprintf
  2132     093B  0835               	movf	??_sprintf,w
  2133     093C  07BD               	addwf	sprintf@sp,f
  2134     093D                     l3655:
  2135     093D  30FF               	movlw	255
  2136     093E  07BE               	addwf	sprintf@width,f
  2137     093F  1803               	skipnc
  2138     0940  0ABF               	incf	sprintf@width+1,f
  2139     0941  30FF               	movlw	255
  2140     0942  07BF               	addwf	sprintf@width+1,f
  2141     0943  083E               	movf	sprintf@width,w
  2142     0944  043F               	iorwf	sprintf@width+1,w
  2143     0945  1D03               	btfss	3,2
  2144     0946  2948               	goto	u4631
  2145     0947  2949               	goto	u4630
  2146     0948                     u4631:
  2147     0948  2934               	goto	l3651
  2148     0949                     u4630:
  2149     0949                     l3657:
  2150                           
  2151                           ;C:\Program Files\Microchip\xc8\v2.40\pic\sources\c90\common\doprnt.c: 1498:   prec = c;
  2152     0949  0840               	movf	sprintf@c,w
  2153     094A  00BC               	movwf	sprintf@prec
  2154                           
  2155                           ;C:\Program Files\Microchip\xc8\v2.40\pic\sources\c90\common\doprnt.c: 1500:   while(pre
      +                          c--) {
  2156     094B  2983               	goto	l3665
  2157     094C                     l3659:
  2158                           
  2159                           ;C:\Program Files\Microchip\xc8\v2.40\pic\sources\c90\common\doprnt.c: 1504:    {;C:\Pro
      +                          gram Files\Microchip\xc8\v2.40\pic\sources\c90\common\doprnt.c: 1515:     c = (val / dpo
      +                          wers[(unsigned char)prec]) % 10 + '0';
  2160     094C  300A               	movlw	10
  2161     094D  00A8               	movwf	___lwmod@divisor
  2162     094E  3000               	movlw	0
  2163     094F  00A9               	movwf	___lwmod@divisor+1
  2164     0950  083C               	movf	sprintf@prec,w
  2165     0951  00B5               	movwf	??_sprintf
  2166     0952  0735               	addwf	??_sprintf,w
  2167     0953  3E01               	addlw	low ((_dpowers-__stringbase)| (0+32768))
  2168     0954  0084               	movwf	4
  2169     0955  160A  158A  200A  120A  158A  	fcall	stringdir
  2170     095A  00A0               	movwf	___lwdiv@divisor
  2171     095B  160A  158A  200A  120A  158A  	fcall	stringdir
  2172     0960  00A1               	movwf	___lwdiv@divisor+1
  2173     0961  083B               	movf	sprintf@val+1,w
  2174     0962  00A3               	movwf	___lwdiv@dividend+1
  2175     0963  083A               	movf	sprintf@val,w
  2176     0964  00A2               	movwf	___lwdiv@dividend
  2177     0965  160A  118A  2114  120A  158A  	fcall	___lwdiv
  2178     096A  1283               	bcf	3,5	;RP0=0, select bank0
  2179     096B  1303               	bcf	3,6	;RP1=0, select bank0
  2180     096C  0821               	movf	?___lwdiv+1,w
  2181     096D  00AB               	movwf	___lwmod@dividend+1
  2182     096E  0820               	movf	?___lwdiv,w
  2183     096F  00AA               	movwf	___lwmod@dividend
  2184     0970  160A  118A  2092  120A  158A  	fcall	___lwmod
  2185     0975  1283               	bcf	3,5	;RP0=0, select bank0
  2186     0976  1303               	bcf	3,6	;RP1=0, select bank0
  2187     0977  0828               	movf	?___lwmod,w
  2188     0978  3E30               	addlw	48
  2189     0979  00C0               	movwf	sprintf@c
  2190     097A                     l3661:
  2191                           
  2192                           ;C:\Program Files\Microchip\xc8\v2.40\pic\sources\c90\common\doprnt.c: 1549:    };C:\Pro
      +                          gram Files\Microchip\xc8\v2.40\pic\sources\c90\common\doprnt.c: 1550:    ((*sp++ = (c)))
      +                          ;
  2193     097A  083D               	movf	sprintf@sp,w
  2194     097B  0084               	movwf	4
  2195     097C  0840               	movf	sprintf@c,w
  2196     097D  1783               	bsf	3,7	;select IRP bank2
  2197     097E  0080               	movwf	0
  2198     097F                     l3663:
  2199     097F  3001               	movlw	1
  2200     0980  00B5               	movwf	??_sprintf
  2201     0981  0835               	movf	??_sprintf,w
  2202     0982  07BD               	addwf	sprintf@sp,f
  2203     0983                     l3665:
  2204                           
  2205                           ;C:\Program Files\Microchip\xc8\v2.40\pic\sources\c90\common\doprnt.c: 1500:   while(pre
      +                          c--) {
  2206     0983  30FF               	movlw	255
  2207     0984  00B5               	movwf	??_sprintf
  2208     0985  0835               	movf	??_sprintf,w
  2209     0986  07BC               	addwf	sprintf@prec,f
  2210     0987  0A3C               	incf	sprintf@prec,w
  2211     0988  1D03               	btfss	3,2
  2212     0989  298B               	goto	u4641
  2213     098A  298C               	goto	u4640
  2214     098B                     u4641:
  2215     098B  294C               	goto	l3659
  2216     098C                     u4640:
  2217     098C                     l3667:
  2218                           
  2219                           ;C:\Program Files\Microchip\xc8\v2.40\pic\sources\c90\common\doprnt.c: 553:  while((c = 
      +                          *f++)) {
  2220     098C  3001               	movlw	1
  2221     098D  07AE               	addwf	sprintf@f,f
  2222     098E  30FF               	movlw	-1
  2223     098F  072E               	addwf	sprintf@f,w
  2224     0990  0084               	movwf	4
  2225     0991  160A  158A  200A  120A  158A  	fcall	stringdir
  2226     0996  00C0               	movwf	sprintf@c
  2227     0997  0840               	movf	sprintf@c,w
  2228     0998  1D03               	btfss	3,2
  2229     0999  299B               	goto	u4651
  2230     099A  299C               	goto	u4650
  2231     099B                     u4651:
  2232     099B  2821               	goto	l3585
  2233     099C                     u4650:
  2234     099C                     l3669:
  2235                           
  2236                           ;C:\Program Files\Microchip\xc8\v2.40\pic\sources\c90\common\doprnt.c: 1564:  *sp = 0;
  2237     099C  083D               	movf	sprintf@sp,w
  2238     099D  0084               	movwf	4
  2239     099E  1783               	bsf	3,7	;select IRP bank2
  2240     099F  0180               	clrf	0
  2241     09A0                     l464:
  2242     09A0  0008               	return
  2243     09A1                     __end_of_sprintf:
  2244                           
  2245                           	psect	text2
  2246     1D82                     __ptext2:	
  2247 ;; *************** function _isdigit *****************
  2248 ;; Defined at:
  2249 ;;		line 8 in file "C:\Program Files\Microchip\xc8\v2.40\pic\sources\c90\common\isdigit.c"
  2250 ;; Parameters:    Size  Location     Type
  2251 ;;  c               1    wreg     unsigned char 
  2252 ;; Auto vars:     Size  Location     Type
  2253 ;;  c               1    1[BANK0 ] unsigned char 
  2254 ;; Return value:  Size  Location     Type
  2255 ;;		None               void
  2256 ;; Registers used:
  2257 ;;		wreg, status,2, status,0
  2258 ;; Tracked objects:
  2259 ;;		On entry : 0/0
  2260 ;;		On exit  : 0/0
  2261 ;;		Unchanged: 0/0
  2262 ;; Data sizes:     COMMON   BANK0   BANK1   BANK3   BANK2
  2263 ;;      Params:         0       0       0       0       0
  2264 ;;      Locals:         0       2       0       0       0
  2265 ;;      Temps:          0       0       0       0       0
  2266 ;;      Totals:         0       2       0       0       0
  2267 ;;Total ram usage:        2 bytes
  2268 ;; Hardware stack levels used: 1
  2269 ;; Hardware stack levels required when called: 4
  2270 ;; This function calls:
  2271 ;;		Nothing
  2272 ;; This function is called by:
  2273 ;;		_sprintf
  2274 ;; This function uses a non-reentrant model
  2275 ;;
  2276                           
  2277     1D82                     _isdigit:	
  2278                           ;psect for function _isdigit
  2279                           
  2280                           
  2281                           ;incstack = 0
  2282                           ; Regs used in _isdigit: [wreg+status,2+status,0]
  2283                           ;isdigit@c stored from wreg
  2284     1D82  1283               	bcf	3,5	;RP0=0, select bank0
  2285     1D83  1303               	bcf	3,6	;RP1=0, select bank0
  2286     1D84  00A1               	movwf	isdigit@c
  2287     1D85                     l3323:
  2288     1D85  01A0               	clrf	_isdigit$1066
  2289     1D86                     l3325:
  2290     1D86  303A               	movlw	58
  2291     1D87  0221               	subwf	isdigit@c,w
  2292     1D88  1803               	skipnc
  2293     1D89  2D8B               	goto	u4311
  2294     1D8A  2D8C               	goto	u4310
  2295     1D8B                     u4311:
  2296     1D8B  2D94               	goto	l3331
  2297     1D8C                     u4310:
  2298     1D8C                     l3327:
  2299     1D8C  3030               	movlw	48
  2300     1D8D  0221               	subwf	isdigit@c,w
  2301     1D8E  1C03               	skipc
  2302     1D8F  2D91               	goto	u4321
  2303     1D90  2D92               	goto	u4320
  2304     1D91                     u4321:
  2305     1D91  2D94               	goto	l3331
  2306     1D92                     u4320:
  2307     1D92                     l3329:
  2308     1D92  01A0               	clrf	_isdigit$1066
  2309     1D93  0AA0               	incf	_isdigit$1066,f
  2310     1D94                     l3331:
  2311     1D94  0C20               	rrf	_isdigit$1066,w
  2312     1D95                     l921:
  2313     1D95  0008               	return
  2314     1D96                     __end_of_isdigit:
  2315                           
  2316                           	psect	text3
  2317     1E67                     __ptext3:	
  2318 ;; *************** function ___wmul *****************
  2319 ;; Defined at:
  2320 ;;		line 15 in file "C:\Program Files\Microchip\xc8\v2.40\pic\sources\c90\common\Umul16.c"
  2321 ;; Parameters:    Size  Location     Type
  2322 ;;  multiplier      2    0[BANK0 ] unsigned int 
  2323 ;;  multiplicand    2    2[BANK0 ] unsigned int 
  2324 ;; Auto vars:     Size  Location     Type
  2325 ;;  product         2    4[BANK0 ] unsigned int 
  2326 ;; Return value:  Size  Location     Type
  2327 ;;                  2    0[BANK0 ] unsigned int 
  2328 ;; Registers used:
  2329 ;;		wreg, status,2, status,0
  2330 ;; Tracked objects:
  2331 ;;		On entry : 0/0
  2332 ;;		On exit  : 0/0
  2333 ;;		Unchanged: 0/0
  2334 ;; Data sizes:     COMMON   BANK0   BANK1   BANK3   BANK2
  2335 ;;      Params:         0       4       0       0       0
  2336 ;;      Locals:         0       2       0       0       0
  2337 ;;      Temps:          0       0       0       0       0
  2338 ;;      Totals:         0       6       0       0       0
  2339 ;;Total ram usage:        6 bytes
  2340 ;; Hardware stack levels used: 1
  2341 ;; Hardware stack levels required when called: 4
  2342 ;; This function calls:
  2343 ;;		Nothing
  2344 ;; This function is called by:
  2345 ;;		_sprintf
  2346 ;; This function uses a non-reentrant model
  2347 ;;
  2348                           
  2349     1E67                     ___wmul:	
  2350                           ;psect for function ___wmul
  2351                           
  2352     1E67                     l3335:	
  2353                           ;incstack = 0
  2354                           ; Regs used in ___wmul: [wreg+status,2+status,0]
  2355                           
  2356     1E67  1283               	bcf	3,5	;RP0=0, select bank0
  2357     1E68  1303               	bcf	3,6	;RP1=0, select bank0
  2358     1E69  01A4               	clrf	___wmul@product
  2359     1E6A  01A5               	clrf	___wmul@product+1
  2360     1E6B                     l3337:
  2361     1E6B  1C20               	btfss	___wmul@multiplier,0
  2362     1E6C  2E6E               	goto	u4331
  2363     1E6D  2E6F               	goto	u4330
  2364     1E6E                     u4331:
  2365     1E6E  2E75               	goto	l468
  2366     1E6F                     u4330:
  2367     1E6F                     l3339:
  2368     1E6F  0822               	movf	___wmul@multiplicand,w
  2369     1E70  07A4               	addwf	___wmul@product,f
  2370     1E71  1803               	skipnc
  2371     1E72  0AA5               	incf	___wmul@product+1,f
  2372     1E73  0823               	movf	___wmul@multiplicand+1,w
  2373     1E74  07A5               	addwf	___wmul@product+1,f
  2374     1E75                     l468:
  2375     1E75  3001               	movlw	1
  2376     1E76                     u4345:
  2377     1E76  1003               	clrc
  2378     1E77  0DA2               	rlf	___wmul@multiplicand,f
  2379     1E78  0DA3               	rlf	___wmul@multiplicand+1,f
  2380     1E79  3EFF               	addlw	-1
  2381     1E7A  1D03               	skipz
  2382     1E7B  2E76               	goto	u4345
  2383     1E7C                     l3341:
  2384     1E7C  3001               	movlw	1
  2385     1E7D                     u4355:
  2386     1E7D  1003               	clrc
  2387     1E7E  0CA1               	rrf	___wmul@multiplier+1,f
  2388     1E7F  0CA0               	rrf	___wmul@multiplier,f
  2389     1E80  3EFF               	addlw	-1
  2390     1E81  1D03               	skipz
  2391     1E82  2E7D               	goto	u4355
  2392     1E83                     l3343:
  2393     1E83  0820               	movf	___wmul@multiplier,w
  2394     1E84  0421               	iorwf	___wmul@multiplier+1,w
  2395     1E85  1D03               	btfss	3,2
  2396     1E86  2E88               	goto	u4361
  2397     1E87  2E89               	goto	u4360
  2398     1E88                     u4361:
  2399     1E88  2E6B               	goto	l3337
  2400     1E89                     u4360:
  2401     1E89                     l3345:
  2402     1E89  0825               	movf	___wmul@product+1,w
  2403     1E8A  00A1               	movwf	?___wmul+1
  2404     1E8B  0824               	movf	___wmul@product,w
  2405     1E8C  00A0               	movwf	?___wmul
  2406     1E8D                     l470:
  2407     1E8D  0008               	return
  2408     1E8E                     __end_of___wmul:
  2409                           
  2410                           	psect	text4
  2411     1092                     __ptext4:	
  2412 ;; *************** function ___lwmod *****************
  2413 ;; Defined at:
  2414 ;;		line 5 in file "C:\Program Files\Microchip\xc8\v2.40\pic\sources\c90\common\lwmod.c"
  2415 ;; Parameters:    Size  Location     Type
  2416 ;;  divisor         2    8[BANK0 ] unsigned int 
  2417 ;;  dividend        2   10[BANK0 ] unsigned int 
  2418 ;; Auto vars:     Size  Location     Type
  2419 ;;  counter         1   13[BANK0 ] unsigned char 
  2420 ;; Return value:  Size  Location     Type
  2421 ;;                  2    8[BANK0 ] unsigned int 
  2422 ;; Registers used:
  2423 ;;		wreg, status,2, status,0
  2424 ;; Tracked objects:
  2425 ;;		On entry : 0/0
  2426 ;;		On exit  : 0/0
  2427 ;;		Unchanged: 0/0
  2428 ;; Data sizes:     COMMON   BANK0   BANK1   BANK3   BANK2
  2429 ;;      Params:         0       4       0       0       0
  2430 ;;      Locals:         0       1       0       0       0
  2431 ;;      Temps:          0       1       0       0       0
  2432 ;;      Totals:         0       6       0       0       0
  2433 ;;Total ram usage:        6 bytes
  2434 ;; Hardware stack levels used: 1
  2435 ;; Hardware stack levels required when called: 4
  2436 ;; This function calls:
  2437 ;;		Nothing
  2438 ;; This function is called by:
  2439 ;;		_sprintf
  2440 ;; This function uses a non-reentrant model
  2441 ;;
  2442                           
  2443     1092                     ___lwmod:	
  2444                           ;psect for function ___lwmod
  2445                           
  2446     1092                     l3375:	
  2447                           ;incstack = 0
  2448                           ; Regs used in ___lwmod: [wreg+status,2+status,0]
  2449                           
  2450     1092  1283               	bcf	3,5	;RP0=0, select bank0
  2451     1093  1303               	bcf	3,6	;RP1=0, select bank0
  2452     1094  0828               	movf	___lwmod@divisor,w
  2453     1095  0429               	iorwf	___lwmod@divisor+1,w
  2454     1096  1903               	btfsc	3,2
  2455     1097  2899               	goto	u4441
  2456     1098  289A               	goto	u4440
  2457     1099                     u4441:
  2458     1099  28C9               	goto	l3393
  2459     109A                     u4440:
  2460     109A                     l3377:
  2461     109A  01AD               	clrf	___lwmod@counter
  2462     109B  0AAD               	incf	___lwmod@counter,f
  2463     109C  28A8               	goto	l3383
  2464     109D                     l3379:
  2465     109D  3001               	movlw	1
  2466     109E                     u4455:
  2467     109E  1003               	clrc
  2468     109F  0DA8               	rlf	___lwmod@divisor,f
  2469     10A0  0DA9               	rlf	___lwmod@divisor+1,f
  2470     10A1  3EFF               	addlw	-1
  2471     10A2  1D03               	skipz
  2472     10A3  289E               	goto	u4455
  2473     10A4                     l3381:
  2474     10A4  3001               	movlw	1
  2475     10A5  00AC               	movwf	??___lwmod
  2476     10A6  082C               	movf	??___lwmod,w
  2477     10A7  07AD               	addwf	___lwmod@counter,f
  2478     10A8                     l3383:
  2479     10A8  1FA9               	btfss	___lwmod@divisor+1,7
  2480     10A9  28AB               	goto	u4461
  2481     10AA  28AC               	goto	u4460
  2482     10AB                     u4461:
  2483     10AB  289D               	goto	l3379
  2484     10AC                     u4460:
  2485     10AC                     l3385:
  2486     10AC  0829               	movf	___lwmod@divisor+1,w
  2487     10AD  022B               	subwf	___lwmod@dividend+1,w
  2488     10AE  1D03               	skipz
  2489     10AF  28B2               	goto	u4475
  2490     10B0  0828               	movf	___lwmod@divisor,w
  2491     10B1  022A               	subwf	___lwmod@dividend,w
  2492     10B2                     u4475:
  2493     10B2  1C03               	skipc
  2494     10B3  28B5               	goto	u4471
  2495     10B4  28B6               	goto	u4470
  2496     10B5                     u4471:
  2497     10B5  28BC               	goto	l3389
  2498     10B6                     u4470:
  2499     10B6                     l3387:
  2500     10B6  0828               	movf	___lwmod@divisor,w
  2501     10B7  02AA               	subwf	___lwmod@dividend,f
  2502     10B8  0829               	movf	___lwmod@divisor+1,w
  2503     10B9  1C03               	skipc
  2504     10BA  03AB               	decf	___lwmod@dividend+1,f
  2505     10BB  02AB               	subwf	___lwmod@dividend+1,f
  2506     10BC                     l3389:
  2507     10BC  3001               	movlw	1
  2508     10BD                     u4485:
  2509     10BD  1003               	clrc
  2510     10BE  0CA9               	rrf	___lwmod@divisor+1,f
  2511     10BF  0CA8               	rrf	___lwmod@divisor,f
  2512     10C0  3EFF               	addlw	-1
  2513     10C1  1D03               	skipz
  2514     10C2  28BD               	goto	u4485
  2515     10C3                     l3391:
  2516     10C3  3001               	movlw	1
  2517     10C4  02AD               	subwf	___lwmod@counter,f
  2518     10C5  1D03               	btfss	3,2
  2519     10C6  28C8               	goto	u4491
  2520     10C7  28C9               	goto	u4490
  2521     10C8                     u4491:
  2522     10C8  28AC               	goto	l3385
  2523     10C9                     u4490:
  2524     10C9                     l3393:
  2525     10C9  082B               	movf	___lwmod@dividend+1,w
  2526     10CA  00A9               	movwf	?___lwmod+1
  2527     10CB  082A               	movf	___lwmod@dividend,w
  2528     10CC  00A8               	movwf	?___lwmod
  2529     10CD                     l750:
  2530     10CD  0008               	return
  2531     10CE                     __end_of___lwmod:
  2532                           
  2533                           	psect	text5
  2534     1114                     __ptext5:	
  2535 ;; *************** function ___lwdiv *****************
  2536 ;; Defined at:
  2537 ;;		line 5 in file "C:\Program Files\Microchip\xc8\v2.40\pic\sources\c90\common\lwdiv.c"
  2538 ;; Parameters:    Size  Location     Type
  2539 ;;  divisor         2    0[BANK0 ] unsigned int 
  2540 ;;  dividend        2    2[BANK0 ] unsigned int 
  2541 ;; Auto vars:     Size  Location     Type
  2542 ;;  quotient        2    5[BANK0 ] unsigned int 
  2543 ;;  counter         1    7[BANK0 ] unsigned char 
  2544 ;; Return value:  Size  Location     Type
  2545 ;;                  2    0[BANK0 ] unsigned int 
  2546 ;; Registers used:
  2547 ;;		wreg, status,2, status,0
  2548 ;; Tracked objects:
  2549 ;;		On entry : 0/0
  2550 ;;		On exit  : 0/0
  2551 ;;		Unchanged: 0/0
  2552 ;; Data sizes:     COMMON   BANK0   BANK1   BANK3   BANK2
  2553 ;;      Params:         0       4       0       0       0
  2554 ;;      Locals:         0       3       0       0       0
  2555 ;;      Temps:          0       1       0       0       0
  2556 ;;      Totals:         0       8       0       0       0
  2557 ;;Total ram usage:        8 bytes
  2558 ;; Hardware stack levels used: 1
  2559 ;; Hardware stack levels required when called: 4
  2560 ;; This function calls:
  2561 ;;		Nothing
  2562 ;; This function is called by:
  2563 ;;		_sprintf
  2564 ;; This function uses a non-reentrant model
  2565 ;;
  2566                           
  2567     1114                     ___lwdiv:	
  2568                           ;psect for function ___lwdiv
  2569                           
  2570     1114                     l3349:	
  2571                           ;incstack = 0
  2572                           ; Regs used in ___lwdiv: [wreg+status,2+status,0]
  2573                           
  2574     1114  1283               	bcf	3,5	;RP0=0, select bank0
  2575     1115  1303               	bcf	3,6	;RP1=0, select bank0
  2576     1116  01A5               	clrf	___lwdiv@quotient
  2577     1117  01A6               	clrf	___lwdiv@quotient+1
  2578     1118                     l3351:
  2579     1118  0820               	movf	___lwdiv@divisor,w
  2580     1119  0421               	iorwf	___lwdiv@divisor+1,w
  2581     111A  1903               	btfsc	3,2
  2582     111B  291D               	goto	u4371
  2583     111C  291E               	goto	u4370
  2584     111D                     u4371:
  2585     111D  2955               	goto	l3371
  2586     111E                     u4370:
  2587     111E                     l3353:
  2588     111E  01A7               	clrf	___lwdiv@counter
  2589     111F  0AA7               	incf	___lwdiv@counter,f
  2590     1120  292C               	goto	l3359
  2591     1121                     l3355:
  2592     1121  3001               	movlw	1
  2593     1122                     u4385:
  2594     1122  1003               	clrc
  2595     1123  0DA0               	rlf	___lwdiv@divisor,f
  2596     1124  0DA1               	rlf	___lwdiv@divisor+1,f
  2597     1125  3EFF               	addlw	-1
  2598     1126  1D03               	skipz
  2599     1127  2922               	goto	u4385
  2600     1128                     l3357:
  2601     1128  3001               	movlw	1
  2602     1129  00A4               	movwf	??___lwdiv
  2603     112A  0824               	movf	??___lwdiv,w
  2604     112B  07A7               	addwf	___lwdiv@counter,f
  2605     112C                     l3359:
  2606     112C  1FA1               	btfss	___lwdiv@divisor+1,7
  2607     112D  292F               	goto	u4391
  2608     112E  2930               	goto	u4390
  2609     112F                     u4391:
  2610     112F  2921               	goto	l3355
  2611     1130                     u4390:
  2612     1130                     l3361:
  2613     1130  3001               	movlw	1
  2614     1131                     u4405:
  2615     1131  1003               	clrc
  2616     1132  0DA5               	rlf	___lwdiv@quotient,f
  2617     1133  0DA6               	rlf	___lwdiv@quotient+1,f
  2618     1134  3EFF               	addlw	-1
  2619     1135  1D03               	skipz
  2620     1136  2931               	goto	u4405
  2621     1137  0821               	movf	___lwdiv@divisor+1,w
  2622     1138  0223               	subwf	___lwdiv@dividend+1,w
  2623     1139  1D03               	skipz
  2624     113A  293D               	goto	u4415
  2625     113B  0820               	movf	___lwdiv@divisor,w
  2626     113C  0222               	subwf	___lwdiv@dividend,w
  2627     113D                     u4415:
  2628     113D  1C03               	skipc
  2629     113E  2940               	goto	u4411
  2630     113F  2941               	goto	u4410
  2631     1140                     u4411:
  2632     1140  2948               	goto	l3367
  2633     1141                     u4410:
  2634     1141                     l3363:
  2635     1141  0820               	movf	___lwdiv@divisor,w
  2636     1142  02A2               	subwf	___lwdiv@dividend,f
  2637     1143  0821               	movf	___lwdiv@divisor+1,w
  2638     1144  1C03               	skipc
  2639     1145  03A3               	decf	___lwdiv@dividend+1,f
  2640     1146  02A3               	subwf	___lwdiv@dividend+1,f
  2641     1147                     l3365:
  2642     1147  1425               	bsf	___lwdiv@quotient,0
  2643     1148                     l3367:
  2644     1148  3001               	movlw	1
  2645     1149                     u4425:
  2646     1149  1003               	clrc
  2647     114A  0CA1               	rrf	___lwdiv@divisor+1,f
  2648     114B  0CA0               	rrf	___lwdiv@divisor,f
  2649     114C  3EFF               	addlw	-1
  2650     114D  1D03               	skipz
  2651     114E  2949               	goto	u4425
  2652     114F                     l3369:
  2653     114F  3001               	movlw	1
  2654     1150  02A7               	subwf	___lwdiv@counter,f
  2655     1151  1D03               	btfss	3,2
  2656     1152  2954               	goto	u4431
  2657     1153  2955               	goto	u4430
  2658     1154                     u4431:
  2659     1154  2930               	goto	l3361
  2660     1155                     u4430:
  2661     1155                     l3371:
  2662     1155  0826               	movf	___lwdiv@quotient+1,w
  2663     1156  00A1               	movwf	?___lwdiv+1
  2664     1157  0825               	movf	___lwdiv@quotient,w
  2665     1158  00A0               	movwf	?___lwdiv
  2666     1159                     l740:
  2667     1159  0008               	return
  2668     115A                     __end_of___lwdiv:
  2669                           
  2670                           	psect	text6
  2671     1EB7                     __ptext6:	
  2672 ;; *************** function _setup *****************
  2673 ;; Defined at:
  2674 ;;		line 143 in file "main_master.c"
  2675 ;; Parameters:    Size  Location     Type
  2676 ;;		None
  2677 ;; Auto vars:     Size  Location     Type
  2678 ;;		None
  2679 ;; Return value:  Size  Location     Type
  2680 ;;                  1    wreg      void 
  2681 ;; Registers used:
  2682 ;;		wreg, status,2, status,0, pclath, cstack
  2683 ;; Tracked objects:
  2684 ;;		On entry : 0/0
  2685 ;;		On exit  : 0/0
  2686 ;;		Unchanged: 0/0
  2687 ;; Data sizes:     COMMON   BANK0   BANK1   BANK3   BANK2
  2688 ;;      Params:         0       0       0       0       0
  2689 ;;      Locals:         0       0       0       0       0
  2690 ;;      Temps:          0       0       0       0       0
  2691 ;;      Totals:         0       0       0       0       0
  2692 ;;Total ram usage:        0 bytes
  2693 ;; Hardware stack levels used: 1
  2694 ;; Hardware stack levels required when called: 6
  2695 ;; This function calls:
  2696 ;;		_I2C_Master_Init
  2697 ;; This function is called by:
  2698 ;;		_main
  2699 ;; This function uses a non-reentrant model
  2700 ;;
  2701                           
  2702     1EB7                     _setup:	
  2703                           ;psect for function _setup
  2704                           
  2705     1EB7                     l3407:	
  2706                           ;incstack = 0
  2707                           ; Regs used in _setup: [wreg+status,2+status,0+pclath+cstack]
  2708                           
  2709                           
  2710                           ;main_master.c: 144:     ANSEL = 0;
  2711     1EB7  1683               	bsf	3,5	;RP0=1, select bank3
  2712     1EB8  1703               	bsf	3,6	;RP1=1, select bank3
  2713     1EB9  0188               	clrf	8	;volatile
  2714                           
  2715                           ;main_master.c: 145:     ANSELH = 0;
  2716     1EBA  0189               	clrf	9	;volatile
  2717     1EBB                     l3409:
  2718                           
  2719                           ;main_master.c: 147:     TRISB = 0b00001000;
  2720     1EBB  3008               	movlw	8
  2721     1EBC  1683               	bsf	3,5	;RP0=1, select bank1
  2722     1EBD  1303               	bcf	3,6	;RP1=0, select bank1
  2723     1EBE  0086               	movwf	6	;volatile
  2724     1EBF                     l3411:
  2725                           
  2726                           ;main_master.c: 148:     TRISD = 0;
  2727     1EBF  0188               	clrf	8	;volatile
  2728     1EC0                     l3413:
  2729                           
  2730                           ;main_master.c: 149:     TRISE = 0;
  2731     1EC0  0189               	clrf	9	;volatile
  2732     1EC1                     l3415:
  2733                           
  2734                           ;main_master.c: 151:     PORTA = 0;
  2735     1EC1  1283               	bcf	3,5	;RP0=0, select bank0
  2736     1EC2  1303               	bcf	3,6	;RP1=0, select bank0
  2737     1EC3  0185               	clrf	5	;volatile
  2738     1EC4                     l3417:
  2739                           
  2740                           ;main_master.c: 152:     PORTB = 0;
  2741     1EC4  0186               	clrf	6	;volatile
  2742     1EC5                     l3419:
  2743                           
  2744                           ;main_master.c: 153:     PORTC = 0;
  2745     1EC5  0187               	clrf	7	;volatile
  2746     1EC6                     l3421:
  2747                           
  2748                           ;main_master.c: 154:     PORTD = 0;
  2749     1EC6  0188               	clrf	8	;volatile
  2750     1EC7                     l3423:
  2751                           
  2752                           ;main_master.c: 155:     PORTE = 0;
  2753     1EC7  0189               	clrf	9	;volatile
  2754     1EC8                     l3425:
  2755                           
  2756                           ;main_master.c: 158:     OSCCONbits.IRCF2 = 1;
  2757     1EC8  1683               	bsf	3,5	;RP0=1, select bank1
  2758     1EC9  1303               	bcf	3,6	;RP1=0, select bank1
  2759     1ECA  170F               	bsf	15,6	;volatile
  2760     1ECB                     l3427:
  2761                           
  2762                           ;main_master.c: 159:     OSCCONbits.IRCF1 = 1;
  2763     1ECB  168F               	bsf	15,5	;volatile
  2764     1ECC                     l3429:
  2765                           
  2766                           ;main_master.c: 160:     OSCCONbits.IRCF0 = 1;
  2767     1ECC  160F               	bsf	15,4	;volatile
  2768     1ECD                     l3431:
  2769                           
  2770                           ;main_master.c: 161:     OSCCONbits.SCS = 1;
  2771     1ECD  140F               	bsf	15,0	;volatile
  2772     1ECE                     l3433:
  2773                           
  2774                           ;main_master.c: 163:     OPTION_REGbits.T0CS = 0;
  2775     1ECE  1281               	bcf	1,5	;volatile
  2776     1ECF                     l3435:
  2777                           
  2778                           ;main_master.c: 164:     OPTION_REGbits.PSA = 0;
  2779     1ECF  1181               	bcf	1,3	;volatile
  2780     1ED0                     l3437:
  2781                           
  2782                           ;main_master.c: 165:     OPTION_REGbits.PS2 = 1;
  2783     1ED0  1501               	bsf	1,2	;volatile
  2784     1ED1                     l3439:
  2785                           
  2786                           ;main_master.c: 166:     OPTION_REGbits.PS1 = 1;
  2787     1ED1  1481               	bsf	1,1	;volatile
  2788     1ED2                     l3441:
  2789                           
  2790                           ;main_master.c: 167:     OPTION_REGbits.PS0 = 1;
  2791     1ED2  1401               	bsf	1,0	;volatile
  2792     1ED3                     l3443:
  2793                           
  2794                           ;main_master.c: 169:     INTCONbits.GIE = 1;
  2795     1ED3  178B               	bsf	11,7	;volatile
  2796     1ED4                     l3445:
  2797                           
  2798                           ;main_master.c: 170:     INTCONbits.RBIF = 0;
  2799     1ED4  100B               	bcf	11,0	;volatile
  2800     1ED5                     l3447:
  2801                           
  2802                           ;main_master.c: 171:     INTCONbits.RBIE = 1;
  2803     1ED5  158B               	bsf	11,3	;volatile
  2804     1ED6                     l3449:
  2805                           
  2806                           ;main_master.c: 172:     INTCONbits.T0IF = 0;
  2807     1ED6  110B               	bcf	11,2	;volatile
  2808     1ED7                     l3451:
  2809                           
  2810                           ;main_master.c: 174:     OPTION_REGbits.nRBPU = 0;
  2811     1ED7  1381               	bcf	1,7	;volatile
  2812     1ED8                     l3453:
  2813                           
  2814                           ;main_master.c: 176:     IOCBbits.IOCB3 = 1;
  2815     1ED8  1596               	bsf	22,3	;volatile
  2816     1ED9                     l3455:
  2817                           
  2818                           ;main_master.c: 177:     WPUBbits.WPUB3 = 1;
  2819     1ED9  1595               	bsf	21,3	;volatile
  2820     1EDA                     l3457:
  2821                           
  2822                           ;main_master.c: 179:     I2C_Master_Init(100000);
  2823     1EDA  3000               	movlw	0
  2824     1EDB  1283               	bcf	3,5	;RP0=0, select bank0
  2825     1EDC  1303               	bcf	3,6	;RP1=0, select bank0
  2826     1EDD  00B1               	movwf	I2C_Master_Init@c+3
  2827     1EDE  3001               	movlw	1
  2828     1EDF  00B0               	movwf	I2C_Master_Init@c+2
  2829     1EE0  3086               	movlw	134
  2830     1EE1  00AF               	movwf	I2C_Master_Init@c+1
  2831     1EE2  30A0               	movlw	160
  2832     1EE3  00AE               	movwf	I2C_Master_Init@c
  2833     1EE4  160A  118A  2058  160A  158A  	fcall	_I2C_Master_Init
  2834     1EE9                     l168:
  2835     1EE9  0008               	return
  2836     1EEA                     __end_of_setup:
  2837                           
  2838                           	psect	text7
  2839     1058                     __ptext7:	
  2840 ;; *************** function _I2C_Master_Init *****************
  2841 ;; Defined at:
  2842 ;;		line 16 in file "I2C.c"
  2843 ;; Parameters:    Size  Location     Type
  2844 ;;  c               4   14[BANK0 ] const unsigned long 
  2845 ;; Auto vars:     Size  Location     Type
  2846 ;;		None
  2847 ;; Return value:  Size  Location     Type
  2848 ;;                  1    wreg      void 
  2849 ;; Registers used:
  2850 ;;		wreg, status,2, status,0, pclath, cstack
  2851 ;; Tracked objects:
  2852 ;;		On entry : 0/0
  2853 ;;		On exit  : 0/0
  2854 ;;		Unchanged: 0/0
  2855 ;; Data sizes:     COMMON   BANK0   BANK1   BANK3   BANK2
  2856 ;;      Params:         0       4       0       0       0
  2857 ;;      Locals:         0       0       0       0       0
  2858 ;;      Temps:          0       4       0       0       0
  2859 ;;      Totals:         0       8       0       0       0
  2860 ;;Total ram usage:        8 bytes
  2861 ;; Hardware stack levels used: 1
  2862 ;; Hardware stack levels required when called: 5
  2863 ;; This function calls:
  2864 ;;		___lldiv
  2865 ;; This function is called by:
  2866 ;;		_setup
  2867 ;; This function uses a non-reentrant model
  2868 ;;
  2869                           
  2870     1058                     _I2C_Master_Init:	
  2871                           ;psect for function _I2C_Master_Init
  2872                           
  2873     1058                     l3267:	
  2874                           ;incstack = 0
  2875                           ; Regs used in _I2C_Master_Init: [wreg+status,2+status,0+pclath+cstack]
  2876                           
  2877                           
  2878                           ;I2C.c: 16: void I2C_Master_Init(const unsigned long c);I2C.c: 17: {;I2C.c: 18:     SSPC
      +                          ON = 0b00101000;
  2879     1058  3028               	movlw	40
  2880     1059  1283               	bcf	3,5	;RP0=0, select bank0
  2881     105A  1303               	bcf	3,6	;RP1=0, select bank0
  2882     105B  0094               	movwf	20	;volatile
  2883     105C                     l3269:
  2884                           
  2885                           ;I2C.c: 19:     SSPCON2 = 0;
  2886     105C  1683               	bsf	3,5	;RP0=1, select bank1
  2887     105D  1303               	bcf	3,6	;RP1=0, select bank1
  2888     105E  0191               	clrf	17	;volatile
  2889     105F                     l3271:
  2890                           
  2891                           ;I2C.c: 20:     SSPADD = (8000000/(4*c))-1;
  2892     105F  1283               	bcf	3,5	;RP0=0, select bank0
  2893     1060  1303               	bcf	3,6	;RP1=0, select bank0
  2894     1061  082E               	movf	I2C_Master_Init@c,w
  2895     1062  00B2               	movwf	??_I2C_Master_Init
  2896     1063  082F               	movf	I2C_Master_Init@c+1,w
  2897     1064  00B3               	movwf	??_I2C_Master_Init+1
  2898     1065  0830               	movf	I2C_Master_Init@c+2,w
  2899     1066  00B4               	movwf	??_I2C_Master_Init+2
  2900     1067  0831               	movf	I2C_Master_Init@c+3,w
  2901     1068  00B5               	movwf	??_I2C_Master_Init+3
  2902     1069  3002               	movlw	2
  2903     106A                     u4275:
  2904     106A  1003               	clrc
  2905     106B  0DB2               	rlf	??_I2C_Master_Init,f
  2906     106C  0DB3               	rlf	??_I2C_Master_Init+1,f
  2907     106D  0DB4               	rlf	??_I2C_Master_Init+2,f
  2908     106E  0DB5               	rlf	??_I2C_Master_Init+3,f
  2909     106F                     u4270:
  2910     106F  3EFF               	addlw	-1
  2911     1070  1D03               	skipz
  2912     1071  286A               	goto	u4275
  2913     1072  0835               	movf	??_I2C_Master_Init+3,w
  2914     1073  00A3               	movwf	___lldiv@divisor+3
  2915     1074  0834               	movf	??_I2C_Master_Init+2,w
  2916     1075  00A2               	movwf	___lldiv@divisor+2
  2917     1076  0833               	movf	??_I2C_Master_Init+1,w
  2918     1077  00A1               	movwf	___lldiv@divisor+1
  2919     1078  0832               	movf	??_I2C_Master_Init,w
  2920     1079  00A0               	movwf	___lldiv@divisor
  2921     107A  3000               	movlw	0
  2922     107B  00A7               	movwf	___lldiv@dividend+3
  2923     107C  307A               	movlw	122
  2924     107D  00A6               	movwf	___lldiv@dividend+2
  2925     107E  3012               	movlw	18
  2926     107F  00A5               	movwf	___lldiv@dividend+1
  2927     1080  3000               	movlw	0
  2928     1081  00A4               	movwf	___lldiv@dividend
  2929     1082  160A  118A  2371  160A  118A  	fcall	___lldiv
  2930     1087  1283               	bcf	3,5	;RP0=0, select bank0
  2931     1088  1303               	bcf	3,6	;RP1=0, select bank0
  2932     1089  0820               	movf	?___lldiv,w
  2933     108A  3EFF               	addlw	255
  2934     108B  1683               	bsf	3,5	;RP0=1, select bank1
  2935     108C  1303               	bcf	3,6	;RP1=0, select bank1
  2936     108D  0093               	movwf	19	;volatile
  2937     108E                     l3273:
  2938                           
  2939                           ;I2C.c: 21:     SSPSTAT = 0;
  2940     108E  0194               	clrf	20	;volatile
  2941     108F                     l3275:
  2942                           
  2943                           ;I2C.c: 22:     TRISCbits.TRISC3 = 1;
  2944     108F  1587               	bsf	7,3	;volatile
  2945     1090                     l3277:
  2946                           
  2947                           ;I2C.c: 23:     TRISCbits.TRISC4 = 1;
  2948     1090  1607               	bsf	7,4	;volatile
  2949     1091                     l297:
  2950     1091  0008               	return
  2951     1092                     __end_of_I2C_Master_Init:
  2952                           
  2953                           	psect	text8
  2954     1371                     __ptext8:	
  2955 ;; *************** function ___lldiv *****************
  2956 ;; Defined at:
  2957 ;;		line 5 in file "C:\Program Files\Microchip\xc8\v2.40\pic\sources\c90\common\__lldiv.c"
  2958 ;; Parameters:    Size  Location     Type
  2959 ;;  divisor         4    0[BANK0 ] unsigned long 
  2960 ;;  dividend        4    4[BANK0 ] unsigned long 
  2961 ;; Auto vars:     Size  Location     Type
  2962 ;;  quotient        4    9[BANK0 ] unsigned long 
  2963 ;;  counter         1   13[BANK0 ] unsigned char 
  2964 ;; Return value:  Size  Location     Type
  2965 ;;                  4    0[BANK0 ] unsigned long 
  2966 ;; Registers used:
  2967 ;;		wreg, status,2, status,0
  2968 ;; Tracked objects:
  2969 ;;		On entry : 0/0
  2970 ;;		On exit  : 0/0
  2971 ;;		Unchanged: 0/0
  2972 ;; Data sizes:     COMMON   BANK0   BANK1   BANK3   BANK2
  2973 ;;      Params:         0       8       0       0       0
  2974 ;;      Locals:         0       5       0       0       0
  2975 ;;      Temps:          0       1       0       0       0
  2976 ;;      Totals:         0      14       0       0       0
  2977 ;;Total ram usage:       14 bytes
  2978 ;; Hardware stack levels used: 1
  2979 ;; Hardware stack levels required when called: 4
  2980 ;; This function calls:
  2981 ;;		Nothing
  2982 ;; This function is called by:
  2983 ;;		_I2C_Master_Init
  2984 ;; This function uses a non-reentrant model
  2985 ;;
  2986                           
  2987     1371                     ___lldiv:	
  2988                           ;psect for function ___lldiv
  2989                           
  2990     1371                     l2719:	
  2991                           ;incstack = 0
  2992                           ; Regs used in ___lldiv: [wreg+status,2+status,0]
  2993                           
  2994     1371  3000               	movlw	0
  2995     1372  1283               	bcf	3,5	;RP0=0, select bank0
  2996     1373  1303               	bcf	3,6	;RP1=0, select bank0
  2997     1374  00AC               	movwf	___lldiv@quotient+3
  2998     1375  3000               	movlw	0
  2999     1376  00AB               	movwf	___lldiv@quotient+2
  3000     1377  3000               	movlw	0
  3001     1378  00AA               	movwf	___lldiv@quotient+1
  3002     1379  3000               	movlw	0
  3003     137A  00A9               	movwf	___lldiv@quotient
  3004     137B  0823               	movf	___lldiv@divisor+3,w
  3005     137C  0422               	iorwf	___lldiv@divisor+2,w
  3006     137D  0421               	iorwf	___lldiv@divisor+1,w
  3007     137E  0420               	iorwf	___lldiv@divisor,w
  3008     137F  1903               	skipnz
  3009     1380  2B82               	goto	u3001
  3010     1381  2B83               	goto	u3000
  3011     1382                     u3001:
  3012     1382  2BD0               	goto	l2739
  3013     1383                     u3000:
  3014     1383                     l2721:
  3015     1383  01AD               	clrf	___lldiv@counter
  3016     1384  0AAD               	incf	___lldiv@counter,f
  3017     1385  2B93               	goto	l2725
  3018     1386                     l2723:
  3019     1386  3001               	movlw	1
  3020     1387  00A8               	movwf	??___lldiv
  3021     1388                     u3015:
  3022     1388  1003               	clrc
  3023     1389  0DA0               	rlf	___lldiv@divisor,f
  3024     138A  0DA1               	rlf	___lldiv@divisor+1,f
  3025     138B  0DA2               	rlf	___lldiv@divisor+2,f
  3026     138C  0DA3               	rlf	___lldiv@divisor+3,f
  3027     138D  0BA8               	decfsz	??___lldiv,f
  3028     138E  2B88               	goto	u3015
  3029     138F  3001               	movlw	1
  3030     1390  00A8               	movwf	??___lldiv
  3031     1391  0828               	movf	??___lldiv,w
  3032     1392  07AD               	addwf	___lldiv@counter,f
  3033     1393                     l2725:
  3034     1393  1FA3               	btfss	___lldiv@divisor+3,7
  3035     1394  2B96               	goto	u3021
  3036     1395  2B97               	goto	u3020
  3037     1396                     u3021:
  3038     1396  2B86               	goto	l2723
  3039     1397                     u3020:
  3040     1397                     l2727:
  3041     1397  3001               	movlw	1
  3042     1398  00A8               	movwf	??___lldiv
  3043     1399                     u3035:
  3044     1399  1003               	clrc
  3045     139A  0DA9               	rlf	___lldiv@quotient,f
  3046     139B  0DAA               	rlf	___lldiv@quotient+1,f
  3047     139C  0DAB               	rlf	___lldiv@quotient+2,f
  3048     139D  0DAC               	rlf	___lldiv@quotient+3,f
  3049     139E  0BA8               	decfsz	??___lldiv,f
  3050     139F  2B99               	goto	u3035
  3051     13A0                     l2729:
  3052     13A0  0823               	movf	___lldiv@divisor+3,w
  3053     13A1  0227               	subwf	___lldiv@dividend+3,w
  3054     13A2  1D03               	skipz
  3055     13A3  2BAE               	goto	u3045
  3056     13A4  0822               	movf	___lldiv@divisor+2,w
  3057     13A5  0226               	subwf	___lldiv@dividend+2,w
  3058     13A6  1D03               	skipz
  3059     13A7  2BAE               	goto	u3045
  3060     13A8  0821               	movf	___lldiv@divisor+1,w
  3061     13A9  0225               	subwf	___lldiv@dividend+1,w
  3062     13AA  1D03               	skipz
  3063     13AB  2BAE               	goto	u3045
  3064     13AC  0820               	movf	___lldiv@divisor,w
  3065     13AD  0224               	subwf	___lldiv@dividend,w
  3066     13AE                     u3045:
  3067     13AE  1C03               	skipc
  3068     13AF  2BB1               	goto	u3041
  3069     13B0  2BB2               	goto	u3040
  3070     13B1                     u3041:
  3071     13B1  2BC1               	goto	l2735
  3072     13B2                     u3040:
  3073     13B2                     l2731:
  3074     13B2  0820               	movf	___lldiv@divisor,w
  3075     13B3  02A4               	subwf	___lldiv@dividend,f
  3076     13B4  0821               	movf	___lldiv@divisor+1,w
  3077     13B5  1C03               	skipc
  3078     13B6  0F21               	incfsz	___lldiv@divisor+1,w
  3079     13B7  02A5               	subwf	___lldiv@dividend+1,f
  3080     13B8  0822               	movf	___lldiv@divisor+2,w
  3081     13B9  1C03               	skipc
  3082     13BA  0F22               	incfsz	___lldiv@divisor+2,w
  3083     13BB  02A6               	subwf	___lldiv@dividend+2,f
  3084     13BC  0823               	movf	___lldiv@divisor+3,w
  3085     13BD  1C03               	skipc
  3086     13BE  0F23               	incfsz	___lldiv@divisor+3,w
  3087     13BF  02A7               	subwf	___lldiv@dividend+3,f
  3088     13C0                     l2733:
  3089     13C0  1429               	bsf	___lldiv@quotient,0
  3090     13C1                     l2735:
  3091     13C1  3001               	movlw	1
  3092     13C2                     u3055:
  3093     13C2  1003               	clrc
  3094     13C3  0CA3               	rrf	___lldiv@divisor+3,f
  3095     13C4  0CA2               	rrf	___lldiv@divisor+2,f
  3096     13C5  0CA1               	rrf	___lldiv@divisor+1,f
  3097     13C6  0CA0               	rrf	___lldiv@divisor,f
  3098     13C7  3EFF               	addlw	-1
  3099     13C8  1D03               	skipz
  3100     13C9  2BC2               	goto	u3055
  3101     13CA                     l2737:
  3102     13CA  3001               	movlw	1
  3103     13CB  02AD               	subwf	___lldiv@counter,f
  3104     13CC  1D03               	btfss	3,2
  3105     13CD  2BCF               	goto	u3061
  3106     13CE  2BD0               	goto	u3060
  3107     13CF                     u3061:
  3108     13CF  2B97               	goto	l2727
  3109     13D0                     u3060:
  3110     13D0                     l2739:
  3111     13D0  082C               	movf	___lldiv@quotient+3,w
  3112     13D1  00A3               	movwf	?___lldiv+3
  3113     13D2  082B               	movf	___lldiv@quotient+2,w
  3114     13D3  00A2               	movwf	?___lldiv+2
  3115     13D4  082A               	movf	___lldiv@quotient+1,w
  3116     13D5  00A1               	movwf	?___lldiv+1
  3117     13D6  0829               	movf	___lldiv@quotient,w
  3118     13D7  00A0               	movwf	?___lldiv
  3119     13D8                     l504:
  3120     13D8  0008               	return
  3121     13D9                     __end_of___lldiv:
  3122                           
  3123                           	psect	text9
  3124     11FA                     __ptext9:	
  3125 ;; *************** function _Slave2 *****************
  3126 ;; Defined at:
  3127 ;;		line 355 in file "main_master.c"
  3128 ;; Parameters:    Size  Location     Type
  3129 ;;		None
  3130 ;; Auto vars:     Size  Location     Type
  3131 ;;		None
  3132 ;; Return value:  Size  Location     Type
  3133 ;;                  1    wreg      void 
  3134 ;; Registers used:
  3135 ;;		wreg, status,2, status,0, pclath, cstack
  3136 ;; Tracked objects:
  3137 ;;		On entry : 0/0
  3138 ;;		On exit  : 0/0
  3139 ;;		Unchanged: 0/0
  3140 ;; Data sizes:     COMMON   BANK0   BANK1   BANK3   BANK2
  3141 ;;      Params:         0       0       0       0       0
  3142 ;;      Locals:         0       0       0       0       0
  3143 ;;      Temps:          0       4       0       0       0
  3144 ;;      Totals:         0       4       0       0       0
  3145 ;;Total ram usage:        4 bytes
  3146 ;; Hardware stack levels used: 1
  3147 ;; Hardware stack levels required when called: 6
  3148 ;; This function calls:
  3149 ;;		_I2C_Master_Read
  3150 ;;		_I2C_Master_Start
  3151 ;;		_I2C_Master_Stop
  3152 ;;		_I2C_Master_Write
  3153 ;;		___xxtofl
  3154 ;; This function is called by:
  3155 ;;		_main
  3156 ;; This function uses a non-reentrant model
  3157 ;;
  3158                           
  3159     11FA                     _Slave2:	
  3160                           ;psect for function _Slave2
  3161                           
  3162     11FA                     l3575:	
  3163                           ;incstack = 0
  3164                           ; Regs used in _Slave2: [wreg+status,2+status,0+pclath+cstack]
  3165                           
  3166                           
  3167                           ;main_master.c: 356:     I2C_Master_Start();
  3168     11FA  160A  158A  251A  160A  118A  	fcall	_I2C_Master_Start
  3169                           
  3170                           ;main_master.c: 357:     I2C_Master_Write(0xB1);
  3171     11FF  30B1               	movlw	177
  3172     1200  1283               	bcf	3,5	;RP0=0, select bank0
  3173     1201  1303               	bcf	3,6	;RP1=0, select bank0
  3174     1202  00AA               	movwf	I2C_Master_Write@d
  3175     1203  3000               	movlw	0
  3176     1204  00AB               	movwf	I2C_Master_Write@d+1
  3177     1205  160A  158A  252C  160A  118A  	fcall	_I2C_Master_Write
  3178                           
  3179                           ;main_master.c: 358:     distancia = I2C_Master_Read(0);
  3180     120A  3000               	movlw	0
  3181     120B  1283               	bcf	3,5	;RP0=0, select bank0
  3182     120C  1303               	bcf	3,6	;RP1=0, select bank0
  3183     120D  00A0               	movwf	I2C_Master_Read@a
  3184     120E  00A1               	movwf	I2C_Master_Read@a+1
  3185     120F  160A  158A  2621  160A  118A  	fcall	_I2C_Master_Read
  3186     1214  1283               	bcf	3,5	;RP0=0, select bank0
  3187     1215  1303               	bcf	3,6	;RP1=0, select bank0
  3188     1216  0820               	movf	?_I2C_Master_Read,w
  3189     1217  00B4               	movwf	??_Slave2
  3190     1218  0821               	movf	?_I2C_Master_Read+1,w
  3191     1219  00B5               	movwf	??_Slave2+1
  3192     121A  01B6               	clrf	??_Slave2+2
  3193     121B  01B7               	clrf	??_Slave2+3
  3194     121C  0837               	movf	??_Slave2+3,w
  3195     121D  00A9               	movwf	___xxtofl@val+3
  3196     121E  0836               	movf	??_Slave2+2,w
  3197     121F  00A8               	movwf	___xxtofl@val+2
  3198     1220  0835               	movf	??_Slave2+1,w
  3199     1221  00A7               	movwf	___xxtofl@val+1
  3200     1222  0834               	movf	??_Slave2,w
  3201     1223  00A6               	movwf	___xxtofl@val
  3202     1224  3000               	movlw	0
  3203     1225  160A  118A  25EF  160A  118A  	fcall	___xxtofl
  3204     122A  1283               	bcf	3,5	;RP0=0, select bank0
  3205     122B  1303               	bcf	3,6	;RP1=0, select bank0
  3206     122C  0829               	movf	?___xxtofl+3,w
  3207     122D  1683               	bsf	3,5	;RP0=1, select bank1
  3208     122E  1303               	bcf	3,6	;RP1=0, select bank1
  3209     122F  00D5               	movwf	(_distancia+3)^(0+128)
  3210     1230  1283               	bcf	3,5	;RP0=0, select bank0
  3211     1231  1303               	bcf	3,6	;RP1=0, select bank0
  3212     1232  0828               	movf	?___xxtofl+2,w
  3213     1233  1683               	bsf	3,5	;RP0=1, select bank1
  3214     1234  1303               	bcf	3,6	;RP1=0, select bank1
  3215     1235  00D4               	movwf	(_distancia+2)^(0+128)
  3216     1236  1283               	bcf	3,5	;RP0=0, select bank0
  3217     1237  1303               	bcf	3,6	;RP1=0, select bank0
  3218     1238  0827               	movf	?___xxtofl+1,w
  3219     1239  1683               	bsf	3,5	;RP0=1, select bank1
  3220     123A  1303               	bcf	3,6	;RP1=0, select bank1
  3221     123B  00D3               	movwf	(_distancia+1)^(0+128)
  3222     123C  1283               	bcf	3,5	;RP0=0, select bank0
  3223     123D  1303               	bcf	3,6	;RP1=0, select bank0
  3224     123E  0826               	movf	?___xxtofl,w
  3225     123F  1683               	bsf	3,5	;RP0=1, select bank1
  3226     1240  1303               	bcf	3,6	;RP1=0, select bank1
  3227     1241  00D2               	movwf	_distancia^(0+128)
  3228                           
  3229                           ;main_master.c: 359:     I2C_Master_Stop();
  3230     1242  160A  158A  2523  160A  118A  	fcall	_I2C_Master_Stop
  3231     1247                     l3577:
  3232                           
  3233                           ;main_master.c: 360:     _delay((unsigned long)((20)*(8000000/4000.0)));
  3234     1247  3034               	movlw	52
  3235     1248  1283               	bcf	3,5	;RP0=0, select bank0
  3236     1249  1303               	bcf	3,6	;RP1=0, select bank0
  3237     124A  00B5               	movwf	??_Slave2+1
  3238     124B  30F1               	movlw	241
  3239     124C  00B4               	movwf	??_Slave2
  3240     124D                     u4807:
  3241     124D  0BB4               	decfsz	??_Slave2,f
  3242     124E  2A4D               	goto	u4807
  3243     124F  0BB5               	decfsz	??_Slave2+1,f
  3244     1250  2A4D               	goto	u4807
  3245     1251                     l216:
  3246     1251  0008               	return
  3247     1252                     __end_of_Slave2:
  3248                           
  3249                           	psect	text10
  3250     1252                     __ptext10:	
  3251 ;; *************** function _Slave1_Total *****************
  3252 ;; Defined at:
  3253 ;;		line 329 in file "main_master.c"
  3254 ;; Parameters:    Size  Location     Type
  3255 ;;		None
  3256 ;; Auto vars:     Size  Location     Type
  3257 ;;		None
  3258 ;; Return value:  Size  Location     Type
  3259 ;;                  1    wreg      void 
  3260 ;; Registers used:
  3261 ;;		wreg, status,2, status,0, pclath, cstack
  3262 ;; Tracked objects:
  3263 ;;		On entry : 0/0
  3264 ;;		On exit  : 0/0
  3265 ;;		Unchanged: 0/0
  3266 ;; Data sizes:     COMMON   BANK0   BANK1   BANK3   BANK2
  3267 ;;      Params:         0       0       0       0       0
  3268 ;;      Locals:         0       0       0       0       0
  3269 ;;      Temps:          0       2       0       0       0
  3270 ;;      Totals:         0       2       0       0       0
  3271 ;;Total ram usage:        2 bytes
  3272 ;; Hardware stack levels used: 1
  3273 ;; Hardware stack levels required when called: 6
  3274 ;; This function calls:
  3275 ;;		_I2C_Master_Read
  3276 ;;		_I2C_Master_Start
  3277 ;;		_I2C_Master_Stop
  3278 ;;		_I2C_Master_Write
  3279 ;; This function is called by:
  3280 ;;		_main
  3281 ;; This function uses a non-reentrant model
  3282 ;;
  3283                           
  3284     1252                     _Slave1_Total:	
  3285                           ;psect for function _Slave1_Total
  3286                           
  3287     1252                     l3505:	
  3288                           ;incstack = 0
  3289                           ; Regs used in _Slave1_Total: [wreg+status,2+status,0+pclath+cstack]
  3290                           
  3291                           
  3292                           ;main_master.c: 330:     I2C_Master_Start();
  3293     1252  160A  158A  251A  160A  118A  	fcall	_I2C_Master_Start
  3294                           
  3295                           ;main_master.c: 331:     I2C_Master_Write(0xA0);
  3296     1257  30A0               	movlw	160
  3297     1258  1283               	bcf	3,5	;RP0=0, select bank0
  3298     1259  1303               	bcf	3,6	;RP1=0, select bank0
  3299     125A  00AA               	movwf	I2C_Master_Write@d
  3300     125B  3000               	movlw	0
  3301     125C  00AB               	movwf	I2C_Master_Write@d+1
  3302     125D  160A  158A  252C  160A  118A  	fcall	_I2C_Master_Write
  3303                           
  3304                           ;main_master.c: 332:     I2C_Master_Write(cont);
  3305     1262  1683               	bsf	3,5	;RP0=1, select bank1
  3306     1263  1303               	bcf	3,6	;RP1=0, select bank1
  3307     1264  0857               	movf	_cont^(0+128),w
  3308     1265  1283               	bcf	3,5	;RP0=0, select bank0
  3309     1266  1303               	bcf	3,6	;RP1=0, select bank0
  3310     1267  00AC               	movwf	??_Slave1_Total
  3311     1268  01AD               	clrf	??_Slave1_Total+1
  3312     1269  082C               	movf	??_Slave1_Total,w
  3313     126A  00AA               	movwf	I2C_Master_Write@d
  3314     126B  082D               	movf	??_Slave1_Total+1,w
  3315     126C  00AB               	movwf	I2C_Master_Write@d+1
  3316     126D  160A  158A  252C  160A  118A  	fcall	_I2C_Master_Write
  3317                           
  3318                           ;main_master.c: 333:     I2C_Master_Stop();
  3319     1272  160A  158A  2523  160A  118A  	fcall	_I2C_Master_Stop
  3320     1277                     l3507:
  3321                           
  3322                           ;main_master.c: 334:     _delay((unsigned long)((20)*(8000000/4000.0)));
  3323     1277  3034               	movlw	52
  3324     1278  1283               	bcf	3,5	;RP0=0, select bank0
  3325     1279  1303               	bcf	3,6	;RP1=0, select bank0
  3326     127A  00AD               	movwf	??_Slave1_Total+1
  3327     127B  30F1               	movlw	241
  3328     127C  00AC               	movwf	??_Slave1_Total
  3329     127D                     u4817:
  3330     127D  0BAC               	decfsz	??_Slave1_Total,f
  3331     127E  2A7D               	goto	u4817
  3332     127F  0BAD               	decfsz	??_Slave1_Total+1,f
  3333     1280  2A7D               	goto	u4817
  3334     1281                     l3509:
  3335                           
  3336                           ;main_master.c: 336:     I2C_Master_Start();
  3337     1281  160A  158A  251A  160A  118A  	fcall	_I2C_Master_Start
  3338     1286                     l3511:
  3339                           
  3340                           ;main_master.c: 337:     I2C_Master_Write(0xA1);
  3341     1286  30A1               	movlw	161
  3342     1287  1283               	bcf	3,5	;RP0=0, select bank0
  3343     1288  1303               	bcf	3,6	;RP1=0, select bank0
  3344     1289  00AA               	movwf	I2C_Master_Write@d
  3345     128A  3000               	movlw	0
  3346     128B  00AB               	movwf	I2C_Master_Write@d+1
  3347     128C  160A  158A  252C  160A  118A  	fcall	_I2C_Master_Write
  3348     1291                     l3513:
  3349                           
  3350                           ;main_master.c: 338:     cont = I2C_Master_Read(0);
  3351     1291  3000               	movlw	0
  3352     1292  1283               	bcf	3,5	;RP0=0, select bank0
  3353     1293  1303               	bcf	3,6	;RP1=0, select bank0
  3354     1294  00A0               	movwf	I2C_Master_Read@a
  3355     1295  00A1               	movwf	I2C_Master_Read@a+1
  3356     1296  160A  158A  2621  160A  118A  	fcall	_I2C_Master_Read
  3357     129B  1283               	bcf	3,5	;RP0=0, select bank0
  3358     129C  1303               	bcf	3,6	;RP1=0, select bank0
  3359     129D  0820               	movf	?_I2C_Master_Read,w
  3360     129E  1683               	bsf	3,5	;RP0=1, select bank1
  3361     129F  1303               	bcf	3,6	;RP1=0, select bank1
  3362     12A0  00D7               	movwf	_cont^(0+128)
  3363     12A1                     l3515:
  3364                           
  3365                           ;main_master.c: 339:     I2C_Master_Stop();
  3366     12A1  160A  158A  2523  160A  118A  	fcall	_I2C_Master_Stop
  3367     12A6                     l3517:
  3368                           
  3369                           ;main_master.c: 340:     _delay((unsigned long)((10)*(8000000/4000000.0)));
  3370     12A6  3005               	movlw	5
  3371     12A7  1283               	bcf	3,5	;RP0=0, select bank0
  3372     12A8  1303               	bcf	3,6	;RP1=0, select bank0
  3373     12A9  00AC               	movwf	??_Slave1_Total
  3374     12AA                     u4827:
  3375     12AA  0BAC               	decfsz	??_Slave1_Total,f
  3376     12AB  2AAA               	goto	u4827
  3377     12AC  2AAD               	nop2
  3378     12AD                     l209:
  3379     12AD  0008               	return
  3380     12AE                     __end_of_Slave1_Total:
  3381                           
  3382                           	psect	text11
  3383     1F56                     __ptext11:	
  3384 ;; *************** function _Set_sec *****************
  3385 ;; Defined at:
  3386 ;;		line 202 in file "main_master.c"
  3387 ;; Parameters:    Size  Location     Type
  3388 ;;  sec             1    wreg     unsigned char 
  3389 ;; Auto vars:     Size  Location     Type
  3390 ;;  sec             1   14[BANK0 ] unsigned char 
  3391 ;; Return value:  Size  Location     Type
  3392 ;;                  1    wreg      void 
  3393 ;; Registers used:
  3394 ;;		wreg, status,2, status,0, pclath, cstack
  3395 ;; Tracked objects:
  3396 ;;		On entry : 0/0
  3397 ;;		On exit  : 0/0
  3398 ;;		Unchanged: 0/0
  3399 ;; Data sizes:     COMMON   BANK0   BANK1   BANK3   BANK2
  3400 ;;      Params:         0       0       0       0       0
  3401 ;;      Locals:         0       1       0       0       0
  3402 ;;      Temps:          0       2       0       0       0
  3403 ;;      Totals:         0       3       0       0       0
  3404 ;;Total ram usage:        3 bytes
  3405 ;; Hardware stack levels used: 1
  3406 ;; Hardware stack levels required when called: 6
  3407 ;; This function calls:
  3408 ;;		_Dec_to_Bcd
  3409 ;;		_I2C_Master_Start
  3410 ;;		_I2C_Master_Stop
  3411 ;;		_I2C_Master_Write
  3412 ;; This function is called by:
  3413 ;;		_main
  3414 ;; This function uses a non-reentrant model
  3415 ;;
  3416                           
  3417     1F56                     _Set_sec:	
  3418                           ;psect for function _Set_sec
  3419                           
  3420                           
  3421                           ;incstack = 0
  3422                           ; Regs used in _Set_sec: [wreg+status,2+status,0+pclath+cstack]
  3423                           ;Set_sec@sec stored from wreg
  3424     1F56  1283               	bcf	3,5	;RP0=0, select bank0
  3425     1F57  1303               	bcf	3,6	;RP1=0, select bank0
  3426     1F58  00AE               	movwf	Set_sec@sec
  3427     1F59                     l3499:
  3428                           
  3429                           ;main_master.c: 203:     I2C_Master_Start();
  3430     1F59  160A  158A  251A  160A  158A  	fcall	_I2C_Master_Start
  3431                           
  3432                           ;main_master.c: 204:     I2C_Master_Write(0xD0);
  3433     1F5E  30D0               	movlw	208
  3434     1F5F  1283               	bcf	3,5	;RP0=0, select bank0
  3435     1F60  1303               	bcf	3,6	;RP1=0, select bank0
  3436     1F61  00AA               	movwf	I2C_Master_Write@d
  3437     1F62  3000               	movlw	0
  3438     1F63  00AB               	movwf	I2C_Master_Write@d+1
  3439     1F64  160A  158A  252C  160A  158A  	fcall	_I2C_Master_Write
  3440                           
  3441                           ;main_master.c: 205:     I2C_Master_Write(0x00);
  3442     1F69  3000               	movlw	0
  3443     1F6A  1283               	bcf	3,5	;RP0=0, select bank0
  3444     1F6B  1303               	bcf	3,6	;RP1=0, select bank0
  3445     1F6C  00AA               	movwf	I2C_Master_Write@d
  3446     1F6D  00AB               	movwf	I2C_Master_Write@d+1
  3447     1F6E  160A  158A  252C  160A  158A  	fcall	_I2C_Master_Write
  3448                           
  3449                           ;main_master.c: 206:     I2C_Master_Write(Dec_to_Bcd(sec));
  3450     1F73  1283               	bcf	3,5	;RP0=0, select bank0
  3451     1F74  1303               	bcf	3,6	;RP1=0, select bank0
  3452     1F75  082E               	movf	Set_sec@sec,w
  3453     1F76  160A  158A  2596  160A  158A  	fcall	_Dec_to_Bcd
  3454     1F7B  1283               	bcf	3,5	;RP0=0, select bank0
  3455     1F7C  1303               	bcf	3,6	;RP1=0, select bank0
  3456     1F7D  00AC               	movwf	??_Set_sec
  3457     1F7E  01AD               	clrf	??_Set_sec+1
  3458     1F7F  082C               	movf	??_Set_sec,w
  3459     1F80  00AA               	movwf	I2C_Master_Write@d
  3460     1F81  082D               	movf	??_Set_sec+1,w
  3461     1F82  00AB               	movwf	I2C_Master_Write@d+1
  3462     1F83  160A  158A  252C  160A  158A  	fcall	_I2C_Master_Write
  3463                           
  3464                           ;main_master.c: 207:     I2C_Master_Stop();
  3465     1F88  160A  158A  2523  160A  158A  	fcall	_I2C_Master_Stop
  3466     1F8D                     l177:
  3467     1F8D  0008               	return
  3468     1F8E                     __end_of_Set_sec:
  3469                           
  3470                           	psect	text12
  3471     101F                     __ptext12:	
  3472 ;; *************** function _Set_min *****************
  3473 ;; Defined at:
  3474 ;;		line 210 in file "main_master.c"
  3475 ;; Parameters:    Size  Location     Type
  3476 ;;  min             1    wreg     unsigned char 
  3477 ;; Auto vars:     Size  Location     Type
  3478 ;;  min             1   14[BANK0 ] unsigned char 
  3479 ;; Return value:  Size  Location     Type
  3480 ;;                  1    wreg      void 
  3481 ;; Registers used:
  3482 ;;		wreg, status,2, status,0, pclath, cstack
  3483 ;; Tracked objects:
  3484 ;;		On entry : 0/0
  3485 ;;		On exit  : 0/0
  3486 ;;		Unchanged: 0/0
  3487 ;; Data sizes:     COMMON   BANK0   BANK1   BANK3   BANK2
  3488 ;;      Params:         0       0       0       0       0
  3489 ;;      Locals:         0       1       0       0       0
  3490 ;;      Temps:          0       2       0       0       0
  3491 ;;      Totals:         0       3       0       0       0
  3492 ;;Total ram usage:        3 bytes
  3493 ;; Hardware stack levels used: 1
  3494 ;; Hardware stack levels required when called: 6
  3495 ;; This function calls:
  3496 ;;		_Dec_to_Bcd
  3497 ;;		_I2C_Master_Start
  3498 ;;		_I2C_Master_Stop
  3499 ;;		_I2C_Master_Write
  3500 ;; This function is called by:
  3501 ;;		_main
  3502 ;; This function uses a non-reentrant model
  3503 ;;
  3504                           
  3505     101F                     _Set_min:	
  3506                           ;psect for function _Set_min
  3507                           
  3508                           
  3509                           ;incstack = 0
  3510                           ; Regs used in _Set_min: [wreg+status,2+status,0+pclath+cstack]
  3511                           ;Set_min@min stored from wreg
  3512     101F  1283               	bcf	3,5	;RP0=0, select bank0
  3513     1020  1303               	bcf	3,6	;RP1=0, select bank0
  3514     1021  00AE               	movwf	Set_min@min
  3515     1022                     l3501:
  3516                           
  3517                           ;main_master.c: 211:     I2C_Master_Start();
  3518     1022  160A  158A  251A  160A  118A  	fcall	_I2C_Master_Start
  3519                           
  3520                           ;main_master.c: 212:     I2C_Master_Write(0xD0);
  3521     1027  30D0               	movlw	208
  3522     1028  1283               	bcf	3,5	;RP0=0, select bank0
  3523     1029  1303               	bcf	3,6	;RP1=0, select bank0
  3524     102A  00AA               	movwf	I2C_Master_Write@d
  3525     102B  3000               	movlw	0
  3526     102C  00AB               	movwf	I2C_Master_Write@d+1
  3527     102D  160A  158A  252C  160A  118A  	fcall	_I2C_Master_Write
  3528                           
  3529                           ;main_master.c: 213:     I2C_Master_Write(0x01);
  3530     1032  3001               	movlw	1
  3531     1033  1283               	bcf	3,5	;RP0=0, select bank0
  3532     1034  1303               	bcf	3,6	;RP1=0, select bank0
  3533     1035  00AA               	movwf	I2C_Master_Write@d
  3534     1036  3000               	movlw	0
  3535     1037  00AB               	movwf	I2C_Master_Write@d+1
  3536     1038  160A  158A  252C  160A  118A  	fcall	_I2C_Master_Write
  3537                           
  3538                           ;main_master.c: 214:     I2C_Master_Write(Dec_to_Bcd(min));
  3539     103D  1283               	bcf	3,5	;RP0=0, select bank0
  3540     103E  1303               	bcf	3,6	;RP1=0, select bank0
  3541     103F  082E               	movf	Set_min@min,w
  3542     1040  160A  158A  2596  160A  118A  	fcall	_Dec_to_Bcd
  3543     1045  1283               	bcf	3,5	;RP0=0, select bank0
  3544     1046  1303               	bcf	3,6	;RP1=0, select bank0
  3545     1047  00AC               	movwf	??_Set_min
  3546     1048  01AD               	clrf	??_Set_min+1
  3547     1049  082C               	movf	??_Set_min,w
  3548     104A  00AA               	movwf	I2C_Master_Write@d
  3549     104B  082D               	movf	??_Set_min+1,w
  3550     104C  00AB               	movwf	I2C_Master_Write@d+1
  3551     104D  160A  158A  252C  160A  118A  	fcall	_I2C_Master_Write
  3552                           
  3553                           ;main_master.c: 215:     I2C_Master_Stop();
  3554     1052  160A  158A  2523  160A  118A  	fcall	_I2C_Master_Stop
  3555     1057                     l180:
  3556     1057  0008               	return
  3557     1058                     __end_of_Set_min:
  3558                           
  3559                           	psect	text13
  3560     1FC7                     __ptext13:	
  3561 ;; *************** function _Set_hour *****************
  3562 ;; Defined at:
  3563 ;;		line 218 in file "main_master.c"
  3564 ;; Parameters:    Size  Location     Type
  3565 ;;  hour            1    wreg     unsigned char 
  3566 ;; Auto vars:     Size  Location     Type
  3567 ;;  hour            1   14[BANK0 ] unsigned char 
  3568 ;; Return value:  Size  Location     Type
  3569 ;;                  1    wreg      void 
  3570 ;; Registers used:
  3571 ;;		wreg, status,2, status,0, pclath, cstack
  3572 ;; Tracked objects:
  3573 ;;		On entry : 0/0
  3574 ;;		On exit  : 0/0
  3575 ;;		Unchanged: 0/0
  3576 ;; Data sizes:     COMMON   BANK0   BANK1   BANK3   BANK2
  3577 ;;      Params:         0       0       0       0       0
  3578 ;;      Locals:         0       1       0       0       0
  3579 ;;      Temps:          0       2       0       0       0
  3580 ;;      Totals:         0       3       0       0       0
  3581 ;;Total ram usage:        3 bytes
  3582 ;; Hardware stack levels used: 1
  3583 ;; Hardware stack levels required when called: 6
  3584 ;; This function calls:
  3585 ;;		_Dec_to_Bcd
  3586 ;;		_I2C_Master_Start
  3587 ;;		_I2C_Master_Stop
  3588 ;;		_I2C_Master_Write
  3589 ;; This function is called by:
  3590 ;;		_main
  3591 ;; This function uses a non-reentrant model
  3592 ;;
  3593                           
  3594     1FC7                     _Set_hour:	
  3595                           ;psect for function _Set_hour
  3596                           
  3597                           
  3598                           ;incstack = 0
  3599                           ; Regs used in _Set_hour: [wreg+status,2+status,0+pclath+cstack]
  3600                           ;Set_hour@hour stored from wreg
  3601     1FC7  1283               	bcf	3,5	;RP0=0, select bank0
  3602     1FC8  1303               	bcf	3,6	;RP1=0, select bank0
  3603     1FC9  00AE               	movwf	Set_hour@hour
  3604     1FCA                     l3503:
  3605                           
  3606                           ;main_master.c: 219:     I2C_Master_Start();
  3607     1FCA  160A  158A  251A  160A  158A  	fcall	_I2C_Master_Start
  3608                           
  3609                           ;main_master.c: 220:     I2C_Master_Write(0xD0);
  3610     1FCF  30D0               	movlw	208
  3611     1FD0  1283               	bcf	3,5	;RP0=0, select bank0
  3612     1FD1  1303               	bcf	3,6	;RP1=0, select bank0
  3613     1FD2  00AA               	movwf	I2C_Master_Write@d
  3614     1FD3  3000               	movlw	0
  3615     1FD4  00AB               	movwf	I2C_Master_Write@d+1
  3616     1FD5  160A  158A  252C  160A  158A  	fcall	_I2C_Master_Write
  3617                           
  3618                           ;main_master.c: 221:     I2C_Master_Write(0x02);
  3619     1FDA  3002               	movlw	2
  3620     1FDB  1283               	bcf	3,5	;RP0=0, select bank0
  3621     1FDC  1303               	bcf	3,6	;RP1=0, select bank0
  3622     1FDD  00AA               	movwf	I2C_Master_Write@d
  3623     1FDE  3000               	movlw	0
  3624     1FDF  00AB               	movwf	I2C_Master_Write@d+1
  3625     1FE0  160A  158A  252C  160A  158A  	fcall	_I2C_Master_Write
  3626                           
  3627                           ;main_master.c: 222:     I2C_Master_Write(Dec_to_Bcd(hour));
  3628     1FE5  1283               	bcf	3,5	;RP0=0, select bank0
  3629     1FE6  1303               	bcf	3,6	;RP1=0, select bank0
  3630     1FE7  082E               	movf	Set_hour@hour,w
  3631     1FE8  160A  158A  2596  160A  158A  	fcall	_Dec_to_Bcd
  3632     1FED  1283               	bcf	3,5	;RP0=0, select bank0
  3633     1FEE  1303               	bcf	3,6	;RP1=0, select bank0
  3634     1FEF  00AC               	movwf	??_Set_hour
  3635     1FF0  01AD               	clrf	??_Set_hour+1
  3636     1FF1  082C               	movf	??_Set_hour,w
  3637     1FF2  00AA               	movwf	I2C_Master_Write@d
  3638     1FF3  082D               	movf	??_Set_hour+1,w
  3639     1FF4  00AB               	movwf	I2C_Master_Write@d+1
  3640     1FF5  160A  158A  252C  160A  158A  	fcall	_I2C_Master_Write
  3641                           
  3642                           ;main_master.c: 223:     I2C_Master_Stop();
  3643     1FFA  160A  158A  2523  160A  158A  	fcall	_I2C_Master_Stop
  3644     1FFF                     l183:
  3645     1FFF  0008               	return
  3646     2000                     __end_of_Set_hour:
  3647                           
  3648                           	psect	text14
  3649     1D96                     __ptext14:	
  3650 ;; *************** function _Dec_to_Bcd *****************
  3651 ;; Defined at:
  3652 ;;		line 226 in file "main_master.c"
  3653 ;; Parameters:    Size  Location     Type
  3654 ;;  dec_number      1    wreg     unsigned char 
  3655 ;; Auto vars:     Size  Location     Type
  3656 ;;  dec_number      1    0[BANK0 ] unsigned char 
  3657 ;;  bcd_number      1    1[BANK0 ] unsigned char 
  3658 ;; Return value:  Size  Location     Type
  3659 ;;                  1    wreg      unsigned char 
  3660 ;; Registers used:
  3661 ;;		wreg, status,2, status,0
  3662 ;; Tracked objects:
  3663 ;;		On entry : 0/0
  3664 ;;		On exit  : 0/0
  3665 ;;		Unchanged: 0/0
  3666 ;; Data sizes:     COMMON   BANK0   BANK1   BANK3   BANK2
  3667 ;;      Params:         0       0       0       0       0
  3668 ;;      Locals:         0       2       0       0       0
  3669 ;;      Temps:          0       0       0       0       0
  3670 ;;      Totals:         0       2       0       0       0
  3671 ;;Total ram usage:        2 bytes
  3672 ;; Hardware stack levels used: 1
  3673 ;; Hardware stack levels required when called: 4
  3674 ;; This function calls:
  3675 ;;		Nothing
  3676 ;; This function is called by:
  3677 ;;		_Set_sec
  3678 ;;		_Set_min
  3679 ;;		_Set_hour
  3680 ;; This function uses a non-reentrant model
  3681 ;;
  3682                           
  3683     1D96                     _Dec_to_Bcd:	
  3684                           ;psect for function _Dec_to_Bcd
  3685                           
  3686                           
  3687                           ;incstack = 0
  3688                           ; Regs used in _Dec_to_Bcd: [wreg+status,2+status,0]
  3689                           ;Dec_to_Bcd@dec_number stored from wreg
  3690     1D96  1283               	bcf	3,5	;RP0=0, select bank0
  3691     1D97  1303               	bcf	3,6	;RP1=0, select bank0
  3692     1D98  00A0               	movwf	Dec_to_Bcd@dec_number
  3693     1D99                     l3309:
  3694                           
  3695                           ;main_master.c: 227:     uint8_t bcd_number;;main_master.c: 228:     bcd_number = 0;
  3696     1D99  01A1               	clrf	Dec_to_Bcd@bcd_number
  3697     1D9A                     l3311:
  3698                           
  3699                           ;main_master.c: 230:         if (dec_number >= 10){
  3700     1D9A  300A               	movlw	10
  3701     1D9B  0220               	subwf	Dec_to_Bcd@dec_number,w
  3702     1D9C  1C03               	skipc
  3703     1D9D  2D9F               	goto	u4291
  3704     1D9E  2DA0               	goto	u4290
  3705     1D9F                     u4291:
  3706     1D9F  2DA7               	goto	l3315
  3707     1DA0                     u4290:
  3708     1DA0                     l3313:
  3709                           
  3710                           ;main_master.c: 231:             dec_number = dec_number - 10;
  3711     1DA0  0820               	movf	Dec_to_Bcd@dec_number,w
  3712     1DA1  3EF6               	addlw	246
  3713     1DA2  00A0               	movwf	Dec_to_Bcd@dec_number
  3714                           
  3715                           ;main_master.c: 232:             bcd_number = bcd_number + 0b00010000;
  3716     1DA3  0821               	movf	Dec_to_Bcd@bcd_number,w
  3717     1DA4  3E10               	addlw	16
  3718     1DA5  00A1               	movwf	Dec_to_Bcd@bcd_number
  3719                           
  3720                           ;main_master.c: 233:         }
  3721     1DA6  2D9A               	goto	l3311
  3722     1DA7                     l3315:
  3723                           
  3724                           ;main_master.c: 235:             bcd_number = bcd_number + dec_number;
  3725     1DA7  0820               	movf	Dec_to_Bcd@dec_number,w
  3726     1DA8  0721               	addwf	Dec_to_Bcd@bcd_number,w
  3727     1DA9  00A1               	movwf	Dec_to_Bcd@bcd_number
  3728     1DAA                     l3317:	
  3729                           ;main_master.c: 236:             break;
  3730                           
  3731                           
  3732                           ;main_master.c: 239:     return bcd_number;
  3733     1DAA  0821               	movf	Dec_to_Bcd@bcd_number,w
  3734     1DAB                     l191:
  3735     1DAB  0008               	return
  3736     1DAC                     __end_of_Dec_to_Bcd:
  3737                           
  3738                           	psect	text15
  3739     1EEA                     __ptext15:	
  3740 ;; *************** function _Read_Time *****************
  3741 ;; Defined at:
  3742 ;;		line 196 in file "main_master.c"
  3743 ;; Parameters:    Size  Location     Type
  3744 ;;  s               1    wreg     PTR unsigned char 
  3745 ;;		 -> segundos(1), 
  3746 ;;  m               1   16[BANK0 ] PTR unsigned char 
  3747 ;;		 -> minutos(1), 
  3748 ;;  h               1   17[BANK0 ] PTR unsigned char 
  3749 ;;		 -> horas(1), 
  3750 ;; Auto vars:     Size  Location     Type
  3751 ;;  s               1   18[BANK0 ] PTR unsigned char 
  3752 ;;		 -> segundos(1), 
  3753 ;; Return value:  Size  Location     Type
  3754 ;;                  1    wreg      void 
  3755 ;; Registers used:
  3756 ;;		wreg, fsr0l, fsr0h, status,2, status,0, pclath, cstack
  3757 ;; Tracked objects:
  3758 ;;		On entry : 0/0
  3759 ;;		On exit  : 0/0
  3760 ;;		Unchanged: 0/0
  3761 ;; Data sizes:     COMMON   BANK0   BANK1   BANK3   BANK2
  3762 ;;      Params:         0       2       0       0       0
  3763 ;;      Locals:         0       1       0       0       0
  3764 ;;      Temps:          0       0       0       0       0
  3765 ;;      Totals:         0       3       0       0       0
  3766 ;;Total ram usage:        3 bytes
  3767 ;; Hardware stack levels used: 1
  3768 ;; Hardware stack levels required when called: 7
  3769 ;; This function calls:
  3770 ;;		_Bcd_to_Dec
  3771 ;;		_Read
  3772 ;; This function is called by:
  3773 ;;		_main
  3774 ;; This function uses a non-reentrant model
  3775 ;;
  3776                           
  3777     1EEA                     _Read_Time:	
  3778                           ;psect for function _Read_Time
  3779                           
  3780                           
  3781                           ;incstack = 0
  3782                           ; Regs used in _Read_Time: [wreg-fsr0h+status,2+status,0+pclath+cstack]
  3783                           ;Read_Time@s stored from wreg
  3784     1EEA  1283               	bcf	3,5	;RP0=0, select bank0
  3785     1EEB  1303               	bcf	3,6	;RP1=0, select bank0
  3786     1EEC  00B2               	movwf	Read_Time@s
  3787     1EED                     l3519:
  3788                           
  3789                           ;main_master.c: 197:     *s = Bcd_to_Dec(Read(0x00));
  3790     1EED  0832               	movf	Read_Time@s,w
  3791     1EEE  0084               	movwf	4
  3792     1EEF  3000               	movlw	0
  3793     1EF0  160A  118A  21A6  160A  158A  	fcall	_Read
  3794     1EF5  160A  118A  2003  160A  158A  	fcall	_Bcd_to_Dec
  3795     1EFA  1383               	bcf	3,7	;select IRP bank0
  3796     1EFB  0080               	movwf	0
  3797                           
  3798                           ;main_master.c: 198:     *m = Bcd_to_Dec(Read(0x01));
  3799     1EFC  1283               	bcf	3,5	;RP0=0, select bank0
  3800     1EFD  1303               	bcf	3,6	;RP1=0, select bank0
  3801     1EFE  0830               	movf	Read_Time@m,w
  3802     1EFF  0084               	movwf	4
  3803     1F00  3001               	movlw	1
  3804     1F01  160A  118A  21A6  160A  158A  	fcall	_Read
  3805     1F06  160A  118A  2003  160A  158A  	fcall	_Bcd_to_Dec
  3806     1F0B  1383               	bcf	3,7	;select IRP bank0
  3807     1F0C  0080               	movwf	0
  3808                           
  3809                           ;main_master.c: 199:     *h = Bcd_to_Dec(Read(0x02));
  3810     1F0D  1283               	bcf	3,5	;RP0=0, select bank0
  3811     1F0E  1303               	bcf	3,6	;RP1=0, select bank0
  3812     1F0F  0831               	movf	Read_Time@h,w
  3813     1F10  0084               	movwf	4
  3814     1F11  3002               	movlw	2
  3815     1F12  160A  118A  21A6  160A  158A  	fcall	_Read
  3816     1F17  160A  118A  2003  160A  158A  	fcall	_Bcd_to_Dec
  3817     1F1C  1383               	bcf	3,7	;select IRP bank0
  3818     1F1D  0080               	movwf	0
  3819     1F1E                     l174:
  3820     1F1E  0008               	return
  3821     1F1F                     __end_of_Read_Time:
  3822                           
  3823                           	psect	text16
  3824     11A6                     __ptext16:	
  3825 ;; *************** function _Read *****************
  3826 ;; Defined at:
  3827 ;;		line 182 in file "main_master.c"
  3828 ;; Parameters:    Size  Location     Type
  3829 ;;  address         1    wreg     unsigned char 
  3830 ;; Auto vars:     Size  Location     Type
  3831 ;;  address         1   14[BANK0 ] unsigned char 
  3832 ;;  dato            1   15[BANK0 ] unsigned char 
  3833 ;; Return value:  Size  Location     Type
  3834 ;;                  1    wreg      unsigned char 
  3835 ;; Registers used:
  3836 ;;		wreg, status,2, status,0, pclath, cstack
  3837 ;; Tracked objects:
  3838 ;;		On entry : 0/0
  3839 ;;		On exit  : 0/0
  3840 ;;		Unchanged: 0/0
  3841 ;; Data sizes:     COMMON   BANK0   BANK1   BANK3   BANK2
  3842 ;;      Params:         0       0       0       0       0
  3843 ;;      Locals:         0       2       0       0       0
  3844 ;;      Temps:          0       2       0       0       0
  3845 ;;      Totals:         0       4       0       0       0
  3846 ;;Total ram usage:        4 bytes
  3847 ;; Hardware stack levels used: 1
  3848 ;; Hardware stack levels required when called: 6
  3849 ;; This function calls:
  3850 ;;		_I2C_Master_Read
  3851 ;;		_I2C_Master_RepeatedStart
  3852 ;;		_I2C_Master_Start
  3853 ;;		_I2C_Master_Stop
  3854 ;;		_I2C_Master_Write
  3855 ;;		_I2C_Nack
  3856 ;; This function is called by:
  3857 ;;		_Read_Time
  3858 ;; This function uses a non-reentrant model
  3859 ;;
  3860                           
  3861     11A6                     _Read:	
  3862                           ;psect for function _Read
  3863                           
  3864                           
  3865                           ;incstack = 0
  3866                           ; Regs used in _Read: [wreg+status,2+status,0+pclath+cstack]
  3867                           ;Read@address stored from wreg
  3868     11A6  1283               	bcf	3,5	;RP0=0, select bank0
  3869     11A7  1303               	bcf	3,6	;RP1=0, select bank0
  3870     11A8  00AE               	movwf	Read@address
  3871     11A9                     l3279:
  3872     11A9                     l3281:
  3873                           
  3874                           ;main_master.c: 184:     I2C_Master_Start();
  3875     11A9  160A  158A  251A  160A  118A  	fcall	_I2C_Master_Start
  3876     11AE                     l3283:
  3877                           
  3878                           ;main_master.c: 185:     I2C_Master_Write(0xD0);
  3879     11AE  30D0               	movlw	208
  3880     11AF  1283               	bcf	3,5	;RP0=0, select bank0
  3881     11B0  1303               	bcf	3,6	;RP1=0, select bank0
  3882     11B1  00AA               	movwf	I2C_Master_Write@d
  3883     11B2  3000               	movlw	0
  3884     11B3  00AB               	movwf	I2C_Master_Write@d+1
  3885     11B4  160A  158A  252C  160A  118A  	fcall	_I2C_Master_Write
  3886     11B9                     l3285:
  3887                           
  3888                           ;main_master.c: 186:     I2C_Master_Write(address);
  3889     11B9  1283               	bcf	3,5	;RP0=0, select bank0
  3890     11BA  1303               	bcf	3,6	;RP1=0, select bank0
  3891     11BB  082E               	movf	Read@address,w
  3892     11BC  00AC               	movwf	??_Read
  3893     11BD  01AD               	clrf	??_Read+1
  3894     11BE  082C               	movf	??_Read,w
  3895     11BF  00AA               	movwf	I2C_Master_Write@d
  3896     11C0  082D               	movf	??_Read+1,w
  3897     11C1  00AB               	movwf	I2C_Master_Write@d+1
  3898     11C2  160A  158A  252C  160A  118A  	fcall	_I2C_Master_Write
  3899     11C7                     l3287:
  3900                           
  3901                           ;main_master.c: 187:     I2C_Master_RepeatedStart();
  3902     11C7  160A  158A  2573  160A  118A  	fcall	_I2C_Master_RepeatedStart
  3903     11CC                     l3289:
  3904                           
  3905                           ;main_master.c: 188:     I2C_Master_Write(0xD1);
  3906     11CC  30D1               	movlw	209
  3907     11CD  1283               	bcf	3,5	;RP0=0, select bank0
  3908     11CE  1303               	bcf	3,6	;RP1=0, select bank0
  3909     11CF  00AA               	movwf	I2C_Master_Write@d
  3910     11D0  3000               	movlw	0
  3911     11D1  00AB               	movwf	I2C_Master_Write@d+1
  3912     11D2  160A  158A  252C  160A  118A  	fcall	_I2C_Master_Write
  3913     11D7                     l3291:
  3914                           
  3915                           ;main_master.c: 189:     dato = I2C_Master_Read(0);
  3916     11D7  3000               	movlw	0
  3917     11D8  1283               	bcf	3,5	;RP0=0, select bank0
  3918     11D9  1303               	bcf	3,6	;RP1=0, select bank0
  3919     11DA  00A0               	movwf	I2C_Master_Read@a
  3920     11DB  00A1               	movwf	I2C_Master_Read@a+1
  3921     11DC  160A  158A  2621  160A  118A  	fcall	_I2C_Master_Read
  3922     11E1  1283               	bcf	3,5	;RP0=0, select bank0
  3923     11E2  1303               	bcf	3,6	;RP1=0, select bank0
  3924     11E3  0820               	movf	?_I2C_Master_Read,w
  3925     11E4  00AF               	movwf	Read@dato
  3926     11E5                     l3293:
  3927                           
  3928                           ;main_master.c: 190:     I2C_Nack();
  3929     11E5  160A  158A  2536  160A  118A  	fcall	_I2C_Nack
  3930     11EA                     l3295:
  3931                           
  3932                           ;main_master.c: 191:     I2C_Master_Stop();
  3933     11EA  160A  158A  2523  160A  118A  	fcall	_I2C_Master_Stop
  3934     11EF                     l3297:
  3935                           
  3936                           ;main_master.c: 192:     _delay((unsigned long)((10)*(8000000/4000000.0)));
  3937     11EF  3005               	movlw	5
  3938     11F0  1283               	bcf	3,5	;RP0=0, select bank0
  3939     11F1  1303               	bcf	3,6	;RP1=0, select bank0
  3940     11F2  00AC               	movwf	??_Read
  3941     11F3                     u4837:
  3942     11F3  0BAC               	decfsz	??_Read,f
  3943     11F4  29F3               	goto	u4837
  3944     11F5  29F6               	nop2
  3945     11F6                     l3299:
  3946                           
  3947                           ;main_master.c: 193:     return dato;
  3948     11F6  1283               	bcf	3,5	;RP0=0, select bank0
  3949     11F7  1303               	bcf	3,6	;RP1=0, select bank0
  3950     11F8  082F               	movf	Read@dato,w
  3951     11F9                     l171:
  3952     11F9  0008               	return
  3953     11FA                     __end_of_Read:
  3954                           
  3955                           	psect	text17
  3956     1003                     __ptext17:	
  3957 ;; *************** function _Bcd_to_Dec *****************
  3958 ;; Defined at:
  3959 ;;		line 242 in file "main_master.c"
  3960 ;; Parameters:    Size  Location     Type
  3961 ;;  bcd             1    wreg     unsigned char 
  3962 ;; Auto vars:     Size  Location     Type
  3963 ;;  bcd             1    7[BANK0 ] unsigned char 
  3964 ;;  dec             1    6[BANK0 ] unsigned char 
  3965 ;; Return value:  Size  Location     Type
  3966 ;;                  1    wreg      unsigned char 
  3967 ;; Registers used:
  3968 ;;		wreg, status,2, status,0, pclath, cstack
  3969 ;; Tracked objects:
  3970 ;;		On entry : 0/0
  3971 ;;		On exit  : 0/0
  3972 ;;		Unchanged: 0/0
  3973 ;; Data sizes:     COMMON   BANK0   BANK1   BANK3   BANK2
  3974 ;;      Params:         0       0       0       0       0
  3975 ;;      Locals:         0       2       0       0       0
  3976 ;;      Temps:          0       2       0       0       0
  3977 ;;      Totals:         0       4       0       0       0
  3978 ;;Total ram usage:        4 bytes
  3979 ;; Hardware stack levels used: 1
  3980 ;; Hardware stack levels required when called: 5
  3981 ;; This function calls:
  3982 ;;		___bmul
  3983 ;; This function is called by:
  3984 ;;		_Read_Time
  3985 ;; This function uses a non-reentrant model
  3986 ;;
  3987                           
  3988     1003                     _Bcd_to_Dec:	
  3989                           ;psect for function _Bcd_to_Dec
  3990                           
  3991                           
  3992                           ;incstack = 0
  3993                           ; Regs used in _Bcd_to_Dec: [wreg+status,2+status,0+pclath+cstack]
  3994                           ;Bcd_to_Dec@bcd stored from wreg
  3995     1003  1283               	bcf	3,5	;RP0=0, select bank0
  3996     1004  1303               	bcf	3,6	;RP1=0, select bank0
  3997     1005  00A7               	movwf	Bcd_to_Dec@bcd
  3998     1006                     l3303:
  3999                           
  4000                           ;main_master.c: 243:     uint8_t dec;;main_master.c: 244:     dec = ((bcd>>4)*10)+(bcd &
      +                           0b00001111);
  4001     1006  300F               	movlw	15
  4002     1007  0527               	andwf	Bcd_to_Dec@bcd,w
  4003     1008  00A4               	movwf	??_Bcd_to_Dec
  4004     1009  300A               	movlw	10
  4005     100A  00A0               	movwf	___bmul@multiplicand
  4006     100B  0827               	movf	Bcd_to_Dec@bcd,w
  4007     100C  00A5               	movwf	??_Bcd_to_Dec+1
  4008     100D  3004               	movlw	4
  4009     100E                     u4285:
  4010     100E  1003               	clrc
  4011     100F  0CA5               	rrf	??_Bcd_to_Dec+1,f
  4012     1010  3EFF               	addlw	-1
  4013     1011  1D03               	skipz
  4014     1012  280E               	goto	u4285
  4015     1013  0825               	movf	??_Bcd_to_Dec+1,w
  4016     1014  160A  158A  25AC  160A  118A  	fcall	___bmul
  4017     1019  1283               	bcf	3,5	;RP0=0, select bank0
  4018     101A  1303               	bcf	3,6	;RP1=0, select bank0
  4019     101B  0724               	addwf	??_Bcd_to_Dec,w
  4020     101C  00A6               	movwf	Bcd_to_Dec@dec
  4021     101D                     l3305:
  4022                           
  4023                           ;main_master.c: 245:     return dec;
  4024     101D  0826               	movf	Bcd_to_Dec@dec,w
  4025     101E                     l194:
  4026     101E  0008               	return
  4027     101F                     __end_of_Bcd_to_Dec:
  4028                           
  4029                           	psect	text18
  4030     1DAC                     __ptext18:	
  4031 ;; *************** function ___bmul *****************
  4032 ;; Defined at:
  4033 ;;		line 4 in file "C:\Program Files\Microchip\xc8\v2.40\pic\sources\c90\common\Umul8.c"
  4034 ;; Parameters:    Size  Location     Type
  4035 ;;  multiplier      1    wreg     unsigned char 
  4036 ;;  multiplicand    1    0[BANK0 ] unsigned char 
  4037 ;; Auto vars:     Size  Location     Type
  4038 ;;  multiplier      1    3[BANK0 ] unsigned char 
  4039 ;;  product         1    2[BANK0 ] unsigned char 
  4040 ;; Return value:  Size  Location     Type
  4041 ;;                  1    wreg      unsigned char 
  4042 ;; Registers used:
  4043 ;;		wreg, status,2, status,0
  4044 ;; Tracked objects:
  4045 ;;		On entry : 0/0
  4046 ;;		On exit  : 0/0
  4047 ;;		Unchanged: 0/0
  4048 ;; Data sizes:     COMMON   BANK0   BANK1   BANK3   BANK2
  4049 ;;      Params:         0       1       0       0       0
  4050 ;;      Locals:         0       2       0       0       0
  4051 ;;      Temps:          0       1       0       0       0
  4052 ;;      Totals:         0       4       0       0       0
  4053 ;;Total ram usage:        4 bytes
  4054 ;; Hardware stack levels used: 1
  4055 ;; Hardware stack levels required when called: 4
  4056 ;; This function calls:
  4057 ;;		Nothing
  4058 ;; This function is called by:
  4059 ;;		_Bcd_to_Dec
  4060 ;; This function uses a non-reentrant model
  4061 ;;
  4062                           
  4063     1DAC                     ___bmul:	
  4064                           ;psect for function ___bmul
  4065                           
  4066                           
  4067                           ;incstack = 0
  4068                           ; Regs used in ___bmul: [wreg+status,2+status,0]
  4069                           ;___bmul@multiplier stored from wreg
  4070     1DAC  1283               	bcf	3,5	;RP0=0, select bank0
  4071     1DAD  1303               	bcf	3,6	;RP1=0, select bank0
  4072     1DAE  00A3               	movwf	___bmul@multiplier
  4073     1DAF                     l2705:
  4074     1DAF  01A2               	clrf	___bmul@product
  4075     1DB0                     l2707:
  4076     1DB0  1C23               	btfss	___bmul@multiplier,0
  4077     1DB1  2DB3               	goto	u2981
  4078     1DB2  2DB4               	goto	u2980
  4079     1DB3                     u2981:
  4080     1DB3  2DB8               	goto	l2711
  4081     1DB4                     u2980:
  4082     1DB4                     l2709:
  4083     1DB4  0820               	movf	___bmul@multiplicand,w
  4084     1DB5  00A1               	movwf	??___bmul
  4085     1DB6  0821               	movf	??___bmul,w
  4086     1DB7  07A2               	addwf	___bmul@product,f
  4087     1DB8                     l2711:
  4088     1DB8  1003               	clrc
  4089     1DB9  0DA0               	rlf	___bmul@multiplicand,f
  4090     1DBA                     l2713:
  4091     1DBA  1003               	clrc
  4092     1DBB  0CA3               	rrf	___bmul@multiplier,f
  4093     1DBC  0823               	movf	___bmul@multiplier,w
  4094     1DBD  1D03               	btfss	3,2
  4095     1DBE  2DC0               	goto	u2991
  4096     1DBF  2DC1               	goto	u2990
  4097     1DC0                     u2991:
  4098     1DC0  2DB0               	goto	l2707
  4099     1DC1                     u2990:
  4100     1DC1                     l2715:
  4101     1DC1  0822               	movf	___bmul@product,w
  4102     1DC2                     l494:
  4103     1DC2  0008               	return
  4104     1DC3                     __end_of___bmul:
  4105                           
  4106                           	psect	text19
  4107     130C                     __ptext19:	
  4108 ;; *************** function _Lcd_Init *****************
  4109 ;; Defined at:
  4110 ;;		line 65 in file "LCD.c"
  4111 ;; Parameters:    Size  Location     Type
  4112 ;;		None
  4113 ;; Auto vars:     Size  Location     Type
  4114 ;;		None
  4115 ;; Return value:  Size  Location     Type
  4116 ;;                  1    wreg      void 
  4117 ;; Registers used:
  4118 ;;		wreg, status,2, status,0, pclath, cstack
  4119 ;; Tracked objects:
  4120 ;;		On entry : 0/0
  4121 ;;		On exit  : 0/0
  4122 ;;		Unchanged: 0/0
  4123 ;; Data sizes:     COMMON   BANK0   BANK1   BANK3   BANK2
  4124 ;;      Params:         0       0       0       0       0
  4125 ;;      Locals:         0       0       0       0       0
  4126 ;;      Temps:          0       2       0       0       0
  4127 ;;      Totals:         0       2       0       0       0
  4128 ;;Total ram usage:        2 bytes
  4129 ;; Hardware stack levels used: 1
  4130 ;; Hardware stack levels required when called: 6
  4131 ;; This function calls:
  4132 ;;		_Lcd_Cmd
  4133 ;;		_Lcd_Port
  4134 ;; This function is called by:
  4135 ;;		_main
  4136 ;; This function uses a non-reentrant model
  4137 ;;
  4138                           
  4139     130C                     _Lcd_Init:	
  4140                           ;psect for function _Lcd_Init
  4141                           
  4142     130C                     l3459:	
  4143                           ;incstack = 0
  4144                           ; Regs used in _Lcd_Init: [wreg+status,2+status,0+pclath+cstack]
  4145                           
  4146                           
  4147                           ;LCD.c: 66:     Lcd_Port(0x00);
  4148     130C  3000               	movlw	0
  4149     130D  160A  158A  25DF  160A  118A  	fcall	_Lcd_Port
  4150     1312                     l3461:
  4151                           
  4152                           ;LCD.c: 67:     _delay((unsigned long)((20)*(8000000/4000.0)));
  4153     1312  3034               	movlw	52
  4154     1313  1283               	bcf	3,5	;RP0=0, select bank0
  4155     1314  1303               	bcf	3,6	;RP1=0, select bank0
  4156     1315  00A5               	movwf	??_Lcd_Init+1
  4157     1316  30F1               	movlw	241
  4158     1317  00A4               	movwf	??_Lcd_Init
  4159     1318                     u4847:
  4160     1318  0BA4               	decfsz	??_Lcd_Init,f
  4161     1319  2B18               	goto	u4847
  4162     131A  0BA5               	decfsz	??_Lcd_Init+1,f
  4163     131B  2B18               	goto	u4847
  4164     131C                     l3463:
  4165                           
  4166                           ;LCD.c: 68:     Lcd_Cmd(0x03);
  4167     131C  3003               	movlw	3
  4168     131D  160A  158A  25C3  160A  118A  	fcall	_Lcd_Cmd
  4169                           
  4170                           ;LCD.c: 69:     _delay((unsigned long)((5)*(8000000/4000.0)));
  4171     1322  300D               	movlw	13
  4172     1323  1283               	bcf	3,5	;RP0=0, select bank0
  4173     1324  1303               	bcf	3,6	;RP1=0, select bank0
  4174     1325  00A5               	movwf	??_Lcd_Init+1
  4175     1326  30FB               	movlw	251
  4176     1327  00A4               	movwf	??_Lcd_Init
  4177     1328                     u4857:
  4178     1328  0BA4               	decfsz	??_Lcd_Init,f
  4179     1329  2B28               	goto	u4857
  4180     132A  0BA5               	decfsz	??_Lcd_Init+1,f
  4181     132B  2B28               	goto	u4857
  4182     132C                     l3465:
  4183                           
  4184                           ;LCD.c: 70:     Lcd_Cmd(0x03);
  4185     132C  3003               	movlw	3
  4186     132D  160A  158A  25C3  160A  118A  	fcall	_Lcd_Cmd
  4187     1332                     l3467:
  4188                           
  4189                           ;LCD.c: 71:     _delay((unsigned long)((200)*(8000000/4000000.0)));
  4190     1332  3084               	movlw	132
  4191     1333  1283               	bcf	3,5	;RP0=0, select bank0
  4192     1334  1303               	bcf	3,6	;RP1=0, select bank0
  4193     1335  00A4               	movwf	??_Lcd_Init
  4194     1336                     u4867:
  4195     1336  0BA4               	decfsz	??_Lcd_Init,f
  4196     1337  2B36               	goto	u4867
  4197     1338  0000               	nop
  4198                           
  4199                           ;LCD.c: 72:     Lcd_Cmd(0x03);
  4200     1339  3003               	movlw	3
  4201     133A  160A  158A  25C3  160A  118A  	fcall	_Lcd_Cmd
  4202                           
  4203                           ;LCD.c: 73:     Lcd_Cmd(0x02);
  4204     133F  3002               	movlw	2
  4205     1340  160A  158A  25C3  160A  118A  	fcall	_Lcd_Cmd
  4206                           
  4207                           ;LCD.c: 74:     Lcd_Cmd(0x02);
  4208     1345  3002               	movlw	2
  4209     1346  160A  158A  25C3  160A  118A  	fcall	_Lcd_Cmd
  4210                           
  4211                           ;LCD.c: 75:     Lcd_Cmd(0x08);
  4212     134B  3008               	movlw	8
  4213     134C  160A  158A  25C3  160A  118A  	fcall	_Lcd_Cmd
  4214                           
  4215                           ;LCD.c: 76:     Lcd_Cmd(0x00);
  4216     1351  3000               	movlw	0
  4217     1352  160A  158A  25C3  160A  118A  	fcall	_Lcd_Cmd
  4218                           
  4219                           ;LCD.c: 77:     Lcd_Cmd(0x0C);
  4220     1357  300C               	movlw	12
  4221     1358  160A  158A  25C3  160A  118A  	fcall	_Lcd_Cmd
  4222                           
  4223                           ;LCD.c: 78:     Lcd_Cmd(0x00);
  4224     135D  3000               	movlw	0
  4225     135E  160A  158A  25C3  160A  118A  	fcall	_Lcd_Cmd
  4226                           
  4227                           ;LCD.c: 79:     Lcd_Cmd(0x06);
  4228     1363  3006               	movlw	6
  4229     1364  160A  158A  25C3  160A  118A  	fcall	_Lcd_Cmd
  4230     1369                     l3469:
  4231                           
  4232                           ;LCD.c: 80:  _delay((unsigned long)((100)*(8000000/4000000.0)));
  4233     1369  3041               	movlw	65
  4234     136A  1283               	bcf	3,5	;RP0=0, select bank0
  4235     136B  1303               	bcf	3,6	;RP1=0, select bank0
  4236     136C  00A4               	movwf	??_Lcd_Init
  4237     136D                     u4877:
  4238     136D  0BA4               	decfsz	??_Lcd_Init,f
  4239     136E  2B6D               	goto	u4877
  4240     136F  2B70               	nop2
  4241     1370                     l251:
  4242     1370  0008               	return
  4243     1371                     __end_of_Lcd_Init:
  4244                           
  4245                           	psect	text20
  4246     077B                     __ptext20:	
  4247 ;; *************** function _ESP32_Write *****************
  4248 ;; Defined at:
  4249 ;;		line 364 in file "main_master.c"
  4250 ;; Parameters:    Size  Location     Type
  4251 ;;		None
  4252 ;; Auto vars:     Size  Location     Type
  4253 ;;		None
  4254 ;; Return value:  Size  Location     Type
  4255 ;;                  1    wreg      void 
  4256 ;; Registers used:
  4257 ;;		wreg, status,2, status,0, pclath, cstack
  4258 ;; Tracked objects:
  4259 ;;		On entry : 0/0
  4260 ;;		On exit  : 0/0
  4261 ;;		Unchanged: 0/0
  4262 ;; Data sizes:     COMMON   BANK0   BANK1   BANK3   BANK2
  4263 ;;      Params:         0       0       0       0       0
  4264 ;;      Locals:         0       0       0       0       0
  4265 ;;      Temps:          0       2       0       0       0
  4266 ;;      Totals:         0       2       0       0       0
  4267 ;;Total ram usage:        2 bytes
  4268 ;; Hardware stack levels used: 1
  4269 ;; Hardware stack levels required when called: 6
  4270 ;; This function calls:
  4271 ;;		_I2C_Master_Start
  4272 ;;		_I2C_Master_Stop
  4273 ;;		_I2C_Master_Write
  4274 ;;		___fltol
  4275 ;; This function is called by:
  4276 ;;		_main
  4277 ;; This function uses a non-reentrant model
  4278 ;;
  4279                           
  4280     077B                     _ESP32_Write:	
  4281                           ;psect for function _ESP32_Write
  4282                           
  4283     077B                     l3579:	
  4284                           ;incstack = 0
  4285                           ; Regs used in _ESP32_Write: [wreg+status,2+status,0+pclath+cstack]
  4286                           
  4287                           
  4288                           ;main_master.c: 365:     I2C_Master_Start();
  4289     077B  160A  158A  251A  120A  118A  	fcall	_I2C_Master_Start
  4290                           
  4291                           ;main_master.c: 366:     I2C_Master_Write(0x60);
  4292     0780  3060               	movlw	96
  4293     0781  1283               	bcf	3,5	;RP0=0, select bank0
  4294     0782  1303               	bcf	3,6	;RP1=0, select bank0
  4295     0783  00AA               	movwf	I2C_Master_Write@d
  4296     0784  3000               	movlw	0
  4297     0785  00AB               	movwf	I2C_Master_Write@d+1
  4298     0786  160A  158A  252C  120A  118A  	fcall	_I2C_Master_Write
  4299                           
  4300                           ;main_master.c: 367:     I2C_Master_Write(distancia);
  4301     078B  1683               	bsf	3,5	;RP0=1, select bank1
  4302     078C  1303               	bcf	3,6	;RP1=0, select bank1
  4303     078D  0855               	movf	(_distancia+3)^(0+128),w
  4304     078E  1283               	bcf	3,5	;RP0=0, select bank0
  4305     078F  1303               	bcf	3,6	;RP1=0, select bank0
  4306     0790  00A3               	movwf	___fltol@f1+3
  4307     0791  1683               	bsf	3,5	;RP0=1, select bank1
  4308     0792  1303               	bcf	3,6	;RP1=0, select bank1
  4309     0793  0854               	movf	(_distancia+2)^(0+128),w
  4310     0794  1283               	bcf	3,5	;RP0=0, select bank0
  4311     0795  1303               	bcf	3,6	;RP1=0, select bank0
  4312     0796  00A2               	movwf	___fltol@f1+2
  4313     0797  1683               	bsf	3,5	;RP0=1, select bank1
  4314     0798  1303               	bcf	3,6	;RP1=0, select bank1
  4315     0799  0853               	movf	(_distancia+1)^(0+128),w
  4316     079A  1283               	bcf	3,5	;RP0=0, select bank0
  4317     079B  1303               	bcf	3,6	;RP1=0, select bank0
  4318     079C  00A1               	movwf	___fltol@f1+1
  4319     079D  1683               	bsf	3,5	;RP0=1, select bank1
  4320     079E  1303               	bcf	3,6	;RP1=0, select bank1
  4321     079F  0852               	movf	_distancia^(0+128),w
  4322     07A0  1283               	bcf	3,5	;RP0=0, select bank0
  4323     07A1  1303               	bcf	3,6	;RP1=0, select bank0
  4324     07A2  00A0               	movwf	___fltol@f1
  4325     07A3  160A  118A  2448  120A  118A  	fcall	___fltol
  4326     07A8  1283               	bcf	3,5	;RP0=0, select bank0
  4327     07A9  1303               	bcf	3,6	;RP1=0, select bank0
  4328     07AA  0821               	movf	?___fltol+1,w
  4329     07AB  00AB               	movwf	I2C_Master_Write@d+1
  4330     07AC  0820               	movf	?___fltol,w
  4331     07AD  00AA               	movwf	I2C_Master_Write@d
  4332     07AE  160A  158A  252C  120A  118A  	fcall	_I2C_Master_Write
  4333                           
  4334                           ;main_master.c: 368:     I2C_Master_Write(cont);
  4335     07B3  1683               	bsf	3,5	;RP0=1, select bank1
  4336     07B4  1303               	bcf	3,6	;RP1=0, select bank1
  4337     07B5  0857               	movf	_cont^(0+128),w
  4338     07B6  1283               	bcf	3,5	;RP0=0, select bank0
  4339     07B7  1303               	bcf	3,6	;RP1=0, select bank0
  4340     07B8  00AC               	movwf	??_ESP32_Write
  4341     07B9  01AD               	clrf	??_ESP32_Write+1
  4342     07BA  082C               	movf	??_ESP32_Write,w
  4343     07BB  00AA               	movwf	I2C_Master_Write@d
  4344     07BC  082D               	movf	??_ESP32_Write+1,w
  4345     07BD  00AB               	movwf	I2C_Master_Write@d+1
  4346     07BE  160A  158A  252C  120A  118A  	fcall	_I2C_Master_Write
  4347                           
  4348                           ;main_master.c: 369:     I2C_Master_Write(temperatura);
  4349     07C3  1683               	bsf	3,5	;RP0=1, select bank1
  4350     07C4  1303               	bcf	3,6	;RP1=0, select bank1
  4351     07C5  0851               	movf	(_temperatura+3)^(0+128),w
  4352     07C6  1283               	bcf	3,5	;RP0=0, select bank0
  4353     07C7  1303               	bcf	3,6	;RP1=0, select bank0
  4354     07C8  00A3               	movwf	___fltol@f1+3
  4355     07C9  1683               	bsf	3,5	;RP0=1, select bank1
  4356     07CA  1303               	bcf	3,6	;RP1=0, select bank1
  4357     07CB  0850               	movf	(_temperatura+2)^(0+128),w
  4358     07CC  1283               	bcf	3,5	;RP0=0, select bank0
  4359     07CD  1303               	bcf	3,6	;RP1=0, select bank0
  4360     07CE  00A2               	movwf	___fltol@f1+2
  4361     07CF  1683               	bsf	3,5	;RP0=1, select bank1
  4362     07D0  1303               	bcf	3,6	;RP1=0, select bank1
  4363     07D1  084F               	movf	(_temperatura+1)^(0+128),w
  4364     07D2  1283               	bcf	3,5	;RP0=0, select bank0
  4365     07D3  1303               	bcf	3,6	;RP1=0, select bank0
  4366     07D4  00A1               	movwf	___fltol@f1+1
  4367     07D5  1683               	bsf	3,5	;RP0=1, select bank1
  4368     07D6  1303               	bcf	3,6	;RP1=0, select bank1
  4369     07D7  084E               	movf	_temperatura^(0+128),w
  4370     07D8  1283               	bcf	3,5	;RP0=0, select bank0
  4371     07D9  1303               	bcf	3,6	;RP1=0, select bank0
  4372     07DA  00A0               	movwf	___fltol@f1
  4373     07DB  160A  118A  2448  120A  118A  	fcall	___fltol
  4374     07E0  1283               	bcf	3,5	;RP0=0, select bank0
  4375     07E1  1303               	bcf	3,6	;RP1=0, select bank0
  4376     07E2  0821               	movf	?___fltol+1,w
  4377     07E3  00AB               	movwf	I2C_Master_Write@d+1
  4378     07E4  0820               	movf	?___fltol,w
  4379     07E5  00AA               	movwf	I2C_Master_Write@d
  4380     07E6  160A  158A  252C  120A  118A  	fcall	_I2C_Master_Write
  4381                           
  4382                           ;main_master.c: 370:     I2C_Master_Stop();
  4383     07EB  160A  158A  2523  120A  118A  	fcall	_I2C_Master_Stop
  4384     07F0                     l3581:
  4385                           
  4386                           ;main_master.c: 371:     _delay((unsigned long)((10)*(8000000/4000.0)));
  4387     07F0  301A               	movlw	26
  4388     07F1  1283               	bcf	3,5	;RP0=0, select bank0
  4389     07F2  1303               	bcf	3,6	;RP1=0, select bank0
  4390     07F3  00AD               	movwf	??_ESP32_Write+1
  4391     07F4  30F7               	movlw	247
  4392     07F5  00AC               	movwf	??_ESP32_Write
  4393     07F6                     u4887:
  4394     07F6  0BAC               	decfsz	??_ESP32_Write,f
  4395     07F7  2FF6               	goto	u4887
  4396     07F8  0BAD               	decfsz	??_ESP32_Write+1,f
  4397     07F9  2FF6               	goto	u4887
  4398     07FA  2FFB               	nop2
  4399     07FB                     l219:
  4400     07FB  0008               	return
  4401     07FC                     __end_of_ESP32_Write:
  4402                           
  4403                           	psect	text21
  4404     1F1F                     __ptext21:	
  4405 ;; *************** function _AHT10_Soft_Reset *****************
  4406 ;; Defined at:
  4407 ;;		line 320 in file "main_master.c"
  4408 ;; Parameters:    Size  Location     Type
  4409 ;;		None
  4410 ;; Auto vars:     Size  Location     Type
  4411 ;;		None
  4412 ;; Return value:  Size  Location     Type
  4413 ;;                  1    wreg      void 
  4414 ;; Registers used:
  4415 ;;		wreg, status,2, status,0, pclath, cstack
  4416 ;; Tracked objects:
  4417 ;;		On entry : 0/0
  4418 ;;		On exit  : 0/0
  4419 ;;		Unchanged: 0/0
  4420 ;; Data sizes:     COMMON   BANK0   BANK1   BANK3   BANK2
  4421 ;;      Params:         0       0       0       0       0
  4422 ;;      Locals:         0       0       0       0       0
  4423 ;;      Temps:          0       2       0       0       0
  4424 ;;      Totals:         0       2       0       0       0
  4425 ;;Total ram usage:        2 bytes
  4426 ;; Hardware stack levels used: 1
  4427 ;; Hardware stack levels required when called: 6
  4428 ;; This function calls:
  4429 ;;		_I2C_Master_Start
  4430 ;;		_I2C_Master_Stop
  4431 ;;		_I2C_Master_Write
  4432 ;; This function is called by:
  4433 ;;		_main
  4434 ;; This function uses a non-reentrant model
  4435 ;;
  4436                           
  4437     1F1F                     _AHT10_Soft_Reset:	
  4438                           ;psect for function _AHT10_Soft_Reset
  4439                           
  4440     1F1F                     l3471:	
  4441                           ;incstack = 0
  4442                           ; Regs used in _AHT10_Soft_Reset: [wreg+status,2+status,0+pclath+cstack]
  4443                           
  4444                           
  4445                           ;main_master.c: 321:     _delay((unsigned long)((40)*(8000000/4000.0)));
  4446     1F1F  3068               	movlw	104
  4447     1F20  1283               	bcf	3,5	;RP0=0, select bank0
  4448     1F21  1303               	bcf	3,6	;RP1=0, select bank0
  4449     1F22  00AD               	movwf	??_AHT10_Soft_Reset+1
  4450     1F23  30E3               	movlw	227
  4451     1F24  00AC               	movwf	??_AHT10_Soft_Reset
  4452     1F25                     u4897:
  4453     1F25  0BAC               	decfsz	??_AHT10_Soft_Reset,f
  4454     1F26  2F25               	goto	u4897
  4455     1F27  0BAD               	decfsz	??_AHT10_Soft_Reset+1,f
  4456     1F28  2F25               	goto	u4897
  4457     1F29  2F2A               	nop2
  4458     1F2A                     l3473:
  4459                           
  4460                           ;main_master.c: 322:     I2C_Master_Start();
  4461     1F2A  160A  158A  251A  160A  158A  	fcall	_I2C_Master_Start
  4462     1F2F                     l3475:
  4463                           
  4464                           ;main_master.c: 323:     I2C_Master_Write(0x70);
  4465     1F2F  3070               	movlw	112
  4466     1F30  1283               	bcf	3,5	;RP0=0, select bank0
  4467     1F31  1303               	bcf	3,6	;RP1=0, select bank0
  4468     1F32  00AA               	movwf	I2C_Master_Write@d
  4469     1F33  3000               	movlw	0
  4470     1F34  00AB               	movwf	I2C_Master_Write@d+1
  4471     1F35  160A  158A  252C  160A  158A  	fcall	_I2C_Master_Write
  4472     1F3A                     l3477:
  4473                           
  4474                           ;main_master.c: 324:     I2C_Master_Write(0xBA);
  4475     1F3A  30BA               	movlw	186
  4476     1F3B  1283               	bcf	3,5	;RP0=0, select bank0
  4477     1F3C  1303               	bcf	3,6	;RP1=0, select bank0
  4478     1F3D  00AA               	movwf	I2C_Master_Write@d
  4479     1F3E  3000               	movlw	0
  4480     1F3F  00AB               	movwf	I2C_Master_Write@d+1
  4481     1F40  160A  158A  252C  160A  158A  	fcall	_I2C_Master_Write
  4482     1F45                     l3479:
  4483                           
  4484                           ;main_master.c: 325:     I2C_Master_Stop();
  4485     1F45  160A  158A  2523  160A  158A  	fcall	_I2C_Master_Stop
  4486                           
  4487                           ;main_master.c: 326:     _delay((unsigned long)((25)*(8000000/4000.0)));
  4488     1F4A  3041               	movlw	65
  4489     1F4B  1283               	bcf	3,5	;RP0=0, select bank0
  4490     1F4C  1303               	bcf	3,6	;RP1=0, select bank0
  4491     1F4D  00AD               	movwf	??_AHT10_Soft_Reset+1
  4492     1F4E  30ED               	movlw	237
  4493     1F4F  00AC               	movwf	??_AHT10_Soft_Reset
  4494     1F50                     u4907:
  4495     1F50  0BAC               	decfsz	??_AHT10_Soft_Reset,f
  4496     1F51  2F50               	goto	u4907
  4497     1F52  0BAD               	decfsz	??_AHT10_Soft_Reset+1,f
  4498     1F53  2F50               	goto	u4907
  4499     1F54  2F55               	nop2
  4500     1F55                     l206:
  4501     1F55  0008               	return
  4502     1F56                     __end_of_AHT10_Soft_Reset:
  4503                           
  4504                           	psect	text22
  4505     0B74                     __ptext22:	
  4506 ;; *************** function _AHT10_Read *****************
  4507 ;; Defined at:
  4508 ;;		line 271 in file "main_master.c"
  4509 ;; Parameters:    Size  Location     Type
  4510 ;;		None
  4511 ;; Auto vars:     Size  Location     Type
  4512 ;;  data            7   33[BANK1 ] unsigned char [7]
  4513 ;;  r               1    0        unsigned char 
  4514 ;; Return value:  Size  Location     Type
  4515 ;;                  1    wreg      void 
  4516 ;; Registers used:
  4517 ;;		wreg, fsr0l, fsr0h, status,2, status,0, btemp+1, pclath, cstack
  4518 ;; Tracked objects:
  4519 ;;		On entry : 0/0
  4520 ;;		On exit  : 0/0
  4521 ;;		Unchanged: 0/0
  4522 ;; Data sizes:     COMMON   BANK0   BANK1   BANK3   BANK2
  4523 ;;      Params:         0       0       0       0       0
  4524 ;;      Locals:         0       0       7       0       0
  4525 ;;      Temps:          0       0      14       0       0
  4526 ;;      Totals:         0       0      21       0       0
  4527 ;;Total ram usage:       21 bytes
  4528 ;; Hardware stack levels used: 1
  4529 ;; Hardware stack levels required when called: 7
  4530 ;; This function calls:
  4531 ;;		_I2C_Ack
  4532 ;;		_I2C_Master_Read
  4533 ;;		_I2C_Master_RepeatedStart
  4534 ;;		_I2C_Master_Start
  4535 ;;		_I2C_Master_Stop
  4536 ;;		_I2C_Master_Write
  4537 ;;		_I2C_Nack
  4538 ;;		_Lcd_Set_Cursor
  4539 ;;		_Lcd_Write_String
  4540 ;;		___fladd
  4541 ;;		___fldiv
  4542 ;;		___flmul
  4543 ;;		___xxtofl
  4544 ;;		_floattostr
  4545 ;; This function is called by:
  4546 ;;		_main
  4547 ;; This function uses a non-reentrant model
  4548 ;;
  4549                           
  4550     0B74                     _AHT10_Read:	
  4551                           ;psect for function _AHT10_Read
  4552                           
  4553     0B74                     l3521:	
  4554                           ;incstack = 0
  4555                           ; Regs used in _AHT10_Read: [wreg-fsr0h+status,2+status,0+btemp+1+pclath+cstack]
  4556                           
  4557                           
  4558                           ;main_master.c: 272:     uint8_t data[7];;main_master.c: 273:     uint8_t r;;main_master
      +                          .c: 275:     I2C_Master_Start();
  4559     0B74  160A  158A  251A  120A  158A  	fcall	_I2C_Master_Start
  4560                           
  4561                           ;main_master.c: 276:     I2C_Master_Write(0x70);
  4562     0B79  3070               	movlw	112
  4563     0B7A  1283               	bcf	3,5	;RP0=0, select bank0
  4564     0B7B  1303               	bcf	3,6	;RP1=0, select bank0
  4565     0B7C  00AA               	movwf	I2C_Master_Write@d
  4566     0B7D  3000               	movlw	0
  4567     0B7E  00AB               	movwf	I2C_Master_Write@d+1
  4568     0B7F  160A  158A  252C  120A  158A  	fcall	_I2C_Master_Write
  4569                           
  4570                           ;main_master.c: 277:     I2C_Master_Write(0xAC);
  4571     0B84  30AC               	movlw	172
  4572     0B85  1283               	bcf	3,5	;RP0=0, select bank0
  4573     0B86  1303               	bcf	3,6	;RP1=0, select bank0
  4574     0B87  00AA               	movwf	I2C_Master_Write@d
  4575     0B88  3000               	movlw	0
  4576     0B89  00AB               	movwf	I2C_Master_Write@d+1
  4577     0B8A  160A  158A  252C  120A  158A  	fcall	_I2C_Master_Write
  4578                           
  4579                           ;main_master.c: 278:     I2C_Master_Write(0x33);
  4580     0B8F  3033               	movlw	51
  4581     0B90  1283               	bcf	3,5	;RP0=0, select bank0
  4582     0B91  1303               	bcf	3,6	;RP1=0, select bank0
  4583     0B92  00AA               	movwf	I2C_Master_Write@d
  4584     0B93  3000               	movlw	0
  4585     0B94  00AB               	movwf	I2C_Master_Write@d+1
  4586     0B95  160A  158A  252C  120A  158A  	fcall	_I2C_Master_Write
  4587                           
  4588                           ;main_master.c: 279:     I2C_Master_Write(0x00);
  4589     0B9A  3000               	movlw	0
  4590     0B9B  1283               	bcf	3,5	;RP0=0, select bank0
  4591     0B9C  1303               	bcf	3,6	;RP1=0, select bank0
  4592     0B9D  00AA               	movwf	I2C_Master_Write@d
  4593     0B9E  00AB               	movwf	I2C_Master_Write@d+1
  4594     0B9F  160A  158A  252C  120A  158A  	fcall	_I2C_Master_Write
  4595                           
  4596                           ;main_master.c: 280:     I2C_Master_Stop();
  4597     0BA4  160A  158A  2523  120A  158A  	fcall	_I2C_Master_Stop
  4598     0BA9                     l3523:
  4599                           
  4600                           ;main_master.c: 281:     _delay((unsigned long)((80)*(8000000/4000.0)));
  4601     0BA9  30D0               	movlw	208
  4602     0BAA  1683               	bsf	3,5	;RP0=1, select bank1
  4603     0BAB  1303               	bcf	3,6	;RP1=0, select bank1
  4604     0BAC  00B4               	movwf	(??_AHT10_Read^(0+128)+1)
  4605     0BAD  30C9               	movlw	201
  4606     0BAE  00B3               	movwf	??_AHT10_Read^(0+128)
  4607     0BAF                     u4917:
  4608     0BAF  0BB3               	decfsz	??_AHT10_Read^(0+128),f
  4609     0BB0  2BAF               	goto	u4917
  4610     0BB1  0BB4               	decfsz	(??_AHT10_Read^(0+128)+1),f
  4611     0BB2  2BAF               	goto	u4917
  4612     0BB3                     l3525:
  4613                           
  4614                           ;main_master.c: 283:     I2C_Master_Start();
  4615     0BB3  160A  158A  251A  120A  158A  	fcall	_I2C_Master_Start
  4616     0BB8                     l3527:
  4617                           
  4618                           ;main_master.c: 284:     I2C_Master_Write(0x70);
  4619     0BB8  3070               	movlw	112
  4620     0BB9  1283               	bcf	3,5	;RP0=0, select bank0
  4621     0BBA  1303               	bcf	3,6	;RP1=0, select bank0
  4622     0BBB  00AA               	movwf	I2C_Master_Write@d
  4623     0BBC  3000               	movlw	0
  4624     0BBD  00AB               	movwf	I2C_Master_Write@d+1
  4625     0BBE  160A  158A  252C  120A  158A  	fcall	_I2C_Master_Write
  4626     0BC3                     l3529:
  4627                           
  4628                           ;main_master.c: 285:     I2C_Master_Write(0x71);
  4629     0BC3  3071               	movlw	113
  4630     0BC4  1283               	bcf	3,5	;RP0=0, select bank0
  4631     0BC5  1303               	bcf	3,6	;RP1=0, select bank0
  4632     0BC6  00AA               	movwf	I2C_Master_Write@d
  4633     0BC7  3000               	movlw	0
  4634     0BC8  00AB               	movwf	I2C_Master_Write@d+1
  4635     0BC9  160A  158A  252C  120A  158A  	fcall	_I2C_Master_Write
  4636     0BCE                     l3531:
  4637                           
  4638                           ;main_master.c: 286:     I2C_Master_RepeatedStart();
  4639     0BCE  160A  158A  2573  120A  158A  	fcall	_I2C_Master_RepeatedStart
  4640     0BD3                     l3533:
  4641                           
  4642                           ;main_master.c: 287:     I2C_Master_Write(0x71);
  4643     0BD3  3071               	movlw	113
  4644     0BD4  1283               	bcf	3,5	;RP0=0, select bank0
  4645     0BD5  1303               	bcf	3,6	;RP1=0, select bank0
  4646     0BD6  00AA               	movwf	I2C_Master_Write@d
  4647     0BD7  3000               	movlw	0
  4648     0BD8  00AB               	movwf	I2C_Master_Write@d+1
  4649     0BD9  160A  158A  252C  120A  158A  	fcall	_I2C_Master_Write
  4650     0BDE                     l3535:
  4651     0BDE  3000               	movlw	0
  4652     0BDF  1283               	bcf	3,5	;RP0=0, select bank0
  4653     0BE0  1303               	bcf	3,6	;RP1=0, select bank0
  4654     0BE1  00A0               	movwf	I2C_Master_Read@a
  4655     0BE2  00A1               	movwf	I2C_Master_Read@a+1
  4656     0BE3  160A  158A  2621  120A  158A  	fcall	_I2C_Master_Read
  4657                           
  4658                           ;main_master.c: 289:     I2C_Nack();
  4659     0BE8  160A  158A  2536  120A  158A  	fcall	_I2C_Nack
  4660     0BED                     l3537:
  4661                           
  4662                           ;main_master.c: 290:     I2C_Master_Stop();
  4663     0BED  160A  158A  2523  120A  158A  	fcall	_I2C_Master_Stop
  4664     0BF2                     l3539:
  4665     0BF2                     l3541:	
  4666                           ;main_master.c: 293:     while (r != 0b00000000);
  4667                           
  4668     0BF2                     l3543:
  4669                           
  4670                           ;main_master.c: 295:     I2C_Master_Start();
  4671     0BF2  160A  158A  251A  120A  158A  	fcall	_I2C_Master_Start
  4672                           
  4673                           ;main_master.c: 296:     I2C_Master_Write(0x71);
  4674     0BF7  3071               	movlw	113
  4675     0BF8  1283               	bcf	3,5	;RP0=0, select bank0
  4676     0BF9  1303               	bcf	3,6	;RP1=0, select bank0
  4677     0BFA  00AA               	movwf	I2C_Master_Write@d
  4678     0BFB  3000               	movlw	0
  4679     0BFC  00AB               	movwf	I2C_Master_Write@d+1
  4680     0BFD  160A  158A  252C  120A  158A  	fcall	_I2C_Master_Write
  4681                           
  4682                           ;main_master.c: 297:     data[0] = I2C_Master_Read(0);
  4683     0C02  3000               	movlw	0
  4684     0C03  1283               	bcf	3,5	;RP0=0, select bank0
  4685     0C04  1303               	bcf	3,6	;RP1=0, select bank0
  4686     0C05  00A0               	movwf	I2C_Master_Read@a
  4687     0C06  00A1               	movwf	I2C_Master_Read@a+1
  4688     0C07  160A  158A  2621  120A  158A  	fcall	_I2C_Master_Read
  4689     0C0C  1283               	bcf	3,5	;RP0=0, select bank0
  4690     0C0D  1303               	bcf	3,6	;RP1=0, select bank0
  4691     0C0E  0820               	movf	?_I2C_Master_Read,w
  4692     0C0F  1683               	bsf	3,5	;RP0=1, select bank1
  4693     0C10  1303               	bcf	3,6	;RP1=0, select bank1
  4694     0C11  00C1               	movwf	AHT10_Read@data^(0+128)
  4695     0C12                     l3545:
  4696                           
  4697                           ;main_master.c: 298:     I2C_Ack();
  4698     0C12  160A  158A  2541  120A  158A  	fcall	_I2C_Ack
  4699     0C17                     l3547:
  4700                           
  4701                           ;main_master.c: 299:     data[1] = I2C_Master_Read(0);
  4702     0C17  3000               	movlw	0
  4703     0C18  1283               	bcf	3,5	;RP0=0, select bank0
  4704     0C19  1303               	bcf	3,6	;RP1=0, select bank0
  4705     0C1A  00A0               	movwf	I2C_Master_Read@a
  4706     0C1B  00A1               	movwf	I2C_Master_Read@a+1
  4707     0C1C  160A  158A  2621  120A  158A  	fcall	_I2C_Master_Read
  4708     0C21  1283               	bcf	3,5	;RP0=0, select bank0
  4709     0C22  1303               	bcf	3,6	;RP1=0, select bank0
  4710     0C23  0820               	movf	?_I2C_Master_Read,w
  4711     0C24  1683               	bsf	3,5	;RP0=1, select bank1
  4712     0C25  1303               	bcf	3,6	;RP1=0, select bank1
  4713     0C26  00C2               	movwf	(AHT10_Read@data^(0+128)+1)
  4714                           
  4715                           ;main_master.c: 300:     I2C_Ack();
  4716     0C27  160A  158A  2541  120A  158A  	fcall	_I2C_Ack
  4717     0C2C                     l3549:
  4718                           
  4719                           ;main_master.c: 301:     data[2] = I2C_Master_Read(0);
  4720     0C2C  3000               	movlw	0
  4721     0C2D  1283               	bcf	3,5	;RP0=0, select bank0
  4722     0C2E  1303               	bcf	3,6	;RP1=0, select bank0
  4723     0C2F  00A0               	movwf	I2C_Master_Read@a
  4724     0C30  00A1               	movwf	I2C_Master_Read@a+1
  4725     0C31  160A  158A  2621  120A  158A  	fcall	_I2C_Master_Read
  4726     0C36  1283               	bcf	3,5	;RP0=0, select bank0
  4727     0C37  1303               	bcf	3,6	;RP1=0, select bank0
  4728     0C38  0820               	movf	?_I2C_Master_Read,w
  4729     0C39  1683               	bsf	3,5	;RP0=1, select bank1
  4730     0C3A  1303               	bcf	3,6	;RP1=0, select bank1
  4731     0C3B  00C3               	movwf	(AHT10_Read@data^(0+128)+2)
  4732     0C3C                     l3551:
  4733                           
  4734                           ;main_master.c: 302:     I2C_Ack();
  4735     0C3C  160A  158A  2541  120A  158A  	fcall	_I2C_Ack
  4736                           
  4737                           ;main_master.c: 303:     data[3] = I2C_Master_Read(0);
  4738     0C41  3000               	movlw	0
  4739     0C42  1283               	bcf	3,5	;RP0=0, select bank0
  4740     0C43  1303               	bcf	3,6	;RP1=0, select bank0
  4741     0C44  00A0               	movwf	I2C_Master_Read@a
  4742     0C45  00A1               	movwf	I2C_Master_Read@a+1
  4743     0C46  160A  158A  2621  120A  158A  	fcall	_I2C_Master_Read
  4744     0C4B  1283               	bcf	3,5	;RP0=0, select bank0
  4745     0C4C  1303               	bcf	3,6	;RP1=0, select bank0
  4746     0C4D  0820               	movf	?_I2C_Master_Read,w
  4747     0C4E  1683               	bsf	3,5	;RP0=1, select bank1
  4748     0C4F  1303               	bcf	3,6	;RP1=0, select bank1
  4749     0C50  00C4               	movwf	(AHT10_Read@data^(0+128)+3)
  4750     0C51                     l3553:
  4751                           
  4752                           ;main_master.c: 304:     I2C_Ack();
  4753     0C51  160A  158A  2541  120A  158A  	fcall	_I2C_Ack
  4754     0C56                     l3555:
  4755                           
  4756                           ;main_master.c: 305:     data[4] = I2C_Master_Read(0);
  4757     0C56  3000               	movlw	0
  4758     0C57  1283               	bcf	3,5	;RP0=0, select bank0
  4759     0C58  1303               	bcf	3,6	;RP1=0, select bank0
  4760     0C59  00A0               	movwf	I2C_Master_Read@a
  4761     0C5A  00A1               	movwf	I2C_Master_Read@a+1
  4762     0C5B  160A  158A  2621  120A  158A  	fcall	_I2C_Master_Read
  4763     0C60  1283               	bcf	3,5	;RP0=0, select bank0
  4764     0C61  1303               	bcf	3,6	;RP1=0, select bank0
  4765     0C62  0820               	movf	?_I2C_Master_Read,w
  4766     0C63  1683               	bsf	3,5	;RP0=1, select bank1
  4767     0C64  1303               	bcf	3,6	;RP1=0, select bank1
  4768     0C65  00C5               	movwf	(AHT10_Read@data^(0+128)+4)
  4769                           
  4770                           ;main_master.c: 306:     I2C_Ack();
  4771     0C66  160A  158A  2541  120A  158A  	fcall	_I2C_Ack
  4772     0C6B                     l3557:
  4773                           
  4774                           ;main_master.c: 307:     data[5] = I2C_Master_Read(0);
  4775     0C6B  3000               	movlw	0
  4776     0C6C  1283               	bcf	3,5	;RP0=0, select bank0
  4777     0C6D  1303               	bcf	3,6	;RP1=0, select bank0
  4778     0C6E  00A0               	movwf	I2C_Master_Read@a
  4779     0C6F  00A1               	movwf	I2C_Master_Read@a+1
  4780     0C70  160A  158A  2621  120A  158A  	fcall	_I2C_Master_Read
  4781     0C75  1283               	bcf	3,5	;RP0=0, select bank0
  4782     0C76  1303               	bcf	3,6	;RP1=0, select bank0
  4783     0C77  0820               	movf	?_I2C_Master_Read,w
  4784     0C78  1683               	bsf	3,5	;RP0=1, select bank1
  4785     0C79  1303               	bcf	3,6	;RP1=0, select bank1
  4786     0C7A  00C6               	movwf	(AHT10_Read@data^(0+128)+5)
  4787     0C7B                     l3559:
  4788                           
  4789                           ;main_master.c: 308:     I2C_Ack();
  4790     0C7B  160A  158A  2541  120A  158A  	fcall	_I2C_Ack
  4791                           
  4792                           ;main_master.c: 309:     data[6] = I2C_Master_Read(0);
  4793     0C80  3000               	movlw	0
  4794     0C81  1283               	bcf	3,5	;RP0=0, select bank0
  4795     0C82  1303               	bcf	3,6	;RP1=0, select bank0
  4796     0C83  00A0               	movwf	I2C_Master_Read@a
  4797     0C84  00A1               	movwf	I2C_Master_Read@a+1
  4798     0C85  160A  158A  2621  120A  158A  	fcall	_I2C_Master_Read
  4799     0C8A  1283               	bcf	3,5	;RP0=0, select bank0
  4800     0C8B  1303               	bcf	3,6	;RP1=0, select bank0
  4801     0C8C  0820               	movf	?_I2C_Master_Read,w
  4802     0C8D  1683               	bsf	3,5	;RP0=1, select bank1
  4803     0C8E  1303               	bcf	3,6	;RP1=0, select bank1
  4804     0C8F  00C7               	movwf	(AHT10_Read@data^(0+128)+6)
  4805     0C90                     l3561:
  4806                           
  4807                           ;main_master.c: 310:     I2C_Nack();
  4808     0C90  160A  158A  2536  120A  158A  	fcall	_I2C_Nack
  4809     0C95                     l3563:
  4810                           
  4811                           ;main_master.c: 311:     I2C_Master_Stop();
  4812     0C95  160A  158A  2523  120A  158A  	fcall	_I2C_Master_Stop
  4813     0C9A                     l3565:
  4814                           
  4815                           ;main_master.c: 313:  temperatura = (((uint32_t)data[3] & 0x0F) << 16) + ((uint16_t)data
      +                          [4] << 8) + data[5];
  4816     0C9A  1683               	bsf	3,5	;RP0=1, select bank1
  4817     0C9B  1303               	bcf	3,6	;RP1=0, select bank1
  4818     0C9C  0846               	movf	(AHT10_Read@data^(0+128)+5),w
  4819     0C9D  00B3               	movwf	??_AHT10_Read^(0+128)
  4820     0C9E  01B4               	clrf	(??_AHT10_Read^(0+128)+1)
  4821     0C9F  01B5               	clrf	(??_AHT10_Read^(0+128)+2)
  4822     0CA0  01B6               	clrf	(??_AHT10_Read^(0+128)+3)
  4823     0CA1  0845               	movf	(AHT10_Read@data^(0+128)+4),w
  4824     0CA2  00B7               	movwf	(??_AHT10_Read+4)^(0+128)
  4825     0CA3  01B8               	clrf	((??_AHT10_Read+4)^(0+128)+1)
  4826     0CA4  0837               	movf	(??_AHT10_Read+4)^(0+128),w
  4827     0CA5  00B8               	movwf	((??_AHT10_Read+4)^(0+128)+1)
  4828     0CA6  01B7               	clrf	(??_AHT10_Read+4)^(0+128)
  4829     0CA7  0837               	movf	(??_AHT10_Read+4)^(0+128),w
  4830     0CA8  00B9               	movwf	(??_AHT10_Read+6)^(0+128)
  4831     0CA9  0838               	movf	(??_AHT10_Read+5)^(0+128),w
  4832     0CAA  00BA               	movwf	((??_AHT10_Read+6)^(0+128)+1)
  4833     0CAB  01BB               	clrf	((??_AHT10_Read+6)^(0+128)+2)
  4834     0CAC  01BC               	clrf	((??_AHT10_Read+6)^(0+128)+3)
  4835     0CAD  0844               	movf	(AHT10_Read@data^(0+128)+3),w
  4836     0CAE  390F               	andlw	15
  4837     0CAF  00BD               	movwf	(??_AHT10_Read+10)^(0+128)
  4838     0CB0  01BE               	clrf	((??_AHT10_Read+10)^(0+128)+1)
  4839     0CB1  01BF               	clrf	((??_AHT10_Read+10)^(0+128)+2)
  4840     0CB2  01C0               	clrf	((??_AHT10_Read+10)^(0+128)+3)
  4841     0CB3  3010               	movlw	16
  4842     0CB4                     u4505:
  4843     0CB4  1003               	clrc
  4844     0CB5  0DBD               	rlf	(??_AHT10_Read+10)^(0+128),f
  4845     0CB6  0DBE               	rlf	((??_AHT10_Read+10)^(0+128)+1),f
  4846     0CB7  0DBF               	rlf	((??_AHT10_Read+10)^(0+128)+2),f
  4847     0CB8  0DC0               	rlf	((??_AHT10_Read+10)^(0+128)+3),f
  4848     0CB9                     u4500:
  4849     0CB9  3EFF               	addlw	-1
  4850     0CBA  1D03               	skipz
  4851     0CBB  2CB4               	goto	u4505
  4852     0CBC  083D               	movf	(??_AHT10_Read+10)^(0+128),w
  4853     0CBD  07B9               	addwf	(??_AHT10_Read+6)^(0+128),f
  4854     0CBE  083E               	movf	(??_AHT10_Read+11)^(0+128),w
  4855     0CBF  1803               	skipnc
  4856     0CC0  0F3E               	incfsz	(??_AHT10_Read+11)^(0+128),w
  4857     0CC1  2CC3               	goto	u4510
  4858     0CC2  2CC4               	goto	u4511
  4859     0CC3                     u4510:
  4860     0CC3  07BA               	addwf	((??_AHT10_Read+6)^(0+128)+1),f
  4861     0CC4                     u4511:
  4862     0CC4  083F               	movf	(??_AHT10_Read+12)^(0+128),w
  4863     0CC5  1803               	skipnc
  4864     0CC6  0F3F               	incfsz	(??_AHT10_Read+12)^(0+128),w
  4865     0CC7  2CC9               	goto	u4512
  4866     0CC8  2CCA               	goto	u4513
  4867     0CC9                     u4512:
  4868     0CC9  07BB               	addwf	((??_AHT10_Read+6)^(0+128)+2),f
  4869     0CCA                     u4513:
  4870     0CCA  0840               	movf	(??_AHT10_Read+13)^(0+128),w
  4871     0CCB  1803               	skipnc
  4872     0CCC  0A40               	incf	(??_AHT10_Read+13)^(0+128),w
  4873     0CCD  07BC               	addwf	((??_AHT10_Read+6)^(0+128)+3),f
  4874     0CCE  0839               	movf	(??_AHT10_Read+6)^(0+128),w
  4875     0CCF  07B3               	addwf	??_AHT10_Read^(0+128),f
  4876     0CD0  083A               	movf	(??_AHT10_Read+7)^(0+128),w
  4877     0CD1  1803               	skipnc
  4878     0CD2  0F3A               	incfsz	(??_AHT10_Read+7)^(0+128),w
  4879     0CD3  2CD5               	goto	u4520
  4880     0CD4  2CD6               	goto	u4521
  4881     0CD5                     u4520:
  4882     0CD5  07B4               	addwf	(??_AHT10_Read^(0+128)+1),f
  4883     0CD6                     u4521:
  4884     0CD6  083B               	movf	(??_AHT10_Read+8)^(0+128),w
  4885     0CD7  1803               	skipnc
  4886     0CD8  0F3B               	incfsz	(??_AHT10_Read+8)^(0+128),w
  4887     0CD9  2CDB               	goto	u4522
  4888     0CDA  2CDC               	goto	u4523
  4889     0CDB                     u4522:
  4890     0CDB  07B5               	addwf	(??_AHT10_Read^(0+128)+2),f
  4891     0CDC                     u4523:
  4892     0CDC  083C               	movf	(??_AHT10_Read+9)^(0+128),w
  4893     0CDD  1803               	skipnc
  4894     0CDE  0A3C               	incf	(??_AHT10_Read+9)^(0+128),w
  4895     0CDF  07B6               	addwf	(??_AHT10_Read^(0+128)+3),f
  4896     0CE0  0836               	movf	(??_AHT10_Read+3)^(0+128),w
  4897     0CE1  1283               	bcf	3,5	;RP0=0, select bank0
  4898     0CE2  1303               	bcf	3,6	;RP1=0, select bank0
  4899     0CE3  00A9               	movwf	___xxtofl@val+3
  4900     0CE4  1683               	bsf	3,5	;RP0=1, select bank1
  4901     0CE5  1303               	bcf	3,6	;RP1=0, select bank1
  4902     0CE6  0835               	movf	(??_AHT10_Read+2)^(0+128),w
  4903     0CE7  1283               	bcf	3,5	;RP0=0, select bank0
  4904     0CE8  1303               	bcf	3,6	;RP1=0, select bank0
  4905     0CE9  00A8               	movwf	___xxtofl@val+2
  4906     0CEA  1683               	bsf	3,5	;RP0=1, select bank1
  4907     0CEB  1303               	bcf	3,6	;RP1=0, select bank1
  4908     0CEC  0834               	movf	(??_AHT10_Read+1)^(0+128),w
  4909     0CED  1283               	bcf	3,5	;RP0=0, select bank0
  4910     0CEE  1303               	bcf	3,6	;RP1=0, select bank0
  4911     0CEF  00A7               	movwf	___xxtofl@val+1
  4912     0CF0  1683               	bsf	3,5	;RP0=1, select bank1
  4913     0CF1  1303               	bcf	3,6	;RP1=0, select bank1
  4914     0CF2  0833               	movf	??_AHT10_Read^(0+128),w
  4915     0CF3  1283               	bcf	3,5	;RP0=0, select bank0
  4916     0CF4  1303               	bcf	3,6	;RP1=0, select bank0
  4917     0CF5  00A6               	movwf	___xxtofl@val
  4918     0CF6  3000               	movlw	0
  4919     0CF7  160A  118A  25EF  120A  158A  	fcall	___xxtofl
  4920     0CFC  1283               	bcf	3,5	;RP0=0, select bank0
  4921     0CFD  1303               	bcf	3,6	;RP1=0, select bank0
  4922     0CFE  0829               	movf	?___xxtofl+3,w
  4923     0CFF  1683               	bsf	3,5	;RP0=1, select bank1
  4924     0D00  1303               	bcf	3,6	;RP1=0, select bank1
  4925     0D01  00D1               	movwf	(_temperatura+3)^(0+128)
  4926     0D02  1283               	bcf	3,5	;RP0=0, select bank0
  4927     0D03  1303               	bcf	3,6	;RP1=0, select bank0
  4928     0D04  0828               	movf	?___xxtofl+2,w
  4929     0D05  1683               	bsf	3,5	;RP0=1, select bank1
  4930     0D06  1303               	bcf	3,6	;RP1=0, select bank1
  4931     0D07  00D0               	movwf	(_temperatura+2)^(0+128)
  4932     0D08  1283               	bcf	3,5	;RP0=0, select bank0
  4933     0D09  1303               	bcf	3,6	;RP1=0, select bank0
  4934     0D0A  0827               	movf	?___xxtofl+1,w
  4935     0D0B  1683               	bsf	3,5	;RP0=1, select bank1
  4936     0D0C  1303               	bcf	3,6	;RP1=0, select bank1
  4937     0D0D  00CF               	movwf	(_temperatura+1)^(0+128)
  4938     0D0E  1283               	bcf	3,5	;RP0=0, select bank0
  4939     0D0F  1303               	bcf	3,6	;RP1=0, select bank0
  4940     0D10  0826               	movf	?___xxtofl,w
  4941     0D11  1683               	bsf	3,5	;RP0=1, select bank1
  4942     0D12  1303               	bcf	3,6	;RP1=0, select bank1
  4943     0D13  00CE               	movwf	_temperatura^(0+128)
  4944     0D14                     l3567:
  4945                           
  4946                           ;main_master.c: 314:     temperatura = ((temperatura/1048576)*200-50);
  4947     0D14  30C2               	movlw	194
  4948     0D15  1283               	bcf	3,5	;RP0=0, select bank0
  4949     0D16  1303               	bcf	3,6	;RP1=0, select bank0
  4950     0D17  00D7               	movwf	___fladd@b+3
  4951     0D18  3048               	movlw	72
  4952     0D19  00D6               	movwf	___fladd@b+2
  4953     0D1A  3000               	movlw	0
  4954     0D1B  00D5               	movwf	___fladd@b+1
  4955     0D1C  3000               	movlw	0
  4956     0D1D  00D4               	movwf	___fladd@b
  4957     0D1E  3043               	movlw	67
  4958     0D1F  00BD               	movwf	___flmul@b+3
  4959     0D20  3048               	movlw	72
  4960     0D21  00BC               	movwf	___flmul@b+2
  4961     0D22  3000               	movlw	0
  4962     0D23  00BB               	movwf	___flmul@b+1
  4963     0D24  3000               	movlw	0
  4964     0D25  00BA               	movwf	___flmul@b
  4965     0D26  3049               	movlw	73
  4966     0D27  00A3               	movwf	___fldiv@a+3
  4967     0D28  3080               	movlw	128
  4968     0D29  00A2               	movwf	___fldiv@a+2
  4969     0D2A  3000               	movlw	0
  4970     0D2B  00A1               	movwf	___fldiv@a+1
  4971     0D2C  3000               	movlw	0
  4972     0D2D  00A0               	movwf	___fldiv@a
  4973     0D2E  1683               	bsf	3,5	;RP0=1, select bank1
  4974     0D2F  1303               	bcf	3,6	;RP1=0, select bank1
  4975     0D30  0851               	movf	(_temperatura+3)^(0+128),w
  4976     0D31  1283               	bcf	3,5	;RP0=0, select bank0
  4977     0D32  1303               	bcf	3,6	;RP1=0, select bank0
  4978     0D33  00A7               	movwf	___fldiv@b+3
  4979     0D34  1683               	bsf	3,5	;RP0=1, select bank1
  4980     0D35  1303               	bcf	3,6	;RP1=0, select bank1
  4981     0D36  0850               	movf	(_temperatura+2)^(0+128),w
  4982     0D37  1283               	bcf	3,5	;RP0=0, select bank0
  4983     0D38  1303               	bcf	3,6	;RP1=0, select bank0
  4984     0D39  00A6               	movwf	___fldiv@b+2
  4985     0D3A  1683               	bsf	3,5	;RP0=1, select bank1
  4986     0D3B  1303               	bcf	3,6	;RP1=0, select bank1
  4987     0D3C  084F               	movf	(_temperatura+1)^(0+128),w
  4988     0D3D  1283               	bcf	3,5	;RP0=0, select bank0
  4989     0D3E  1303               	bcf	3,6	;RP1=0, select bank0
  4990     0D3F  00A5               	movwf	___fldiv@b+1
  4991     0D40  1683               	bsf	3,5	;RP0=1, select bank1
  4992     0D41  1303               	bcf	3,6	;RP1=0, select bank1
  4993     0D42  084E               	movf	_temperatura^(0+128),w
  4994     0D43  1283               	bcf	3,5	;RP0=0, select bank0
  4995     0D44  1303               	bcf	3,6	;RP1=0, select bank0
  4996     0D45  00A4               	movwf	___fldiv@b
  4997     0D46  120A  158A  21A1  120A  158A  	fcall	___fldiv
  4998     0D4B  1283               	bcf	3,5	;RP0=0, select bank0
  4999     0D4C  1303               	bcf	3,6	;RP1=0, select bank0
  5000     0D4D  0823               	movf	?___fldiv+3,w
  5001     0D4E  00C1               	movwf	___flmul@a+3
  5002     0D4F  0822               	movf	?___fldiv+2,w
  5003     0D50  00C0               	movwf	___flmul@a+2
  5004     0D51  0821               	movf	?___fldiv+1,w
  5005     0D52  00BF               	movwf	___flmul@a+1
  5006     0D53  0820               	movf	?___fldiv,w
  5007     0D54  00BE               	movwf	___flmul@a
  5008     0D55  120A  118A  2436  120A  158A  	fcall	___flmul
  5009     0D5A  1283               	bcf	3,5	;RP0=0, select bank0
  5010     0D5B  1303               	bcf	3,6	;RP1=0, select bank0
  5011     0D5C  083D               	movf	?___flmul+3,w
  5012     0D5D  00DB               	movwf	___fladd@a+3
  5013     0D5E  083C               	movf	?___flmul+2,w
  5014     0D5F  00DA               	movwf	___fladd@a+2
  5015     0D60  083B               	movf	?___flmul+1,w
  5016     0D61  00D9               	movwf	___fladd@a+1
  5017     0D62  083A               	movf	?___flmul,w
  5018     0D63  00D8               	movwf	___fladd@a
  5019     0D64  120A  158A  25A8  120A  158A  	fcall	___fladd
  5020     0D69  1283               	bcf	3,5	;RP0=0, select bank0
  5021     0D6A  1303               	bcf	3,6	;RP1=0, select bank0
  5022     0D6B  0857               	movf	?___fladd+3,w
  5023     0D6C  1683               	bsf	3,5	;RP0=1, select bank1
  5024     0D6D  1303               	bcf	3,6	;RP1=0, select bank1
  5025     0D6E  00D1               	movwf	(_temperatura+3)^(0+128)
  5026     0D6F  1283               	bcf	3,5	;RP0=0, select bank0
  5027     0D70  1303               	bcf	3,6	;RP1=0, select bank0
  5028     0D71  0856               	movf	?___fladd+2,w
  5029     0D72  1683               	bsf	3,5	;RP0=1, select bank1
  5030     0D73  1303               	bcf	3,6	;RP1=0, select bank1
  5031     0D74  00D0               	movwf	(_temperatura+2)^(0+128)
  5032     0D75  1283               	bcf	3,5	;RP0=0, select bank0
  5033     0D76  1303               	bcf	3,6	;RP1=0, select bank0
  5034     0D77  0855               	movf	?___fladd+1,w
  5035     0D78  1683               	bsf	3,5	;RP0=1, select bank1
  5036     0D79  1303               	bcf	3,6	;RP1=0, select bank1
  5037     0D7A  00CF               	movwf	(_temperatura+1)^(0+128)
  5038     0D7B  1283               	bcf	3,5	;RP0=0, select bank0
  5039     0D7C  1303               	bcf	3,6	;RP1=0, select bank0
  5040     0D7D  0854               	movf	?___fladd,w
  5041     0D7E  1683               	bsf	3,5	;RP0=1, select bank1
  5042     0D7F  1303               	bcf	3,6	;RP1=0, select bank1
  5043     0D80  00CE               	movwf	_temperatura^(0+128)
  5044     0D81                     l3569:
  5045                           
  5046                           ;main_master.c: 315:     floattostr(temperatura, buffer2, 2);
  5047     0D81  0851               	movf	(_temperatura+3)^(0+128),w
  5048     0D82  00A3               	movwf	(floattostr@numero_+3)^(0+128)
  5049     0D83  0850               	movf	(_temperatura+2)^(0+128),w
  5050     0D84  00A2               	movwf	(floattostr@numero_+2)^(0+128)
  5051     0D85  084F               	movf	(_temperatura+1)^(0+128),w
  5052     0D86  00A1               	movwf	(floattostr@numero_+1)^(0+128)
  5053     0D87  084E               	movf	_temperatura^(0+128),w
  5054     0D88  00A0               	movwf	floattostr@numero_^(0+128)
  5055     0D89  3090               	movlw	(low (_buffer2| (0+256)))& (0+255)
  5056     0D8A  00A4               	movwf	floattostr@cadena_^(0+128)
  5057     0D8B  3002               	movlw	2
  5058     0D8C  00A5               	movwf	floattostr@decimales_^(0+128)
  5059     0D8D  120A  118A  2030  120A  158A  	fcall	_floattostr
  5060     0D92                     l3571:
  5061                           
  5062                           ;main_master.c: 316:     Lcd_Set_Cursor(1,12);
  5063     0D92  300C               	movlw	12
  5064     0D93  1283               	bcf	3,5	;RP0=0, select bank0
  5065     0D94  1303               	bcf	3,6	;RP1=0, select bank0
  5066     0D95  00A4               	movwf	Lcd_Set_Cursor@b
  5067     0D96  3001               	movlw	1
  5068     0D97  160A  118A  215A  120A  158A  	fcall	_Lcd_Set_Cursor
  5069     0D9C                     l3573:
  5070                           
  5071                           ;main_master.c: 317:     Lcd_Write_String(buffer2);
  5072     0D9C  3090               	movlw	(low (_buffer2| (0+256)))& (0+255)
  5073     0D9D  1283               	bcf	3,5	;RP0=0, select bank0
  5074     0D9E  1303               	bcf	3,6	;RP1=0, select bank0
  5075     0D9F  00A5               	movwf	Lcd_Write_String@a
  5076     0DA0  3001               	movlw	1
  5077     0DA1  00A6               	movwf	Lcd_Write_String@a+1
  5078     0DA2  160A  118A  20CE  120A  158A  	fcall	_Lcd_Write_String
  5079     0DA7                     l203:
  5080     0DA7  0008               	return
  5081     0DA8                     __end_of_AHT10_Read:
  5082                           
  5083                           	psect	text23
  5084     0030                     __ptext23:	
  5085 ;; *************** function _floattostr *****************
  5086 ;; Defined at:
  5087 ;;		line 11 in file "./float_str.h"
  5088 ;; Parameters:    Size  Location     Type
  5089 ;;  numero_         4    0[BANK1 ] float 
  5090 ;;  cadena_         1    4[BANK1 ] PTR unsigned char 
  5091 ;;		 -> buffer3(48), buffer2(48), 
  5092 ;;  decimales_      1    5[BANK1 ] unsigned char 
  5093 ;; Auto vars:     Size  Location     Type
  5094 ;;  tempo_float     4    9[BANK1 ] unsigned char 
  5095 ;;  largo_entera    2   17[BANK1 ] int 
  5096 ;;  cont_for        2   15[BANK1 ] int 
  5097 ;;  largo_n         2   13[BANK1 ] int 
  5098 ;;  tempo_int       2    7[BANK1 ] int 
  5099 ;; Return value:  Size  Location     Type
  5100 ;;                  1    wreg      void 
  5101 ;; Registers used:
  5102 ;;		wreg, fsr0l, fsr0h, status,2, status,0, btemp+1, pclath, cstack
  5103 ;; Tracked objects:
  5104 ;;		On entry : 0/0
  5105 ;;		On exit  : 0/0
  5106 ;;		Unchanged: 0/0
  5107 ;; Data sizes:     COMMON   BANK0   BANK1   BANK3   BANK2
  5108 ;;      Params:         0       0       6       0       0
  5109 ;;      Locals:         0       0      12       0       0
  5110 ;;      Temps:          0       0       1       0       0
  5111 ;;      Totals:         0       0      19       0       0
  5112 ;;Total ram usage:       19 bytes
  5113 ;; Hardware stack levels used: 1
  5114 ;; Hardware stack levels required when called: 6
  5115 ;; This function calls:
  5116 ;;		___fladd
  5117 ;;		___fldiv
  5118 ;;		___flge
  5119 ;;		___flmul
  5120 ;;		___flneg
  5121 ;;		___flsub
  5122 ;;		___fltol
  5123 ;;		___xxtofl
  5124 ;; This function is called by:
  5125 ;;		_main
  5126 ;;		_AHT10_Read
  5127 ;; This function uses a non-reentrant model
  5128 ;;
  5129                           
  5130     0030                     _floattostr:	
  5131                           ;psect for function _floattostr
  5132                           
  5133     0030                     l3149:	
  5134                           ;incstack = 0
  5135                           ; Regs used in _floattostr: [wreg-fsr0h+status,2+status,0+btemp+1+pclath+cstack]
  5136                           
  5137                           
  5138                           ;./float_str.h: 11: void floattostr(float numero_, unsigned char *cadena_,char decimales
      +                          _);./float_str.h: 12: {;./float_str.h: 13:     int largo_entera,largo_n,cont_for,tempo_i
      +                          nt;;./float_str.h: 14:     double tempo_float;;./float_str.h: 15:     largo_n = decimale
      +                          s_+1;
  5139     0030  1683               	bsf	3,5	;RP0=1, select bank1
  5140     0031  1303               	bcf	3,6	;RP1=0, select bank1
  5141     0032  0825               	movf	floattostr@decimales_^(0+128),w
  5142     0033  3E01               	addlw	1
  5143     0034  00AD               	movwf	floattostr@largo_n^(0+128)
  5144     0035  3000               	movlw	0
  5145     0036  1803               	skipnc
  5146     0037  3001               	movlw	1
  5147     0038  00AE               	movwf	(floattostr@largo_n^(0+128)+1)
  5148     0039                     l3151:
  5149                           
  5150                           ;./float_str.h: 16:     largo_entera = 0;
  5151     0039  01B1               	clrf	floattostr@largo_entera^(0+128)
  5152     003A  01B2               	clrf	(floattostr@largo_entera+1)^(0+128)
  5153     003B                     l3153:
  5154                           
  5155                           ;./float_str.h: 18:     if(numero_ < 0)
  5156     003B  0823               	movf	(floattostr@numero_+3)^(0+128),w
  5157     003C  1283               	bcf	3,5	;RP0=0, select bank0
  5158     003D  1303               	bcf	3,6	;RP1=0, select bank0
  5159     003E  00A3               	movwf	___flge@ff1+3
  5160     003F  1683               	bsf	3,5	;RP0=1, select bank1
  5161     0040  1303               	bcf	3,6	;RP1=0, select bank1
  5162     0041  0822               	movf	(floattostr@numero_+2)^(0+128),w
  5163     0042  1283               	bcf	3,5	;RP0=0, select bank0
  5164     0043  1303               	bcf	3,6	;RP1=0, select bank0
  5165     0044  00A2               	movwf	___flge@ff1+2
  5166     0045  1683               	bsf	3,5	;RP0=1, select bank1
  5167     0046  1303               	bcf	3,6	;RP1=0, select bank1
  5168     0047  0821               	movf	(floattostr@numero_+1)^(0+128),w
  5169     0048  1283               	bcf	3,5	;RP0=0, select bank0
  5170     0049  1303               	bcf	3,6	;RP1=0, select bank0
  5171     004A  00A1               	movwf	___flge@ff1+1
  5172     004B  1683               	bsf	3,5	;RP0=1, select bank1
  5173     004C  1303               	bcf	3,6	;RP1=0, select bank1
  5174     004D  0820               	movf	floattostr@numero_^(0+128),w
  5175     004E  1283               	bcf	3,5	;RP0=0, select bank0
  5176     004F  1303               	bcf	3,6	;RP1=0, select bank0
  5177     0050  00A0               	movwf	___flge@ff1
  5178     0051  3000               	movlw	0
  5179     0052  00A7               	movwf	___flge@ff2+3
  5180     0053  3000               	movlw	0
  5181     0054  00A6               	movwf	___flge@ff2+2
  5182     0055  3000               	movlw	0
  5183     0056  00A5               	movwf	___flge@ff2+1
  5184     0057  3000               	movlw	0
  5185     0058  00A4               	movwf	___flge@ff2
  5186     0059  160A  118A  254B  120A  118A  	fcall	___flge
  5187     005E  1803               	btfsc	3,0
  5188     005F  2861               	goto	u4091
  5189     0060  2862               	goto	u4090
  5190     0061                     u4091:
  5191     0061  28A0               	goto	l3161
  5192     0062                     u4090:
  5193     0062                     l3155:
  5194                           
  5195                           ;./float_str.h: 19:     {;./float_str.h: 20:         *cadena_++ = '-';
  5196     0062  1683               	bsf	3,5	;RP0=1, select bank1
  5197     0063  1303               	bcf	3,6	;RP1=0, select bank1
  5198     0064  0824               	movf	floattostr@cadena_^(0+128),w
  5199     0065  0084               	movwf	4
  5200     0066  302D               	movlw	45
  5201     0067  1783               	bsf	3,7	;select IRP bank2
  5202     0068  0080               	movwf	0
  5203     0069                     l3157:
  5204     0069  3001               	movlw	1
  5205     006A  00A6               	movwf	??_floattostr^(0+128)
  5206     006B  0826               	movf	??_floattostr^(0+128),w
  5207     006C  07A4               	addwf	floattostr@cadena_^(0+128),f
  5208     006D                     l3159:
  5209                           
  5210                           ;./float_str.h: 21:         numero_ = -numero_;
  5211     006D  0823               	movf	(floattostr@numero_+3)^(0+128),w
  5212     006E  1283               	bcf	3,5	;RP0=0, select bank0
  5213     006F  1303               	bcf	3,6	;RP1=0, select bank0
  5214     0070  00A3               	movwf	___flneg@f1+3
  5215     0071  1683               	bsf	3,5	;RP0=1, select bank1
  5216     0072  1303               	bcf	3,6	;RP1=0, select bank1
  5217     0073  0822               	movf	(floattostr@numero_+2)^(0+128),w
  5218     0074  1283               	bcf	3,5	;RP0=0, select bank0
  5219     0075  1303               	bcf	3,6	;RP1=0, select bank0
  5220     0076  00A2               	movwf	___flneg@f1+2
  5221     0077  1683               	bsf	3,5	;RP0=1, select bank1
  5222     0078  1303               	bcf	3,6	;RP1=0, select bank1
  5223     0079  0821               	movf	(floattostr@numero_+1)^(0+128),w
  5224     007A  1283               	bcf	3,5	;RP0=0, select bank0
  5225     007B  1303               	bcf	3,6	;RP1=0, select bank0
  5226     007C  00A1               	movwf	___flneg@f1+1
  5227     007D  1683               	bsf	3,5	;RP0=1, select bank1
  5228     007E  1303               	bcf	3,6	;RP1=0, select bank1
  5229     007F  0820               	movf	floattostr@numero_^(0+128),w
  5230     0080  1283               	bcf	3,5	;RP0=0, select bank0
  5231     0081  1303               	bcf	3,6	;RP1=0, select bank0
  5232     0082  00A0               	movwf	___flneg@f1
  5233     0083  160A  158A  2566  120A  118A  	fcall	___flneg
  5234     0088  1283               	bcf	3,5	;RP0=0, select bank0
  5235     0089  1303               	bcf	3,6	;RP1=0, select bank0
  5236     008A  0823               	movf	?___flneg+3,w
  5237     008B  1683               	bsf	3,5	;RP0=1, select bank1
  5238     008C  1303               	bcf	3,6	;RP1=0, select bank1
  5239     008D  00A3               	movwf	(floattostr@numero_+3)^(0+128)
  5240     008E  1283               	bcf	3,5	;RP0=0, select bank0
  5241     008F  1303               	bcf	3,6	;RP1=0, select bank0
  5242     0090  0822               	movf	?___flneg+2,w
  5243     0091  1683               	bsf	3,5	;RP0=1, select bank1
  5244     0092  1303               	bcf	3,6	;RP1=0, select bank1
  5245     0093  00A2               	movwf	(floattostr@numero_+2)^(0+128)
  5246     0094  1283               	bcf	3,5	;RP0=0, select bank0
  5247     0095  1303               	bcf	3,6	;RP1=0, select bank0
  5248     0096  0821               	movf	?___flneg+1,w
  5249     0097  1683               	bsf	3,5	;RP0=1, select bank1
  5250     0098  1303               	bcf	3,6	;RP1=0, select bank1
  5251     0099  00A1               	movwf	(floattostr@numero_+1)^(0+128)
  5252     009A  1283               	bcf	3,5	;RP0=0, select bank0
  5253     009B  1303               	bcf	3,6	;RP1=0, select bank0
  5254     009C  0820               	movf	?___flneg,w
  5255     009D  1683               	bsf	3,5	;RP0=1, select bank1
  5256     009E  1303               	bcf	3,6	;RP1=0, select bank1
  5257     009F  00A0               	movwf	floattostr@numero_^(0+128)
  5258     00A0                     l3161:
  5259                           
  5260                           ;./float_str.h: 23:     if(numero_ > 0.0) while (numero_ < 1.0)
  5261     00A0  3000               	movlw	0
  5262     00A1  1283               	bcf	3,5	;RP0=0, select bank0
  5263     00A2  1303               	bcf	3,6	;RP1=0, select bank0
  5264     00A3  00A3               	movwf	___flge@ff1+3
  5265     00A4  3000               	movlw	0
  5266     00A5  00A2               	movwf	___flge@ff1+2
  5267     00A6  3000               	movlw	0
  5268     00A7  00A1               	movwf	___flge@ff1+1
  5269     00A8  3000               	movlw	0
  5270     00A9  00A0               	movwf	___flge@ff1
  5271     00AA  1683               	bsf	3,5	;RP0=1, select bank1
  5272     00AB  1303               	bcf	3,6	;RP1=0, select bank1
  5273     00AC  0823               	movf	(floattostr@numero_+3)^(0+128),w
  5274     00AD  1283               	bcf	3,5	;RP0=0, select bank0
  5275     00AE  1303               	bcf	3,6	;RP1=0, select bank0
  5276     00AF  00A7               	movwf	___flge@ff2+3
  5277     00B0  1683               	bsf	3,5	;RP0=1, select bank1
  5278     00B1  1303               	bcf	3,6	;RP1=0, select bank1
  5279     00B2  0822               	movf	(floattostr@numero_+2)^(0+128),w
  5280     00B3  1283               	bcf	3,5	;RP0=0, select bank0
  5281     00B4  1303               	bcf	3,6	;RP1=0, select bank0
  5282     00B5  00A6               	movwf	___flge@ff2+2
  5283     00B6  1683               	bsf	3,5	;RP0=1, select bank1
  5284     00B7  1303               	bcf	3,6	;RP1=0, select bank1
  5285     00B8  0821               	movf	(floattostr@numero_+1)^(0+128),w
  5286     00B9  1283               	bcf	3,5	;RP0=0, select bank0
  5287     00BA  1303               	bcf	3,6	;RP1=0, select bank0
  5288     00BB  00A5               	movwf	___flge@ff2+1
  5289     00BC  1683               	bsf	3,5	;RP0=1, select bank1
  5290     00BD  1303               	bcf	3,6	;RP1=0, select bank1
  5291     00BE  0820               	movf	floattostr@numero_^(0+128),w
  5292     00BF  1283               	bcf	3,5	;RP0=0, select bank0
  5293     00C0  1303               	bcf	3,6	;RP1=0, select bank0
  5294     00C1  00A4               	movwf	___flge@ff2
  5295     00C2  160A  118A  254B  120A  118A  	fcall	___flge
  5296     00C7  1803               	btfsc	3,0
  5297     00C8  28CA               	goto	u4101
  5298     00C9  28CB               	goto	u4100
  5299     00CA                     u4101:
  5300     00CA  2980               	goto	l3175
  5301     00CB                     u4100:
  5302     00CB  2911               	goto	l3169
  5303     00CC                     l3165:
  5304                           
  5305                           ;./float_str.h: 24:     {;./float_str.h: 25:         numero_ =numero_* 10.0;
  5306     00CC  3041               	movlw	65
  5307     00CD  1283               	bcf	3,5	;RP0=0, select bank0
  5308     00CE  1303               	bcf	3,6	;RP1=0, select bank0
  5309     00CF  00BD               	movwf	___flmul@b+3
  5310     00D0  3020               	movlw	32
  5311     00D1  00BC               	movwf	___flmul@b+2
  5312     00D2  3000               	movlw	0
  5313     00D3  00BB               	movwf	___flmul@b+1
  5314     00D4  3000               	movlw	0
  5315     00D5  00BA               	movwf	___flmul@b
  5316     00D6  1683               	bsf	3,5	;RP0=1, select bank1
  5317     00D7  1303               	bcf	3,6	;RP1=0, select bank1
  5318     00D8  0823               	movf	(floattostr@numero_+3)^(0+128),w
  5319     00D9  1283               	bcf	3,5	;RP0=0, select bank0
  5320     00DA  1303               	bcf	3,6	;RP1=0, select bank0
  5321     00DB  00C1               	movwf	___flmul@a+3
  5322     00DC  1683               	bsf	3,5	;RP0=1, select bank1
  5323     00DD  1303               	bcf	3,6	;RP1=0, select bank1
  5324     00DE  0822               	movf	(floattostr@numero_+2)^(0+128),w
  5325     00DF  1283               	bcf	3,5	;RP0=0, select bank0
  5326     00E0  1303               	bcf	3,6	;RP1=0, select bank0
  5327     00E1  00C0               	movwf	___flmul@a+2
  5328     00E2  1683               	bsf	3,5	;RP0=1, select bank1
  5329     00E3  1303               	bcf	3,6	;RP1=0, select bank1
  5330     00E4  0821               	movf	(floattostr@numero_+1)^(0+128),w
  5331     00E5  1283               	bcf	3,5	;RP0=0, select bank0
  5332     00E6  1303               	bcf	3,6	;RP1=0, select bank0
  5333     00E7  00BF               	movwf	___flmul@a+1
  5334     00E8  1683               	bsf	3,5	;RP0=1, select bank1
  5335     00E9  1303               	bcf	3,6	;RP1=0, select bank1
  5336     00EA  0820               	movf	floattostr@numero_^(0+128),w
  5337     00EB  1283               	bcf	3,5	;RP0=0, select bank0
  5338     00EC  1303               	bcf	3,6	;RP1=0, select bank0
  5339     00ED  00BE               	movwf	___flmul@a
  5340     00EE  120A  118A  2436  120A  118A  	fcall	___flmul
  5341     00F3  1283               	bcf	3,5	;RP0=0, select bank0
  5342     00F4  1303               	bcf	3,6	;RP1=0, select bank0
  5343     00F5  083D               	movf	?___flmul+3,w
  5344     00F6  1683               	bsf	3,5	;RP0=1, select bank1
  5345     00F7  1303               	bcf	3,6	;RP1=0, select bank1
  5346     00F8  00A3               	movwf	(floattostr@numero_+3)^(0+128)
  5347     00F9  1283               	bcf	3,5	;RP0=0, select bank0
  5348     00FA  1303               	bcf	3,6	;RP1=0, select bank0
  5349     00FB  083C               	movf	?___flmul+2,w
  5350     00FC  1683               	bsf	3,5	;RP0=1, select bank1
  5351     00FD  1303               	bcf	3,6	;RP1=0, select bank1
  5352     00FE  00A2               	movwf	(floattostr@numero_+2)^(0+128)
  5353     00FF  1283               	bcf	3,5	;RP0=0, select bank0
  5354     0100  1303               	bcf	3,6	;RP1=0, select bank0
  5355     0101  083B               	movf	?___flmul+1,w
  5356     0102  1683               	bsf	3,5	;RP0=1, select bank1
  5357     0103  1303               	bcf	3,6	;RP1=0, select bank1
  5358     0104  00A1               	movwf	(floattostr@numero_+1)^(0+128)
  5359     0105  1283               	bcf	3,5	;RP0=0, select bank0
  5360     0106  1303               	bcf	3,6	;RP1=0, select bank0
  5361     0107  083A               	movf	?___flmul,w
  5362     0108  1683               	bsf	3,5	;RP0=1, select bank1
  5363     0109  1303               	bcf	3,6	;RP1=0, select bank1
  5364     010A  00A0               	movwf	floattostr@numero_^(0+128)
  5365     010B                     l3167:
  5366                           
  5367                           ;./float_str.h: 26:         largo_entera--;
  5368     010B  30FF               	movlw	255
  5369     010C  07B1               	addwf	floattostr@largo_entera^(0+128),f
  5370     010D  1803               	skipnc
  5371     010E  0AB2               	incf	(floattostr@largo_entera+1)^(0+128),f
  5372     010F  30FF               	movlw	255
  5373     0110  07B2               	addwf	(floattostr@largo_entera+1)^(0+128),f
  5374     0111                     l3169:
  5375                           
  5376                           ;./float_str.h: 23:     if(numero_ > 0.0) while (numero_ < 1.0)
  5377     0111  1683               	bsf	3,5	;RP0=1, select bank1
  5378     0112  1303               	bcf	3,6	;RP1=0, select bank1
  5379     0113  0823               	movf	(floattostr@numero_+3)^(0+128),w
  5380     0114  1283               	bcf	3,5	;RP0=0, select bank0
  5381     0115  1303               	bcf	3,6	;RP1=0, select bank0
  5382     0116  00A3               	movwf	___flge@ff1+3
  5383     0117  1683               	bsf	3,5	;RP0=1, select bank1
  5384     0118  1303               	bcf	3,6	;RP1=0, select bank1
  5385     0119  0822               	movf	(floattostr@numero_+2)^(0+128),w
  5386     011A  1283               	bcf	3,5	;RP0=0, select bank0
  5387     011B  1303               	bcf	3,6	;RP1=0, select bank0
  5388     011C  00A2               	movwf	___flge@ff1+2
  5389     011D  1683               	bsf	3,5	;RP0=1, select bank1
  5390     011E  1303               	bcf	3,6	;RP1=0, select bank1
  5391     011F  0821               	movf	(floattostr@numero_+1)^(0+128),w
  5392     0120  1283               	bcf	3,5	;RP0=0, select bank0
  5393     0121  1303               	bcf	3,6	;RP1=0, select bank0
  5394     0122  00A1               	movwf	___flge@ff1+1
  5395     0123  1683               	bsf	3,5	;RP0=1, select bank1
  5396     0124  1303               	bcf	3,6	;RP1=0, select bank1
  5397     0125  0820               	movf	floattostr@numero_^(0+128),w
  5398     0126  1283               	bcf	3,5	;RP0=0, select bank0
  5399     0127  1303               	bcf	3,6	;RP1=0, select bank0
  5400     0128  00A0               	movwf	___flge@ff1
  5401     0129  303F               	movlw	63
  5402     012A  00A7               	movwf	___flge@ff2+3
  5403     012B  3080               	movlw	128
  5404     012C  00A6               	movwf	___flge@ff2+2
  5405     012D  3000               	movlw	0
  5406     012E  00A5               	movwf	___flge@ff2+1
  5407     012F  3000               	movlw	0
  5408     0130  00A4               	movwf	___flge@ff2
  5409     0131  160A  118A  254B  120A  118A  	fcall	___flge
  5410     0136  1C03               	btfss	3,0
  5411     0137  2939               	goto	u4111
  5412     0138  293A               	goto	u4110
  5413     0139                     u4111:
  5414     0139  28CC               	goto	l3165
  5415     013A                     u4110:
  5416     013A  2980               	goto	l3175
  5417     013B                     l3171:
  5418                           
  5419                           ;./float_str.h: 29:     {;./float_str.h: 30:         numero_ = numero_/10.0;
  5420     013B  3041               	movlw	65
  5421     013C  1283               	bcf	3,5	;RP0=0, select bank0
  5422     013D  1303               	bcf	3,6	;RP1=0, select bank0
  5423     013E  00A3               	movwf	___fldiv@a+3
  5424     013F  3020               	movlw	32
  5425     0140  00A2               	movwf	___fldiv@a+2
  5426     0141  3000               	movlw	0
  5427     0142  00A1               	movwf	___fldiv@a+1
  5428     0143  3000               	movlw	0
  5429     0144  00A0               	movwf	___fldiv@a
  5430     0145  1683               	bsf	3,5	;RP0=1, select bank1
  5431     0146  1303               	bcf	3,6	;RP1=0, select bank1
  5432     0147  0823               	movf	(floattostr@numero_+3)^(0+128),w
  5433     0148  1283               	bcf	3,5	;RP0=0, select bank0
  5434     0149  1303               	bcf	3,6	;RP1=0, select bank0
  5435     014A  00A7               	movwf	___fldiv@b+3
  5436     014B  1683               	bsf	3,5	;RP0=1, select bank1
  5437     014C  1303               	bcf	3,6	;RP1=0, select bank1
  5438     014D  0822               	movf	(floattostr@numero_+2)^(0+128),w
  5439     014E  1283               	bcf	3,5	;RP0=0, select bank0
  5440     014F  1303               	bcf	3,6	;RP1=0, select bank0
  5441     0150  00A6               	movwf	___fldiv@b+2
  5442     0151  1683               	bsf	3,5	;RP0=1, select bank1
  5443     0152  1303               	bcf	3,6	;RP1=0, select bank1
  5444     0153  0821               	movf	(floattostr@numero_+1)^(0+128),w
  5445     0154  1283               	bcf	3,5	;RP0=0, select bank0
  5446     0155  1303               	bcf	3,6	;RP1=0, select bank0
  5447     0156  00A5               	movwf	___fldiv@b+1
  5448     0157  1683               	bsf	3,5	;RP0=1, select bank1
  5449     0158  1303               	bcf	3,6	;RP1=0, select bank1
  5450     0159  0820               	movf	floattostr@numero_^(0+128),w
  5451     015A  1283               	bcf	3,5	;RP0=0, select bank0
  5452     015B  1303               	bcf	3,6	;RP1=0, select bank0
  5453     015C  00A4               	movwf	___fldiv@b
  5454     015D  120A  158A  21A1  120A  118A  	fcall	___fldiv
  5455     0162  1283               	bcf	3,5	;RP0=0, select bank0
  5456     0163  1303               	bcf	3,6	;RP1=0, select bank0
  5457     0164  0823               	movf	?___fldiv+3,w
  5458     0165  1683               	bsf	3,5	;RP0=1, select bank1
  5459     0166  1303               	bcf	3,6	;RP1=0, select bank1
  5460     0167  00A3               	movwf	(floattostr@numero_+3)^(0+128)
  5461     0168  1283               	bcf	3,5	;RP0=0, select bank0
  5462     0169  1303               	bcf	3,6	;RP1=0, select bank0
  5463     016A  0822               	movf	?___fldiv+2,w
  5464     016B  1683               	bsf	3,5	;RP0=1, select bank1
  5465     016C  1303               	bcf	3,6	;RP1=0, select bank1
  5466     016D  00A2               	movwf	(floattostr@numero_+2)^(0+128)
  5467     016E  1283               	bcf	3,5	;RP0=0, select bank0
  5468     016F  1303               	bcf	3,6	;RP1=0, select bank0
  5469     0170  0821               	movf	?___fldiv+1,w
  5470     0171  1683               	bsf	3,5	;RP0=1, select bank1
  5471     0172  1303               	bcf	3,6	;RP1=0, select bank1
  5472     0173  00A1               	movwf	(floattostr@numero_+1)^(0+128)
  5473     0174  1283               	bcf	3,5	;RP0=0, select bank0
  5474     0175  1303               	bcf	3,6	;RP1=0, select bank0
  5475     0176  0820               	movf	?___fldiv,w
  5476     0177  1683               	bsf	3,5	;RP0=1, select bank1
  5477     0178  1303               	bcf	3,6	;RP1=0, select bank1
  5478     0179  00A0               	movwf	floattostr@numero_^(0+128)
  5479     017A                     l3173:
  5480                           
  5481                           ;./float_str.h: 31:         largo_entera++;
  5482     017A  3001               	movlw	1
  5483     017B  07B1               	addwf	floattostr@largo_entera^(0+128),f
  5484     017C  1803               	skipnc
  5485     017D  0AB2               	incf	(floattostr@largo_entera+1)^(0+128),f
  5486     017E  3000               	movlw	0
  5487     017F  07B2               	addwf	(floattostr@largo_entera+1)^(0+128),f
  5488     0180                     l3175:
  5489                           
  5490                           ;./float_str.h: 28:     while(numero_ >= 10.0)
  5491     0180  1683               	bsf	3,5	;RP0=1, select bank1
  5492     0181  1303               	bcf	3,6	;RP1=0, select bank1
  5493     0182  0823               	movf	(floattostr@numero_+3)^(0+128),w
  5494     0183  1283               	bcf	3,5	;RP0=0, select bank0
  5495     0184  1303               	bcf	3,6	;RP1=0, select bank0
  5496     0185  00A3               	movwf	___flge@ff1+3
  5497     0186  1683               	bsf	3,5	;RP0=1, select bank1
  5498     0187  1303               	bcf	3,6	;RP1=0, select bank1
  5499     0188  0822               	movf	(floattostr@numero_+2)^(0+128),w
  5500     0189  1283               	bcf	3,5	;RP0=0, select bank0
  5501     018A  1303               	bcf	3,6	;RP1=0, select bank0
  5502     018B  00A2               	movwf	___flge@ff1+2
  5503     018C  1683               	bsf	3,5	;RP0=1, select bank1
  5504     018D  1303               	bcf	3,6	;RP1=0, select bank1
  5505     018E  0821               	movf	(floattostr@numero_+1)^(0+128),w
  5506     018F  1283               	bcf	3,5	;RP0=0, select bank0
  5507     0190  1303               	bcf	3,6	;RP1=0, select bank0
  5508     0191  00A1               	movwf	___flge@ff1+1
  5509     0192  1683               	bsf	3,5	;RP0=1, select bank1
  5510     0193  1303               	bcf	3,6	;RP1=0, select bank1
  5511     0194  0820               	movf	floattostr@numero_^(0+128),w
  5512     0195  1283               	bcf	3,5	;RP0=0, select bank0
  5513     0196  1303               	bcf	3,6	;RP1=0, select bank0
  5514     0197  00A0               	movwf	___flge@ff1
  5515     0198  3041               	movlw	65
  5516     0199  00A7               	movwf	___flge@ff2+3
  5517     019A  3020               	movlw	32
  5518     019B  00A6               	movwf	___flge@ff2+2
  5519     019C  3000               	movlw	0
  5520     019D  00A5               	movwf	___flge@ff2+1
  5521     019E  3000               	movlw	0
  5522     019F  00A4               	movwf	___flge@ff2
  5523     01A0  160A  118A  254B  120A  118A  	fcall	___flge
  5524     01A5  1803               	btfsc	3,0
  5525     01A6  29A8               	goto	u4121
  5526     01A7  29A9               	goto	u4120
  5527     01A8                     u4121:
  5528     01A8  293B               	goto	l3171
  5529     01A9                     u4120:
  5530     01A9                     l3177:
  5531                           
  5532                           ;./float_str.h: 33:     largo_n = largo_n+largo_entera;
  5533     01A9  1683               	bsf	3,5	;RP0=1, select bank1
  5534     01AA  1303               	bcf	3,6	;RP1=0, select bank1
  5535     01AB  0831               	movf	floattostr@largo_entera^(0+128),w
  5536     01AC  072D               	addwf	floattostr@largo_n^(0+128),w
  5537     01AD  00AD               	movwf	floattostr@largo_n^(0+128)
  5538     01AE  0832               	movf	(floattostr@largo_entera+1)^(0+128),w
  5539     01AF  1803               	skipnc
  5540     01B0  0A32               	incf	(floattostr@largo_entera+1)^(0+128),w
  5541     01B1  072E               	addwf	(floattostr@largo_n+1)^(0+128),w
  5542     01B2  00AE               	movwf	(floattostr@largo_n+1)^(0+128)
  5543     01B3                     l3179:
  5544                           
  5545                           ;./float_str.h: 35:     for(tempo_float = cont_for = 1; cont_for < largo_n; cont_for++)
  5546     01B3  3001               	movlw	1
  5547     01B4  00AF               	movwf	floattostr@cont_for^(0+128)
  5548     01B5  3000               	movlw	0
  5549     01B6  00B0               	movwf	(floattostr@cont_for^(0+128)+1)
  5550     01B7  082F               	movf	floattostr@cont_for^(0+128),w
  5551     01B8  1283               	bcf	3,5	;RP0=0, select bank0
  5552     01B9  1303               	bcf	3,6	;RP1=0, select bank0
  5553     01BA  00A6               	movwf	___xxtofl@val
  5554     01BB  1683               	bsf	3,5	;RP0=1, select bank1
  5555     01BC  1303               	bcf	3,6	;RP1=0, select bank1
  5556     01BD  0830               	movf	(floattostr@cont_for+1)^(0+128),w
  5557     01BE  1283               	bcf	3,5	;RP0=0, select bank0
  5558     01BF  1303               	bcf	3,6	;RP1=0, select bank0
  5559     01C0  00A7               	movwf	___xxtofl@val+1
  5560     01C1  3000               	movlw	0
  5561     01C2  1BA7               	btfsc	___xxtofl@val+1,7
  5562     01C3  30FF               	movlw	255
  5563     01C4  00A8               	movwf	___xxtofl@val+2
  5564     01C5  00A9               	movwf	___xxtofl@val+3
  5565     01C6  3001               	movlw	1
  5566     01C7  160A  118A  25EF  120A  118A  	fcall	___xxtofl
  5567     01CC  1283               	bcf	3,5	;RP0=0, select bank0
  5568     01CD  1303               	bcf	3,6	;RP1=0, select bank0
  5569     01CE  0829               	movf	?___xxtofl+3,w
  5570     01CF  1683               	bsf	3,5	;RP0=1, select bank1
  5571     01D0  1303               	bcf	3,6	;RP1=0, select bank1
  5572     01D1  00AC               	movwf	(floattostr@tempo_float+3)^(0+128)
  5573     01D2  1283               	bcf	3,5	;RP0=0, select bank0
  5574     01D3  1303               	bcf	3,6	;RP1=0, select bank0
  5575     01D4  0828               	movf	?___xxtofl+2,w
  5576     01D5  1683               	bsf	3,5	;RP0=1, select bank1
  5577     01D6  1303               	bcf	3,6	;RP1=0, select bank1
  5578     01D7  00AB               	movwf	(floattostr@tempo_float+2)^(0+128)
  5579     01D8  1283               	bcf	3,5	;RP0=0, select bank0
  5580     01D9  1303               	bcf	3,6	;RP1=0, select bank0
  5581     01DA  0827               	movf	?___xxtofl+1,w
  5582     01DB  1683               	bsf	3,5	;RP0=1, select bank1
  5583     01DC  1303               	bcf	3,6	;RP1=0, select bank1
  5584     01DD  00AA               	movwf	(floattostr@tempo_float+1)^(0+128)
  5585     01DE  1283               	bcf	3,5	;RP0=0, select bank0
  5586     01DF  1303               	bcf	3,6	;RP1=0, select bank0
  5587     01E0  0826               	movf	?___xxtofl,w
  5588     01E1  1683               	bsf	3,5	;RP0=1, select bank1
  5589     01E2  1303               	bcf	3,6	;RP1=0, select bank1
  5590     01E3  00A9               	movwf	floattostr@tempo_float^(0+128)
  5591     01E4  2A2A               	goto	l3185
  5592     01E5                     l3181:
  5593                           
  5594                           ;./float_str.h: 36:         tempo_float = tempo_float/10.0;
  5595     01E5  3041               	movlw	65
  5596     01E6  1283               	bcf	3,5	;RP0=0, select bank0
  5597     01E7  1303               	bcf	3,6	;RP1=0, select bank0
  5598     01E8  00A3               	movwf	___fldiv@a+3
  5599     01E9  3020               	movlw	32
  5600     01EA  00A2               	movwf	___fldiv@a+2
  5601     01EB  3000               	movlw	0
  5602     01EC  00A1               	movwf	___fldiv@a+1
  5603     01ED  3000               	movlw	0
  5604     01EE  00A0               	movwf	___fldiv@a
  5605     01EF  1683               	bsf	3,5	;RP0=1, select bank1
  5606     01F0  1303               	bcf	3,6	;RP1=0, select bank1
  5607     01F1  082C               	movf	(floattostr@tempo_float+3)^(0+128),w
  5608     01F2  1283               	bcf	3,5	;RP0=0, select bank0
  5609     01F3  1303               	bcf	3,6	;RP1=0, select bank0
  5610     01F4  00A7               	movwf	___fldiv@b+3
  5611     01F5  1683               	bsf	3,5	;RP0=1, select bank1
  5612     01F6  1303               	bcf	3,6	;RP1=0, select bank1
  5613     01F7  082B               	movf	(floattostr@tempo_float+2)^(0+128),w
  5614     01F8  1283               	bcf	3,5	;RP0=0, select bank0
  5615     01F9  1303               	bcf	3,6	;RP1=0, select bank0
  5616     01FA  00A6               	movwf	___fldiv@b+2
  5617     01FB  1683               	bsf	3,5	;RP0=1, select bank1
  5618     01FC  1303               	bcf	3,6	;RP1=0, select bank1
  5619     01FD  082A               	movf	(floattostr@tempo_float+1)^(0+128),w
  5620     01FE  1283               	bcf	3,5	;RP0=0, select bank0
  5621     01FF  1303               	bcf	3,6	;RP1=0, select bank0
  5622     0200  00A5               	movwf	___fldiv@b+1
  5623     0201  1683               	bsf	3,5	;RP0=1, select bank1
  5624     0202  1303               	bcf	3,6	;RP1=0, select bank1
  5625     0203  0829               	movf	floattostr@tempo_float^(0+128),w
  5626     0204  1283               	bcf	3,5	;RP0=0, select bank0
  5627     0205  1303               	bcf	3,6	;RP1=0, select bank0
  5628     0206  00A4               	movwf	___fldiv@b
  5629     0207  120A  158A  21A1  120A  118A  	fcall	___fldiv
  5630     020C  1283               	bcf	3,5	;RP0=0, select bank0
  5631     020D  1303               	bcf	3,6	;RP1=0, select bank0
  5632     020E  0823               	movf	?___fldiv+3,w
  5633     020F  1683               	bsf	3,5	;RP0=1, select bank1
  5634     0210  1303               	bcf	3,6	;RP1=0, select bank1
  5635     0211  00AC               	movwf	(floattostr@tempo_float+3)^(0+128)
  5636     0212  1283               	bcf	3,5	;RP0=0, select bank0
  5637     0213  1303               	bcf	3,6	;RP1=0, select bank0
  5638     0214  0822               	movf	?___fldiv+2,w
  5639     0215  1683               	bsf	3,5	;RP0=1, select bank1
  5640     0216  1303               	bcf	3,6	;RP1=0, select bank1
  5641     0217  00AB               	movwf	(floattostr@tempo_float+2)^(0+128)
  5642     0218  1283               	bcf	3,5	;RP0=0, select bank0
  5643     0219  1303               	bcf	3,6	;RP1=0, select bank0
  5644     021A  0821               	movf	?___fldiv+1,w
  5645     021B  1683               	bsf	3,5	;RP0=1, select bank1
  5646     021C  1303               	bcf	3,6	;RP1=0, select bank1
  5647     021D  00AA               	movwf	(floattostr@tempo_float+1)^(0+128)
  5648     021E  1283               	bcf	3,5	;RP0=0, select bank0
  5649     021F  1303               	bcf	3,6	;RP1=0, select bank0
  5650     0220  0820               	movf	?___fldiv,w
  5651     0221  1683               	bsf	3,5	;RP0=1, select bank1
  5652     0222  1303               	bcf	3,6	;RP1=0, select bank1
  5653     0223  00A9               	movwf	floattostr@tempo_float^(0+128)
  5654     0224                     l3183:
  5655     0224  3001               	movlw	1
  5656     0225  07AF               	addwf	floattostr@cont_for^(0+128),f
  5657     0226  1803               	skipnc
  5658     0227  0AB0               	incf	(floattostr@cont_for+1)^(0+128),f
  5659     0228  3000               	movlw	0
  5660     0229  07B0               	addwf	(floattostr@cont_for+1)^(0+128),f
  5661     022A                     l3185:
  5662     022A  0830               	movf	(floattostr@cont_for+1)^(0+128),w
  5663     022B  3A80               	xorlw	128
  5664     022C  00A6               	movwf	??_floattostr^(0+128)
  5665     022D  082E               	movf	(floattostr@largo_n+1)^(0+128),w
  5666     022E  3A80               	xorlw	128
  5667     022F  0226               	subwf	??_floattostr^(0+128),w
  5668     0230  1D03               	skipz
  5669     0231  2A34               	goto	u4135
  5670     0232  082D               	movf	floattostr@largo_n^(0+128),w
  5671     0233  022F               	subwf	floattostr@cont_for^(0+128),w
  5672     0234                     u4135:
  5673     0234  1C03               	skipc
  5674     0235  2A37               	goto	u4131
  5675     0236  2A38               	goto	u4130
  5676     0237                     u4131:
  5677     0237  29E5               	goto	l3181
  5678     0238                     u4130:
  5679     0238                     l3187:
  5680                           
  5681                           ;./float_str.h: 37:     numero_ += tempo_float/2.0;
  5682     0238  1683               	bsf	3,5	;RP0=1, select bank1
  5683     0239  1303               	bcf	3,6	;RP1=0, select bank1
  5684     023A  082C               	movf	(floattostr@tempo_float+3)^(0+128),w
  5685     023B  1283               	bcf	3,5	;RP0=0, select bank0
  5686     023C  1303               	bcf	3,6	;RP1=0, select bank0
  5687     023D  00A7               	movwf	___fldiv@b+3
  5688     023E  1683               	bsf	3,5	;RP0=1, select bank1
  5689     023F  1303               	bcf	3,6	;RP1=0, select bank1
  5690     0240  082B               	movf	(floattostr@tempo_float+2)^(0+128),w
  5691     0241  1283               	bcf	3,5	;RP0=0, select bank0
  5692     0242  1303               	bcf	3,6	;RP1=0, select bank0
  5693     0243  00A6               	movwf	___fldiv@b+2
  5694     0244  1683               	bsf	3,5	;RP0=1, select bank1
  5695     0245  1303               	bcf	3,6	;RP1=0, select bank1
  5696     0246  082A               	movf	(floattostr@tempo_float+1)^(0+128),w
  5697     0247  1283               	bcf	3,5	;RP0=0, select bank0
  5698     0248  1303               	bcf	3,6	;RP1=0, select bank0
  5699     0249  00A5               	movwf	___fldiv@b+1
  5700     024A  1683               	bsf	3,5	;RP0=1, select bank1
  5701     024B  1303               	bcf	3,6	;RP1=0, select bank1
  5702     024C  0829               	movf	floattostr@tempo_float^(0+128),w
  5703     024D  1283               	bcf	3,5	;RP0=0, select bank0
  5704     024E  1303               	bcf	3,6	;RP1=0, select bank0
  5705     024F  00A4               	movwf	___fldiv@b
  5706     0250  3040               	movlw	64
  5707     0251  00A3               	movwf	___fldiv@a+3
  5708     0252  3000               	movlw	0
  5709     0253  00A2               	movwf	___fldiv@a+2
  5710     0254  3000               	movlw	0
  5711     0255  00A1               	movwf	___fldiv@a+1
  5712     0256  3000               	movlw	0
  5713     0257  00A0               	movwf	___fldiv@a
  5714     0258  120A  158A  21A1  120A  118A  	fcall	___fldiv
  5715     025D  1283               	bcf	3,5	;RP0=0, select bank0
  5716     025E  1303               	bcf	3,6	;RP1=0, select bank0
  5717     025F  0823               	movf	?___fldiv+3,w
  5718     0260  00D7               	movwf	___fladd@b+3
  5719     0261  0822               	movf	?___fldiv+2,w
  5720     0262  00D6               	movwf	___fladd@b+2
  5721     0263  0821               	movf	?___fldiv+1,w
  5722     0264  00D5               	movwf	___fladd@b+1
  5723     0265  0820               	movf	?___fldiv,w
  5724     0266  00D4               	movwf	___fladd@b
  5725     0267  1683               	bsf	3,5	;RP0=1, select bank1
  5726     0268  1303               	bcf	3,6	;RP1=0, select bank1
  5727     0269  0823               	movf	(floattostr@numero_+3)^(0+128),w
  5728     026A  1283               	bcf	3,5	;RP0=0, select bank0
  5729     026B  1303               	bcf	3,6	;RP1=0, select bank0
  5730     026C  00DB               	movwf	___fladd@a+3
  5731     026D  1683               	bsf	3,5	;RP0=1, select bank1
  5732     026E  1303               	bcf	3,6	;RP1=0, select bank1
  5733     026F  0822               	movf	(floattostr@numero_+2)^(0+128),w
  5734     0270  1283               	bcf	3,5	;RP0=0, select bank0
  5735     0271  1303               	bcf	3,6	;RP1=0, select bank0
  5736     0272  00DA               	movwf	___fladd@a+2
  5737     0273  1683               	bsf	3,5	;RP0=1, select bank1
  5738     0274  1303               	bcf	3,6	;RP1=0, select bank1
  5739     0275  0821               	movf	(floattostr@numero_+1)^(0+128),w
  5740     0276  1283               	bcf	3,5	;RP0=0, select bank0
  5741     0277  1303               	bcf	3,6	;RP1=0, select bank0
  5742     0278  00D9               	movwf	___fladd@a+1
  5743     0279  1683               	bsf	3,5	;RP0=1, select bank1
  5744     027A  1303               	bcf	3,6	;RP1=0, select bank1
  5745     027B  0820               	movf	floattostr@numero_^(0+128),w
  5746     027C  1283               	bcf	3,5	;RP0=0, select bank0
  5747     027D  1303               	bcf	3,6	;RP1=0, select bank0
  5748     027E  00D8               	movwf	___fladd@a
  5749     027F  120A  158A  25A8  120A  118A  	fcall	___fladd
  5750     0284  1283               	bcf	3,5	;RP0=0, select bank0
  5751     0285  1303               	bcf	3,6	;RP1=0, select bank0
  5752     0286  0857               	movf	?___fladd+3,w
  5753     0287  1683               	bsf	3,5	;RP0=1, select bank1
  5754     0288  1303               	bcf	3,6	;RP1=0, select bank1
  5755     0289  00A3               	movwf	(floattostr@numero_+3)^(0+128)
  5756     028A  1283               	bcf	3,5	;RP0=0, select bank0
  5757     028B  1303               	bcf	3,6	;RP1=0, select bank0
  5758     028C  0856               	movf	?___fladd+2,w
  5759     028D  1683               	bsf	3,5	;RP0=1, select bank1
  5760     028E  1303               	bcf	3,6	;RP1=0, select bank1
  5761     028F  00A2               	movwf	(floattostr@numero_+2)^(0+128)
  5762     0290  1283               	bcf	3,5	;RP0=0, select bank0
  5763     0291  1303               	bcf	3,6	;RP1=0, select bank0
  5764     0292  0855               	movf	?___fladd+1,w
  5765     0293  1683               	bsf	3,5	;RP0=1, select bank1
  5766     0294  1303               	bcf	3,6	;RP1=0, select bank1
  5767     0295  00A1               	movwf	(floattostr@numero_+1)^(0+128)
  5768     0296  1283               	bcf	3,5	;RP0=0, select bank0
  5769     0297  1303               	bcf	3,6	;RP1=0, select bank0
  5770     0298  0854               	movf	?___fladd,w
  5771     0299  1683               	bsf	3,5	;RP0=1, select bank1
  5772     029A  1303               	bcf	3,6	;RP1=0, select bank1
  5773     029B  00A0               	movwf	floattostr@numero_^(0+128)
  5774     029C                     l3189:
  5775                           
  5776                           ;./float_str.h: 38:     if(numero_ >= 10.0)
  5777     029C  0823               	movf	(floattostr@numero_+3)^(0+128),w
  5778     029D  1283               	bcf	3,5	;RP0=0, select bank0
  5779     029E  1303               	bcf	3,6	;RP1=0, select bank0
  5780     029F  00A3               	movwf	___flge@ff1+3
  5781     02A0  1683               	bsf	3,5	;RP0=1, select bank1
  5782     02A1  1303               	bcf	3,6	;RP1=0, select bank1
  5783     02A2  0822               	movf	(floattostr@numero_+2)^(0+128),w
  5784     02A3  1283               	bcf	3,5	;RP0=0, select bank0
  5785     02A4  1303               	bcf	3,6	;RP1=0, select bank0
  5786     02A5  00A2               	movwf	___flge@ff1+2
  5787     02A6  1683               	bsf	3,5	;RP0=1, select bank1
  5788     02A7  1303               	bcf	3,6	;RP1=0, select bank1
  5789     02A8  0821               	movf	(floattostr@numero_+1)^(0+128),w
  5790     02A9  1283               	bcf	3,5	;RP0=0, select bank0
  5791     02AA  1303               	bcf	3,6	;RP1=0, select bank0
  5792     02AB  00A1               	movwf	___flge@ff1+1
  5793     02AC  1683               	bsf	3,5	;RP0=1, select bank1
  5794     02AD  1303               	bcf	3,6	;RP1=0, select bank1
  5795     02AE  0820               	movf	floattostr@numero_^(0+128),w
  5796     02AF  1283               	bcf	3,5	;RP0=0, select bank0
  5797     02B0  1303               	bcf	3,6	;RP1=0, select bank0
  5798     02B1  00A0               	movwf	___flge@ff1
  5799     02B2  3041               	movlw	65
  5800     02B3  00A7               	movwf	___flge@ff2+3
  5801     02B4  3020               	movlw	32
  5802     02B5  00A6               	movwf	___flge@ff2+2
  5803     02B6  3000               	movlw	0
  5804     02B7  00A5               	movwf	___flge@ff2+1
  5805     02B8  3000               	movlw	0
  5806     02B9  00A4               	movwf	___flge@ff2
  5807     02BA  160A  118A  254B  120A  118A  	fcall	___flge
  5808     02BF  1C03               	btfss	3,0
  5809     02C0  2AC2               	goto	u4141
  5810     02C1  2AC3               	goto	u4140
  5811     02C2                     u4141:
  5812     02C2  2AD3               	goto	l3193
  5813     02C3                     u4140:
  5814     02C3                     l3191:
  5815                           
  5816                           ;./float_str.h: 39:     {;./float_str.h: 40:         numero_ = 1.0; largo_entera++;
  5817     02C3  303F               	movlw	63
  5818     02C4  1683               	bsf	3,5	;RP0=1, select bank1
  5819     02C5  1303               	bcf	3,6	;RP1=0, select bank1
  5820     02C6  00A3               	movwf	(floattostr@numero_+3)^(0+128)
  5821     02C7  3080               	movlw	128
  5822     02C8  00A2               	movwf	(floattostr@numero_+2)^(0+128)
  5823     02C9  3000               	movlw	0
  5824     02CA  00A1               	movwf	(floattostr@numero_+1)^(0+128)
  5825     02CB  3000               	movlw	0
  5826     02CC  00A0               	movwf	floattostr@numero_^(0+128)
  5827     02CD  3001               	movlw	1
  5828     02CE  07B1               	addwf	floattostr@largo_entera^(0+128),f
  5829     02CF  1803               	skipnc
  5830     02D0  0AB2               	incf	(floattostr@largo_entera+1)^(0+128),f
  5831     02D1  3000               	movlw	0
  5832     02D2  07B2               	addwf	(floattostr@largo_entera+1)^(0+128),f
  5833     02D3                     l3193:
  5834                           
  5835                           ;./float_str.h: 42:     if(largo_entera<0)
  5836     02D3  1683               	bsf	3,5	;RP0=1, select bank1
  5837     02D4  1303               	bcf	3,6	;RP1=0, select bank1
  5838     02D5  1FB2               	btfss	(floattostr@largo_entera+1)^(0+128),7
  5839     02D6  2AD8               	goto	u4151
  5840     02D7  2AD9               	goto	u4150
  5841     02D8                     u4151:
  5842     02D8  2B1A               	goto	l3215
  5843     02D9                     u4150:
  5844     02D9                     l3195:
  5845                           
  5846                           ;./float_str.h: 43:     {;./float_str.h: 44:         *cadena_++ = '0'; *cadena_++ = '.';
  5847     02D9  0824               	movf	floattostr@cadena_^(0+128),w
  5848     02DA  0084               	movwf	4
  5849     02DB  3030               	movlw	48
  5850     02DC  1783               	bsf	3,7	;select IRP bank2
  5851     02DD  0080               	movwf	0
  5852     02DE                     l3197:
  5853     02DE  3001               	movlw	1
  5854     02DF  00A6               	movwf	??_floattostr^(0+128)
  5855     02E0  0826               	movf	??_floattostr^(0+128),w
  5856     02E1  07A4               	addwf	floattostr@cadena_^(0+128),f
  5857     02E2                     l3199:
  5858     02E2  0824               	movf	floattostr@cadena_^(0+128),w
  5859     02E3  0084               	movwf	4
  5860     02E4  302E               	movlw	46
  5861     02E5  0080               	movwf	0
  5862     02E6  3001               	movlw	1
  5863     02E7  00A6               	movwf	??_floattostr^(0+128)
  5864     02E8  0826               	movf	??_floattostr^(0+128),w
  5865     02E9  07A4               	addwf	floattostr@cadena_^(0+128),f
  5866     02EA                     l3201:
  5867                           
  5868                           ;./float_str.h: 45:         if(largo_n < 0) largo_entera = largo_entera-largo_n;
  5869     02EA  1FAE               	btfss	(floattostr@largo_n+1)^(0+128),7
  5870     02EB  2AED               	goto	u4161
  5871     02EC  2AEE               	goto	u4160
  5872     02ED                     u4161:
  5873     02ED  2AF6               	goto	l3205
  5874     02EE                     u4160:
  5875     02EE                     l3203:
  5876     02EE  082D               	movf	floattostr@largo_n^(0+128),w
  5877     02EF  0231               	subwf	floattostr@largo_entera^(0+128),w
  5878     02F0  00B1               	movwf	floattostr@largo_entera^(0+128)
  5879     02F1  082E               	movf	(floattostr@largo_n+1)^(0+128),w
  5880     02F2  1C03               	skipc
  5881     02F3  0A2E               	incf	(floattostr@largo_n+1)^(0+128),w
  5882     02F4  0232               	subwf	(floattostr@largo_entera+1)^(0+128),w
  5883     02F5  00B2               	movwf	(floattostr@largo_entera+1)^(0+128)
  5884     02F6                     l3205:
  5885                           
  5886                           ;./float_str.h: 46:         for(cont_for = -1; cont_for > largo_entera; cont_for--) *cad
      +                          ena_++ = '0';
  5887     02F6  30FF               	movlw	255
  5888     02F7  00AF               	movwf	floattostr@cont_for^(0+128)
  5889     02F8  30FF               	movlw	255
  5890     02F9  00B0               	movwf	(floattostr@cont_for^(0+128)+1)
  5891     02FA  2B0C               	goto	l3213
  5892     02FB                     l3207:
  5893     02FB  1683               	bsf	3,5	;RP0=1, select bank1
  5894     02FC  1303               	bcf	3,6	;RP1=0, select bank1
  5895     02FD  0824               	movf	floattostr@cadena_^(0+128),w
  5896     02FE  0084               	movwf	4
  5897     02FF  3030               	movlw	48
  5898     0300  1783               	bsf	3,7	;select IRP bank2
  5899     0301  0080               	movwf	0
  5900     0302                     l3209:
  5901     0302  3001               	movlw	1
  5902     0303  00A6               	movwf	??_floattostr^(0+128)
  5903     0304  0826               	movf	??_floattostr^(0+128),w
  5904     0305  07A4               	addwf	floattostr@cadena_^(0+128),f
  5905     0306                     l3211:
  5906     0306  30FF               	movlw	255
  5907     0307  07AF               	addwf	floattostr@cont_for^(0+128),f
  5908     0308  1803               	skipnc
  5909     0309  0AB0               	incf	(floattostr@cont_for+1)^(0+128),f
  5910     030A  30FF               	movlw	255
  5911     030B  07B0               	addwf	(floattostr@cont_for+1)^(0+128),f
  5912     030C                     l3213:
  5913     030C  0832               	movf	(floattostr@largo_entera+1)^(0+128),w
  5914     030D  3A80               	xorlw	128
  5915     030E  00A6               	movwf	??_floattostr^(0+128)
  5916     030F  0830               	movf	(floattostr@cont_for+1)^(0+128),w
  5917     0310  3A80               	xorlw	128
  5918     0311  0226               	subwf	??_floattostr^(0+128),w
  5919     0312  1D03               	skipz
  5920     0313  2B16               	goto	u4175
  5921     0314  082F               	movf	floattostr@cont_for^(0+128),w
  5922     0315  0231               	subwf	floattostr@largo_entera^(0+128),w
  5923     0316                     u4175:
  5924     0316  1C03               	skipc
  5925     0317  2B19               	goto	u4171
  5926     0318  2B1A               	goto	u4170
  5927     0319                     u4171:
  5928     0319  2AFB               	goto	l3207
  5929     031A                     u4170:
  5930     031A                     l3215:
  5931                           
  5932                           ;./float_str.h: 48:     for(cont_for=0; cont_for < largo_n; cont_for++)
  5933     031A  1683               	bsf	3,5	;RP0=1, select bank1
  5934     031B  1303               	bcf	3,6	;RP1=0, select bank1
  5935     031C  01AF               	clrf	floattostr@cont_for^(0+128)
  5936     031D  01B0               	clrf	(floattostr@cont_for+1)^(0+128)
  5937     031E  2C21               	goto	l3235
  5938     031F                     l3217:
  5939                           
  5940                           ;./float_str.h: 49:     {;./float_str.h: 50:         tempo_int = numero_;
  5941     031F  1683               	bsf	3,5	;RP0=1, select bank1
  5942     0320  1303               	bcf	3,6	;RP1=0, select bank1
  5943     0321  0823               	movf	(floattostr@numero_+3)^(0+128),w
  5944     0322  1283               	bcf	3,5	;RP0=0, select bank0
  5945     0323  1303               	bcf	3,6	;RP1=0, select bank0
  5946     0324  00A3               	movwf	___fltol@f1+3
  5947     0325  1683               	bsf	3,5	;RP0=1, select bank1
  5948     0326  1303               	bcf	3,6	;RP1=0, select bank1
  5949     0327  0822               	movf	(floattostr@numero_+2)^(0+128),w
  5950     0328  1283               	bcf	3,5	;RP0=0, select bank0
  5951     0329  1303               	bcf	3,6	;RP1=0, select bank0
  5952     032A  00A2               	movwf	___fltol@f1+2
  5953     032B  1683               	bsf	3,5	;RP0=1, select bank1
  5954     032C  1303               	bcf	3,6	;RP1=0, select bank1
  5955     032D  0821               	movf	(floattostr@numero_+1)^(0+128),w
  5956     032E  1283               	bcf	3,5	;RP0=0, select bank0
  5957     032F  1303               	bcf	3,6	;RP1=0, select bank0
  5958     0330  00A1               	movwf	___fltol@f1+1
  5959     0331  1683               	bsf	3,5	;RP0=1, select bank1
  5960     0332  1303               	bcf	3,6	;RP1=0, select bank1
  5961     0333  0820               	movf	floattostr@numero_^(0+128),w
  5962     0334  1283               	bcf	3,5	;RP0=0, select bank0
  5963     0335  1303               	bcf	3,6	;RP1=0, select bank0
  5964     0336  00A0               	movwf	___fltol@f1
  5965     0337  160A  118A  2448  120A  118A  	fcall	___fltol
  5966     033C  1283               	bcf	3,5	;RP0=0, select bank0
  5967     033D  1303               	bcf	3,6	;RP1=0, select bank0
  5968     033E  0821               	movf	?___fltol+1,w
  5969     033F  1683               	bsf	3,5	;RP0=1, select bank1
  5970     0340  1303               	bcf	3,6	;RP1=0, select bank1
  5971     0341  00A8               	movwf	(floattostr@tempo_int+1)^(0+128)
  5972     0342  1283               	bcf	3,5	;RP0=0, select bank0
  5973     0343  1303               	bcf	3,6	;RP1=0, select bank0
  5974     0344  0820               	movf	?___fltol,w
  5975     0345  1683               	bsf	3,5	;RP0=1, select bank1
  5976     0346  1303               	bcf	3,6	;RP1=0, select bank1
  5977     0347  00A7               	movwf	floattostr@tempo_int^(0+128)
  5978     0348                     l3219:
  5979                           
  5980                           ;./float_str.h: 51:         *cadena_++ = tempo_int + 48;
  5981     0348  0824               	movf	floattostr@cadena_^(0+128),w
  5982     0349  0084               	movwf	4
  5983     034A  0827               	movf	floattostr@tempo_int^(0+128),w
  5984     034B  3E30               	addlw	48
  5985     034C  1783               	bsf	3,7	;select IRP bank2
  5986     034D  0080               	movwf	0
  5987     034E                     l3221:
  5988     034E  3001               	movlw	1
  5989     034F  00A6               	movwf	??_floattostr^(0+128)
  5990     0350  0826               	movf	??_floattostr^(0+128),w
  5991     0351  07A4               	addwf	floattostr@cadena_^(0+128),f
  5992     0352                     l3223:
  5993                           
  5994                           ;./float_str.h: 52:         if (cont_for == largo_entera ) *cadena_++ = '.';
  5995     0352  0832               	movf	(floattostr@largo_entera+1)^(0+128),w
  5996     0353  0630               	xorwf	(floattostr@cont_for+1)^(0+128),w
  5997     0354  1D03               	skipz
  5998     0355  2B58               	goto	u4185
  5999     0356  0831               	movf	floattostr@largo_entera^(0+128),w
  6000     0357  062F               	xorwf	floattostr@cont_for^(0+128),w
  6001     0358                     u4185:
  6002     0358  1D03               	skipz
  6003     0359  2B5B               	goto	u4181
  6004     035A  2B5C               	goto	u4180
  6005     035B                     u4181:
  6006     035B  2B64               	goto	l3229
  6007     035C                     u4180:
  6008     035C                     l3225:
  6009     035C  0824               	movf	floattostr@cadena_^(0+128),w
  6010     035D  0084               	movwf	4
  6011     035E  302E               	movlw	46
  6012     035F  0080               	movwf	0
  6013     0360                     l3227:
  6014     0360  3001               	movlw	1
  6015     0361  00A6               	movwf	??_floattostr^(0+128)
  6016     0362  0826               	movf	??_floattostr^(0+128),w
  6017     0363  07A4               	addwf	floattostr@cadena_^(0+128),f
  6018     0364                     l3229:
  6019                           
  6020                           ;./float_str.h: 53:         numero_ -= (tempo_float=tempo_int);
  6021     0364  0827               	movf	floattostr@tempo_int^(0+128),w
  6022     0365  1283               	bcf	3,5	;RP0=0, select bank0
  6023     0366  1303               	bcf	3,6	;RP1=0, select bank0
  6024     0367  00A6               	movwf	___xxtofl@val
  6025     0368  1683               	bsf	3,5	;RP0=1, select bank1
  6026     0369  1303               	bcf	3,6	;RP1=0, select bank1
  6027     036A  0828               	movf	(floattostr@tempo_int+1)^(0+128),w
  6028     036B  1283               	bcf	3,5	;RP0=0, select bank0
  6029     036C  1303               	bcf	3,6	;RP1=0, select bank0
  6030     036D  00A7               	movwf	___xxtofl@val+1
  6031     036E  3000               	movlw	0
  6032     036F  1BA7               	btfsc	___xxtofl@val+1,7
  6033     0370  30FF               	movlw	255
  6034     0371  00A8               	movwf	___xxtofl@val+2
  6035     0372  00A9               	movwf	___xxtofl@val+3
  6036     0373  3001               	movlw	1
  6037     0374  160A  118A  25EF  120A  118A  	fcall	___xxtofl
  6038     0379  1283               	bcf	3,5	;RP0=0, select bank0
  6039     037A  1303               	bcf	3,6	;RP1=0, select bank0
  6040     037B  0829               	movf	?___xxtofl+3,w
  6041     037C  1683               	bsf	3,5	;RP0=1, select bank1
  6042     037D  1303               	bcf	3,6	;RP1=0, select bank1
  6043     037E  00AC               	movwf	(floattostr@tempo_float+3)^(0+128)
  6044     037F  1283               	bcf	3,5	;RP0=0, select bank0
  6045     0380  1303               	bcf	3,6	;RP1=0, select bank0
  6046     0381  0828               	movf	?___xxtofl+2,w
  6047     0382  1683               	bsf	3,5	;RP0=1, select bank1
  6048     0383  1303               	bcf	3,6	;RP1=0, select bank1
  6049     0384  00AB               	movwf	(floattostr@tempo_float+2)^(0+128)
  6050     0385  1283               	bcf	3,5	;RP0=0, select bank0
  6051     0386  1303               	bcf	3,6	;RP1=0, select bank0
  6052     0387  0827               	movf	?___xxtofl+1,w
  6053     0388  1683               	bsf	3,5	;RP0=1, select bank1
  6054     0389  1303               	bcf	3,6	;RP1=0, select bank1
  6055     038A  00AA               	movwf	(floattostr@tempo_float+1)^(0+128)
  6056     038B  1283               	bcf	3,5	;RP0=0, select bank0
  6057     038C  1303               	bcf	3,6	;RP1=0, select bank0
  6058     038D  0826               	movf	?___xxtofl,w
  6059     038E  1683               	bsf	3,5	;RP0=1, select bank1
  6060     038F  1303               	bcf	3,6	;RP1=0, select bank1
  6061     0390  00A9               	movwf	floattostr@tempo_float^(0+128)
  6062     0391  082C               	movf	(floattostr@tempo_float+3)^(0+128),w
  6063     0392  1283               	bcf	3,5	;RP0=0, select bank0
  6064     0393  1303               	bcf	3,6	;RP1=0, select bank0
  6065     0394  00EB               	movwf	___flsub@a+3
  6066     0395  1683               	bsf	3,5	;RP0=1, select bank1
  6067     0396  1303               	bcf	3,6	;RP1=0, select bank1
  6068     0397  082B               	movf	(floattostr@tempo_float+2)^(0+128),w
  6069     0398  1283               	bcf	3,5	;RP0=0, select bank0
  6070     0399  1303               	bcf	3,6	;RP1=0, select bank0
  6071     039A  00EA               	movwf	___flsub@a+2
  6072     039B  1683               	bsf	3,5	;RP0=1, select bank1
  6073     039C  1303               	bcf	3,6	;RP1=0, select bank1
  6074     039D  082A               	movf	(floattostr@tempo_float+1)^(0+128),w
  6075     039E  1283               	bcf	3,5	;RP0=0, select bank0
  6076     039F  1303               	bcf	3,6	;RP1=0, select bank0
  6077     03A0  00E9               	movwf	___flsub@a+1
  6078     03A1  1683               	bsf	3,5	;RP0=1, select bank1
  6079     03A2  1303               	bcf	3,6	;RP1=0, select bank1
  6080     03A3  0829               	movf	floattostr@tempo_float^(0+128),w
  6081     03A4  1283               	bcf	3,5	;RP0=0, select bank0
  6082     03A5  1303               	bcf	3,6	;RP1=0, select bank0
  6083     03A6  00E8               	movwf	___flsub@a
  6084     03A7  1683               	bsf	3,5	;RP0=1, select bank1
  6085     03A8  1303               	bcf	3,6	;RP1=0, select bank1
  6086     03A9  0823               	movf	(floattostr@numero_+3)^(0+128),w
  6087     03AA  1283               	bcf	3,5	;RP0=0, select bank0
  6088     03AB  1303               	bcf	3,6	;RP1=0, select bank0
  6089     03AC  00EF               	movwf	___flsub@b+3
  6090     03AD  1683               	bsf	3,5	;RP0=1, select bank1
  6091     03AE  1303               	bcf	3,6	;RP1=0, select bank1
  6092     03AF  0822               	movf	(floattostr@numero_+2)^(0+128),w
  6093     03B0  1283               	bcf	3,5	;RP0=0, select bank0
  6094     03B1  1303               	bcf	3,6	;RP1=0, select bank0
  6095     03B2  00EE               	movwf	___flsub@b+2
  6096     03B3  1683               	bsf	3,5	;RP0=1, select bank1
  6097     03B4  1303               	bcf	3,6	;RP1=0, select bank1
  6098     03B5  0821               	movf	(floattostr@numero_+1)^(0+128),w
  6099     03B6  1283               	bcf	3,5	;RP0=0, select bank0
  6100     03B7  1303               	bcf	3,6	;RP1=0, select bank0
  6101     03B8  00ED               	movwf	___flsub@b+1
  6102     03B9  1683               	bsf	3,5	;RP0=1, select bank1
  6103     03BA  1303               	bcf	3,6	;RP1=0, select bank1
  6104     03BB  0820               	movf	floattostr@numero_^(0+128),w
  6105     03BC  1283               	bcf	3,5	;RP0=0, select bank0
  6106     03BD  1303               	bcf	3,6	;RP1=0, select bank0
  6107     03BE  00EC               	movwf	___flsub@b
  6108     03BF  160A  158A  2643  120A  118A  	fcall	___flsub
  6109     03C4  1283               	bcf	3,5	;RP0=0, select bank0
  6110     03C5  1303               	bcf	3,6	;RP1=0, select bank0
  6111     03C6  086B               	movf	?___flsub+3,w
  6112     03C7  1683               	bsf	3,5	;RP0=1, select bank1
  6113     03C8  1303               	bcf	3,6	;RP1=0, select bank1
  6114     03C9  00A3               	movwf	(floattostr@numero_+3)^(0+128)
  6115     03CA  1283               	bcf	3,5	;RP0=0, select bank0
  6116     03CB  1303               	bcf	3,6	;RP1=0, select bank0
  6117     03CC  086A               	movf	?___flsub+2,w
  6118     03CD  1683               	bsf	3,5	;RP0=1, select bank1
  6119     03CE  1303               	bcf	3,6	;RP1=0, select bank1
  6120     03CF  00A2               	movwf	(floattostr@numero_+2)^(0+128)
  6121     03D0  1283               	bcf	3,5	;RP0=0, select bank0
  6122     03D1  1303               	bcf	3,6	;RP1=0, select bank0
  6123     03D2  0869               	movf	?___flsub+1,w
  6124     03D3  1683               	bsf	3,5	;RP0=1, select bank1
  6125     03D4  1303               	bcf	3,6	;RP1=0, select bank1
  6126     03D5  00A1               	movwf	(floattostr@numero_+1)^(0+128)
  6127     03D6  1283               	bcf	3,5	;RP0=0, select bank0
  6128     03D7  1303               	bcf	3,6	;RP1=0, select bank0
  6129     03D8  0868               	movf	?___flsub,w
  6130     03D9  1683               	bsf	3,5	;RP0=1, select bank1
  6131     03DA  1303               	bcf	3,6	;RP1=0, select bank1
  6132     03DB  00A0               	movwf	floattostr@numero_^(0+128)
  6133     03DC                     l3231:
  6134                           
  6135                           ;./float_str.h: 54:         numero_ = numero_*10.0;
  6136     03DC  3041               	movlw	65
  6137     03DD  1283               	bcf	3,5	;RP0=0, select bank0
  6138     03DE  1303               	bcf	3,6	;RP1=0, select bank0
  6139     03DF  00BD               	movwf	___flmul@b+3
  6140     03E0  3020               	movlw	32
  6141     03E1  00BC               	movwf	___flmul@b+2
  6142     03E2  3000               	movlw	0
  6143     03E3  00BB               	movwf	___flmul@b+1
  6144     03E4  3000               	movlw	0
  6145     03E5  00BA               	movwf	___flmul@b
  6146     03E6  1683               	bsf	3,5	;RP0=1, select bank1
  6147     03E7  1303               	bcf	3,6	;RP1=0, select bank1
  6148     03E8  0823               	movf	(floattostr@numero_+3)^(0+128),w
  6149     03E9  1283               	bcf	3,5	;RP0=0, select bank0
  6150     03EA  1303               	bcf	3,6	;RP1=0, select bank0
  6151     03EB  00C1               	movwf	___flmul@a+3
  6152     03EC  1683               	bsf	3,5	;RP0=1, select bank1
  6153     03ED  1303               	bcf	3,6	;RP1=0, select bank1
  6154     03EE  0822               	movf	(floattostr@numero_+2)^(0+128),w
  6155     03EF  1283               	bcf	3,5	;RP0=0, select bank0
  6156     03F0  1303               	bcf	3,6	;RP1=0, select bank0
  6157     03F1  00C0               	movwf	___flmul@a+2
  6158     03F2  1683               	bsf	3,5	;RP0=1, select bank1
  6159     03F3  1303               	bcf	3,6	;RP1=0, select bank1
  6160     03F4  0821               	movf	(floattostr@numero_+1)^(0+128),w
  6161     03F5  1283               	bcf	3,5	;RP0=0, select bank0
  6162     03F6  1303               	bcf	3,6	;RP1=0, select bank0
  6163     03F7  00BF               	movwf	___flmul@a+1
  6164     03F8  1683               	bsf	3,5	;RP0=1, select bank1
  6165     03F9  1303               	bcf	3,6	;RP1=0, select bank1
  6166     03FA  0820               	movf	floattostr@numero_^(0+128),w
  6167     03FB  1283               	bcf	3,5	;RP0=0, select bank0
  6168     03FC  1303               	bcf	3,6	;RP1=0, select bank0
  6169     03FD  00BE               	movwf	___flmul@a
  6170     03FE  120A  118A  2436  120A  118A  	fcall	___flmul
  6171     0403  1283               	bcf	3,5	;RP0=0, select bank0
  6172     0404  1303               	bcf	3,6	;RP1=0, select bank0
  6173     0405  083D               	movf	?___flmul+3,w
  6174     0406  1683               	bsf	3,5	;RP0=1, select bank1
  6175     0407  1303               	bcf	3,6	;RP1=0, select bank1
  6176     0408  00A3               	movwf	(floattostr@numero_+3)^(0+128)
  6177     0409  1283               	bcf	3,5	;RP0=0, select bank0
  6178     040A  1303               	bcf	3,6	;RP1=0, select bank0
  6179     040B  083C               	movf	?___flmul+2,w
  6180     040C  1683               	bsf	3,5	;RP0=1, select bank1
  6181     040D  1303               	bcf	3,6	;RP1=0, select bank1
  6182     040E  00A2               	movwf	(floattostr@numero_+2)^(0+128)
  6183     040F  1283               	bcf	3,5	;RP0=0, select bank0
  6184     0410  1303               	bcf	3,6	;RP1=0, select bank0
  6185     0411  083B               	movf	?___flmul+1,w
  6186     0412  1683               	bsf	3,5	;RP0=1, select bank1
  6187     0413  1303               	bcf	3,6	;RP1=0, select bank1
  6188     0414  00A1               	movwf	(floattostr@numero_+1)^(0+128)
  6189     0415  1283               	bcf	3,5	;RP0=0, select bank0
  6190     0416  1303               	bcf	3,6	;RP1=0, select bank0
  6191     0417  083A               	movf	?___flmul,w
  6192     0418  1683               	bsf	3,5	;RP0=1, select bank1
  6193     0419  1303               	bcf	3,6	;RP1=0, select bank1
  6194     041A  00A0               	movwf	floattostr@numero_^(0+128)
  6195     041B                     l3233:
  6196                           
  6197                           ;./float_str.h: 55:     }
  6198     041B  3001               	movlw	1
  6199     041C  07AF               	addwf	floattostr@cont_for^(0+128),f
  6200     041D  1803               	skipnc
  6201     041E  0AB0               	incf	(floattostr@cont_for+1)^(0+128),f
  6202     041F  3000               	movlw	0
  6203     0420  07B0               	addwf	(floattostr@cont_for+1)^(0+128),f
  6204     0421                     l3235:
  6205     0421  0830               	movf	(floattostr@cont_for+1)^(0+128),w
  6206     0422  3A80               	xorlw	128
  6207     0423  00A6               	movwf	??_floattostr^(0+128)
  6208     0424  082E               	movf	(floattostr@largo_n+1)^(0+128),w
  6209     0425  3A80               	xorlw	128
  6210     0426  0226               	subwf	??_floattostr^(0+128),w
  6211     0427  1D03               	skipz
  6212     0428  2C2B               	goto	u4195
  6213     0429  082D               	movf	floattostr@largo_n^(0+128),w
  6214     042A  022F               	subwf	floattostr@cont_for^(0+128),w
  6215     042B                     u4195:
  6216     042B  1C03               	skipc
  6217     042C  2C2E               	goto	u4191
  6218     042D  2C2F               	goto	u4190
  6219     042E                     u4191:
  6220     042E  2B1F               	goto	l3217
  6221     042F                     u4190:
  6222     042F                     l3237:
  6223                           
  6224                           ;./float_str.h: 56:     *cadena_ = 0;
  6225     042F  1683               	bsf	3,5	;RP0=1, select bank1
  6226     0430  1303               	bcf	3,6	;RP1=0, select bank1
  6227     0431  0824               	movf	floattostr@cadena_^(0+128),w
  6228     0432  0084               	movwf	4
  6229     0433  1783               	bsf	3,7	;select IRP bank2
  6230     0434  0180               	clrf	0
  6231     0435                     l112:
  6232     0435  0008               	return
  6233     0436                     __end_of_floattostr:
  6234                           
  6235                           	psect	text24
  6236     15EF                     __ptext24:	
  6237 ;; *************** function ___xxtofl *****************
  6238 ;; Defined at:
  6239 ;;		line 10 in file "C:\Program Files\Microchip\xc8\v2.40\pic\sources\c90\common\xxtofl.c"
  6240 ;; Parameters:    Size  Location     Type
  6241 ;;  sign            1    wreg     unsigned char 
  6242 ;;  val             4    6[BANK0 ] long 
  6243 ;; Auto vars:     Size  Location     Type
  6244 ;;  sign            1   14[BANK0 ] unsigned char 
  6245 ;;  arg             4   16[BANK0 ] unsigned long 
  6246 ;;  exp             1   15[BANK0 ] unsigned char 
  6247 ;; Return value:  Size  Location     Type
  6248 ;;                  4    6[BANK0 ] unsigned char 
  6249 ;; Registers used:
  6250 ;;		wreg, status,2, status,0
  6251 ;; Tracked objects:
  6252 ;;		On entry : 0/0
  6253 ;;		On exit  : 0/0
  6254 ;;		Unchanged: 0/0
  6255 ;; Data sizes:     COMMON   BANK0   BANK1   BANK3   BANK2
  6256 ;;      Params:         0       4       0       0       0
  6257 ;;      Locals:         0       6       0       0       0
  6258 ;;      Temps:          0       4       0       0       0
  6259 ;;      Totals:         0      14       0       0       0
  6260 ;;Total ram usage:       14 bytes
  6261 ;; Hardware stack levels used: 1
  6262 ;; Hardware stack levels required when called: 4
  6263 ;; This function calls:
  6264 ;;		Nothing
  6265 ;; This function is called by:
  6266 ;;		_floattostr
  6267 ;;		_AHT10_Read
  6268 ;;		_Slave2
  6269 ;; This function uses a non-reentrant model
  6270 ;;
  6271                           
  6272     15EF                     ___xxtofl:	
  6273                           ;psect for function ___xxtofl
  6274                           
  6275                           
  6276                           ;incstack = 0
  6277                           ; Regs used in ___xxtofl: [wreg+status,2+status,0]
  6278                           ;___xxtofl@sign stored from wreg
  6279     15EF  1283               	bcf	3,5	;RP0=0, select bank0
  6280     15F0  1303               	bcf	3,6	;RP1=0, select bank0
  6281     15F1  00AE               	movwf	___xxtofl@sign
  6282     15F2                     l3095:
  6283     15F2  082E               	movf	___xxtofl@sign,w
  6284     15F3  1903               	btfsc	3,2
  6285     15F4  2DF6               	goto	u3911
  6286     15F5  2DF7               	goto	u3910
  6287     15F6                     u3911:
  6288     15F6  2E0B               	goto	l3101
  6289     15F7                     u3910:
  6290     15F7                     l3097:
  6291     15F7  1FA9               	btfss	___xxtofl@val+3,7
  6292     15F8  2DFA               	goto	u3921
  6293     15F9  2DFB               	goto	u3920
  6294     15FA                     u3921:
  6295     15FA  2E0B               	goto	l3101
  6296     15FB                     u3920:
  6297     15FB                     l3099:
  6298     15FB  0926               	comf	___xxtofl@val,w
  6299     15FC  00B0               	movwf	___xxtofl@arg
  6300     15FD  0927               	comf	___xxtofl@val+1,w
  6301     15FE  00B1               	movwf	___xxtofl@arg+1
  6302     15FF  0928               	comf	___xxtofl@val+2,w
  6303     1600  00B2               	movwf	___xxtofl@arg+2
  6304     1601  0929               	comf	___xxtofl@val+3,w
  6305     1602  00B3               	movwf	___xxtofl@arg+3
  6306     1603  0AB0               	incf	___xxtofl@arg,f
  6307     1604  1903               	skipnz
  6308     1605  0AB1               	incf	___xxtofl@arg+1,f
  6309     1606  1903               	skipnz
  6310     1607  0AB2               	incf	___xxtofl@arg+2,f
  6311     1608  1903               	skipnz
  6312     1609  0AB3               	incf	___xxtofl@arg+3,f
  6313     160A  2E13               	goto	l901
  6314     160B                     l3101:
  6315     160B  0829               	movf	___xxtofl@val+3,w
  6316     160C  00B3               	movwf	___xxtofl@arg+3
  6317     160D  0828               	movf	___xxtofl@val+2,w
  6318     160E  00B2               	movwf	___xxtofl@arg+2
  6319     160F  0827               	movf	___xxtofl@val+1,w
  6320     1610  00B1               	movwf	___xxtofl@arg+1
  6321     1611  0826               	movf	___xxtofl@val,w
  6322     1612  00B0               	movwf	___xxtofl@arg
  6323     1613                     l901:
  6324     1613  0829               	movf	___xxtofl@val+3,w
  6325     1614  0428               	iorwf	___xxtofl@val+2,w
  6326     1615  0427               	iorwf	___xxtofl@val+1,w
  6327     1616  0426               	iorwf	___xxtofl@val,w
  6328     1617  1D03               	skipz
  6329     1618  2E1A               	goto	u3931
  6330     1619  2E1B               	goto	u3930
  6331     161A                     u3931:
  6332     161A  2E24               	goto	l3107
  6333     161B                     u3930:
  6334     161B                     l3103:
  6335     161B  3000               	movlw	0
  6336     161C  00A9               	movwf	?___xxtofl+3
  6337     161D  3000               	movlw	0
  6338     161E  00A8               	movwf	?___xxtofl+2
  6339     161F  3000               	movlw	0
  6340     1620  00A7               	movwf	?___xxtofl+1
  6341     1621  3000               	movlw	0
  6342     1622  00A6               	movwf	?___xxtofl
  6343     1623  2EA8               	goto	l903
  6344     1624                     l3107:
  6345     1624  3096               	movlw	150
  6346     1625  00AF               	movwf	___xxtofl@exp
  6347     1626  2E34               	goto	l3111
  6348     1627                     l3109:
  6349     1627  3001               	movlw	1
  6350     1628  00AA               	movwf	??___xxtofl
  6351     1629  082A               	movf	??___xxtofl,w
  6352     162A  07AF               	addwf	___xxtofl@exp,f
  6353     162B  3001               	movlw	1
  6354     162C                     u3945:
  6355     162C  1003               	clrc
  6356     162D  0CB3               	rrf	___xxtofl@arg+3,f
  6357     162E  0CB2               	rrf	___xxtofl@arg+2,f
  6358     162F  0CB1               	rrf	___xxtofl@arg+1,f
  6359     1630  0CB0               	rrf	___xxtofl@arg,f
  6360     1631  3EFF               	addlw	-1
  6361     1632  1D03               	skipz
  6362     1633  2E2C               	goto	u3945
  6363     1634                     l3111:
  6364     1634  30FE               	movlw	254
  6365     1635  0533               	andwf	___xxtofl@arg+3,w
  6366     1636  1D03               	btfss	3,2
  6367     1637  2E39               	goto	u3951
  6368     1638  2E3A               	goto	u3950
  6369     1639                     u3951:
  6370     1639  2E27               	goto	l3109
  6371     163A                     u3950:
  6372     163A  2E56               	goto	l907
  6373     163B                     l3113:
  6374     163B  3001               	movlw	1
  6375     163C  00AA               	movwf	??___xxtofl
  6376     163D  082A               	movf	??___xxtofl,w
  6377     163E  07AF               	addwf	___xxtofl@exp,f
  6378     163F                     l3115:
  6379     163F  3001               	movlw	1
  6380     1640  07B0               	addwf	___xxtofl@arg,f
  6381     1641  3000               	movlw	0
  6382     1642  1803               	skipnc
  6383     1643  3001               	movlw	1
  6384     1644  07B1               	addwf	___xxtofl@arg+1,f
  6385     1645  3000               	movlw	0
  6386     1646  1803               	skipnc
  6387     1647  3001               	movlw	1
  6388     1648  07B2               	addwf	___xxtofl@arg+2,f
  6389     1649  3000               	movlw	0
  6390     164A  1803               	skipnc
  6391     164B  3001               	movlw	1
  6392     164C  07B3               	addwf	___xxtofl@arg+3,f
  6393     164D                     l3117:
  6394     164D  3001               	movlw	1
  6395     164E                     u3965:
  6396     164E  1003               	clrc
  6397     164F  0CB3               	rrf	___xxtofl@arg+3,f
  6398     1650  0CB2               	rrf	___xxtofl@arg+2,f
  6399     1651  0CB1               	rrf	___xxtofl@arg+1,f
  6400     1652  0CB0               	rrf	___xxtofl@arg,f
  6401     1653  3EFF               	addlw	-1
  6402     1654  1D03               	skipz
  6403     1655  2E4E               	goto	u3965
  6404     1656                     l907:
  6405     1656  30FF               	movlw	255
  6406     1657  0533               	andwf	___xxtofl@arg+3,w
  6407     1658  1D03               	btfss	3,2
  6408     1659  2E5B               	goto	u3971
  6409     165A  2E5C               	goto	u3970
  6410     165B                     u3971:
  6411     165B  2E3B               	goto	l3113
  6412     165C                     u3970:
  6413     165C  2E68               	goto	l3121
  6414     165D                     l3119:
  6415     165D  3001               	movlw	1
  6416     165E  02AF               	subwf	___xxtofl@exp,f
  6417     165F  3001               	movlw	1
  6418     1660  00AA               	movwf	??___xxtofl
  6419     1661                     u3985:
  6420     1661  1003               	clrc
  6421     1662  0DB0               	rlf	___xxtofl@arg,f
  6422     1663  0DB1               	rlf	___xxtofl@arg+1,f
  6423     1664  0DB2               	rlf	___xxtofl@arg+2,f
  6424     1665  0DB3               	rlf	___xxtofl@arg+3,f
  6425     1666  0BAA               	decfsz	??___xxtofl,f
  6426     1667  2E61               	goto	u3985
  6427     1668                     l3121:
  6428     1668  1BB2               	btfsc	___xxtofl@arg+2,7
  6429     1669  2E6B               	goto	u3991
  6430     166A  2E6C               	goto	u3990
  6431     166B                     u3991:
  6432     166B  2E72               	goto	l914
  6433     166C                     u3990:
  6434     166C                     l3123:
  6435     166C  3002               	movlw	2
  6436     166D  022F               	subwf	___xxtofl@exp,w
  6437     166E  1803               	skipnc
  6438     166F  2E71               	goto	u4001
  6439     1670  2E72               	goto	u4000
  6440     1671                     u4001:
  6441     1671  2E5D               	goto	l3119
  6442     1672                     u4000:
  6443     1672                     l914:
  6444     1672  182F               	btfsc	___xxtofl@exp,0
  6445     1673  2E75               	goto	u4011
  6446     1674  2E76               	goto	u4010
  6447     1675                     u4011:
  6448     1675  2E7E               	goto	l915
  6449     1676                     u4010:
  6450     1676                     l3125:
  6451     1676  30FF               	movlw	255
  6452     1677  05B0               	andwf	___xxtofl@arg,f
  6453     1678  30FF               	movlw	255
  6454     1679  05B1               	andwf	___xxtofl@arg+1,f
  6455     167A  307F               	movlw	127
  6456     167B  05B2               	andwf	___xxtofl@arg+2,f
  6457     167C  30FF               	movlw	255
  6458     167D  05B3               	andwf	___xxtofl@arg+3,f
  6459     167E                     l915:
  6460     167E  1003               	clrc
  6461     167F  0CAF               	rrf	___xxtofl@exp,f
  6462     1680                     l3127:
  6463     1680  082F               	movf	___xxtofl@exp,w
  6464     1681  00AA               	movwf	??___xxtofl
  6465     1682  01AB               	clrf	??___xxtofl+1
  6466     1683  01AC               	clrf	??___xxtofl+2
  6467     1684  01AD               	clrf	??___xxtofl+3
  6468     1685  3018               	movlw	24
  6469     1686                     u4025:
  6470     1686  1003               	clrc
  6471     1687  0DAA               	rlf	??___xxtofl,f
  6472     1688  0DAB               	rlf	??___xxtofl+1,f
  6473     1689  0DAC               	rlf	??___xxtofl+2,f
  6474     168A  0DAD               	rlf	??___xxtofl+3,f
  6475     168B                     u4020:
  6476     168B  3EFF               	addlw	-1
  6477     168C  1D03               	skipz
  6478     168D  2E86               	goto	u4025
  6479     168E  082A               	movf	??___xxtofl,w
  6480     168F  04B0               	iorwf	___xxtofl@arg,f
  6481     1690  082B               	movf	??___xxtofl+1,w
  6482     1691  04B1               	iorwf	___xxtofl@arg+1,f
  6483     1692  082C               	movf	??___xxtofl+2,w
  6484     1693  04B2               	iorwf	___xxtofl@arg+2,f
  6485     1694  082D               	movf	??___xxtofl+3,w
  6486     1695  04B3               	iorwf	___xxtofl@arg+3,f
  6487     1696                     l3129:
  6488     1696  082E               	movf	___xxtofl@sign,w
  6489     1697  1903               	btfsc	3,2
  6490     1698  2E9A               	goto	u4031
  6491     1699  2E9B               	goto	u4030
  6492     169A                     u4031:
  6493     169A  2EA0               	goto	l3135
  6494     169B                     u4030:
  6495     169B                     l3131:
  6496     169B  1FA9               	btfss	___xxtofl@val+3,7
  6497     169C  2E9E               	goto	u4041
  6498     169D  2E9F               	goto	u4040
  6499     169E                     u4041:
  6500     169E  2EA0               	goto	l3135
  6501     169F                     u4040:
  6502     169F                     l3133:
  6503     169F  17B3               	bsf	___xxtofl@arg+3,7
  6504     16A0                     l3135:
  6505     16A0  0833               	movf	___xxtofl@arg+3,w
  6506     16A1  00A9               	movwf	?___xxtofl+3
  6507     16A2  0832               	movf	___xxtofl@arg+2,w
  6508     16A3  00A8               	movwf	?___xxtofl+2
  6509     16A4  0831               	movf	___xxtofl@arg+1,w
  6510     16A5  00A7               	movwf	?___xxtofl+1
  6511     16A6  0830               	movf	___xxtofl@arg,w
  6512     16A7  00A6               	movwf	?___xxtofl
  6513     16A8                     l903:
  6514     16A8  0008               	return
  6515     16A9                     __end_of___xxtofl:
  6516                           
  6517                           	psect	text25
  6518     1448                     __ptext25:	
  6519 ;; *************** function ___fltol *****************
  6520 ;; Defined at:
  6521 ;;		line 43 in file "C:\Program Files\Microchip\xc8\v2.40\pic\sources\c90\common\fltol.c"
  6522 ;; Parameters:    Size  Location     Type
  6523 ;;  f1              4    0[BANK0 ] unsigned char 
  6524 ;; Auto vars:     Size  Location     Type
  6525 ;;  exp1            1    9[BANK0 ] unsigned char 
  6526 ;;  sign1           1    8[BANK0 ] unsigned char 
  6527 ;; Return value:  Size  Location     Type
  6528 ;;                  4    0[BANK0 ] long 
  6529 ;; Registers used:
  6530 ;;		wreg, status,2, status,0
  6531 ;; Tracked objects:
  6532 ;;		On entry : 0/0
  6533 ;;		On exit  : 0/0
  6534 ;;		Unchanged: 0/0
  6535 ;; Data sizes:     COMMON   BANK0   BANK1   BANK3   BANK2
  6536 ;;      Params:         0       4       0       0       0
  6537 ;;      Locals:         0       2       0       0       0
  6538 ;;      Temps:          0       4       0       0       0
  6539 ;;      Totals:         0      10       0       0       0
  6540 ;;Total ram usage:       10 bytes
  6541 ;; Hardware stack levels used: 1
  6542 ;; Hardware stack levels required when called: 4
  6543 ;; This function calls:
  6544 ;;		Nothing
  6545 ;; This function is called by:
  6546 ;;		_floattostr
  6547 ;;		_ESP32_Write
  6548 ;; This function uses a non-reentrant model
  6549 ;;
  6550                           
  6551     1448                     ___fltol:	
  6552                           ;psect for function ___fltol
  6553                           
  6554     1448                     l2771:	
  6555                           ;incstack = 0
  6556                           ; Regs used in ___fltol: [wreg+status,2+status,0]
  6557                           
  6558     1448  1003               	clrc
  6559     1449  1283               	bcf	3,5	;RP0=0, select bank0
  6560     144A  1303               	bcf	3,6	;RP1=0, select bank0
  6561     144B  0D22               	rlf	___fltol@f1+2,w
  6562     144C  0D23               	rlf	___fltol@f1+3,w
  6563     144D  00A9               	movwf	___fltol@exp1
  6564     144E  0829               	movf	___fltol@exp1,w
  6565     144F  1D03               	btfss	3,2
  6566     1450  2C52               	goto	u3151
  6567     1451  2C53               	goto	u3150
  6568     1452                     u3151:
  6569     1452  2C5C               	goto	l2777
  6570     1453                     u3150:
  6571     1453                     l2773:
  6572     1453  3000               	movlw	0
  6573     1454  00A3               	movwf	?___fltol+3
  6574     1455  3000               	movlw	0
  6575     1456  00A2               	movwf	?___fltol+2
  6576     1457  3000               	movlw	0
  6577     1458  00A1               	movwf	?___fltol+1
  6578     1459  3000               	movlw	0
  6579     145A  00A0               	movwf	?___fltol
  6580     145B  2CBF               	goto	l654
  6581     145C                     l2777:
  6582     145C  0820               	movf	___fltol@f1,w
  6583     145D  00A4               	movwf	??___fltol
  6584     145E  0821               	movf	___fltol@f1+1,w
  6585     145F  00A5               	movwf	??___fltol+1
  6586     1460  0822               	movf	___fltol@f1+2,w
  6587     1461  00A6               	movwf	??___fltol+2
  6588     1462  0823               	movf	___fltol@f1+3,w
  6589     1463  00A7               	movwf	??___fltol+3
  6590     1464  301F               	movlw	31
  6591     1465                     u3165:
  6592     1465  1003               	clrc
  6593     1466  0CA7               	rrf	??___fltol+3,f
  6594     1467  0CA6               	rrf	??___fltol+2,f
  6595     1468  0CA5               	rrf	??___fltol+1,f
  6596     1469  0CA4               	rrf	??___fltol,f
  6597     146A                     u3160:
  6598     146A  3EFF               	addlw	-1
  6599     146B  1D03               	skipz
  6600     146C  2C65               	goto	u3165
  6601     146D  0824               	movf	??___fltol,w
  6602     146E  00A8               	movwf	___fltol@sign1
  6603     146F                     l2779:
  6604     146F  17A2               	bsf	___fltol@f1+2,7
  6605     1470                     l2781:
  6606     1470  30FF               	movlw	255
  6607     1471  05A0               	andwf	___fltol@f1,f
  6608     1472  30FF               	movlw	255
  6609     1473  05A1               	andwf	___fltol@f1+1,f
  6610     1474  30FF               	movlw	255
  6611     1475  05A2               	andwf	___fltol@f1+2,f
  6612     1476  3000               	movlw	0
  6613     1477  05A3               	andwf	___fltol@f1+3,f
  6614     1478                     l2783:
  6615     1478  3096               	movlw	150
  6616     1479  02A9               	subwf	___fltol@exp1,f
  6617     147A                     l2785:
  6618     147A  1FA9               	btfss	___fltol@exp1,7
  6619     147B  2C7D               	goto	u3171
  6620     147C  2C7E               	goto	u3170
  6621     147D                     u3171:
  6622     147D  2C98               	goto	l2795
  6623     147E                     u3170:
  6624     147E                     l2787:
  6625     147E  0829               	movf	___fltol@exp1,w
  6626     147F  3A80               	xorlw	128
  6627     1480  3E97               	addlw	151
  6628     1481  1803               	skipnc
  6629     1482  2C84               	goto	u3181
  6630     1483  2C85               	goto	u3180
  6631     1484                     u3181:
  6632     1484  2C86               	goto	l2793
  6633     1485                     u3180:
  6634     1485  2C53               	goto	l2773
  6635     1486                     l2793:
  6636     1486  3001               	movlw	1
  6637     1487                     u3195:
  6638     1487  1003               	clrc
  6639     1488  0CA3               	rrf	___fltol@f1+3,f
  6640     1489  0CA2               	rrf	___fltol@f1+2,f
  6641     148A  0CA1               	rrf	___fltol@f1+1,f
  6642     148B  0CA0               	rrf	___fltol@f1,f
  6643     148C  3EFF               	addlw	-1
  6644     148D  1D03               	skipz
  6645     148E  2C87               	goto	u3195
  6646     148F  3001               	movlw	1
  6647     1490  00A4               	movwf	??___fltol
  6648     1491  0824               	movf	??___fltol,w
  6649     1492  07A9               	addwf	___fltol@exp1,f
  6650     1493  1D03               	btfss	3,2
  6651     1494  2C96               	goto	u3201
  6652     1495  2C97               	goto	u3200
  6653     1496                     u3201:
  6654     1496  2C86               	goto	l2793
  6655     1497                     u3200:
  6656     1497  2CAF               	goto	l2803
  6657     1498                     l2795:
  6658     1498  3020               	movlw	32
  6659     1499  0229               	subwf	___fltol@exp1,w
  6660     149A  1C03               	skipc
  6661     149B  2C9D               	goto	u3211
  6662     149C  2C9E               	goto	u3210
  6663     149D                     u3211:
  6664     149D  2CAA               	goto	l661
  6665     149E                     u3210:
  6666     149E  2C53               	goto	l2773
  6667     149F                     l2801:
  6668     149F  3001               	movlw	1
  6669     14A0  00A4               	movwf	??___fltol
  6670     14A1                     u3225:
  6671     14A1  1003               	clrc
  6672     14A2  0DA0               	rlf	___fltol@f1,f
  6673     14A3  0DA1               	rlf	___fltol@f1+1,f
  6674     14A4  0DA2               	rlf	___fltol@f1+2,f
  6675     14A5  0DA3               	rlf	___fltol@f1+3,f
  6676     14A6  0BA4               	decfsz	??___fltol,f
  6677     14A7  2CA1               	goto	u3225
  6678     14A8  3001               	movlw	1
  6679     14A9  02A9               	subwf	___fltol@exp1,f
  6680     14AA                     l661:
  6681     14AA  0829               	movf	___fltol@exp1,w
  6682     14AB  1D03               	btfss	3,2
  6683     14AC  2CAE               	goto	u3231
  6684     14AD  2CAF               	goto	u3230
  6685     14AE                     u3231:
  6686     14AE  2C9F               	goto	l2801
  6687     14AF                     u3230:
  6688     14AF                     l2803:
  6689     14AF  0828               	movf	___fltol@sign1,w
  6690     14B0  1903               	btfsc	3,2
  6691     14B1  2CB3               	goto	u3241
  6692     14B2  2CB4               	goto	u3240
  6693     14B3                     u3241:
  6694     14B3  2CBF               	goto	l664
  6695     14B4                     u3240:
  6696     14B4                     l2805:
  6697     14B4  09A0               	comf	___fltol@f1,f
  6698     14B5  09A1               	comf	___fltol@f1+1,f
  6699     14B6  09A2               	comf	___fltol@f1+2,f
  6700     14B7  09A3               	comf	___fltol@f1+3,f
  6701     14B8  0AA0               	incf	___fltol@f1,f
  6702     14B9  1903               	skipnz
  6703     14BA  0AA1               	incf	___fltol@f1+1,f
  6704     14BB  1903               	skipnz
  6705     14BC  0AA2               	incf	___fltol@f1+2,f
  6706     14BD  1903               	skipnz
  6707     14BE  0AA3               	incf	___fltol@f1+3,f
  6708     14BF                     l664:
  6709     14BF                     l654:
  6710     14BF  0008               	return
  6711     14C0                     __end_of___fltol:
  6712                           
  6713                           	psect	text26
  6714     1E43                     __ptext26:	
  6715 ;; *************** function ___flsub *****************
  6716 ;; Defined at:
  6717 ;;		line 242 in file "C:\Program Files\Microchip\xc8\v2.40\pic\sources\c90\common\sprcadd.c"
  6718 ;; Parameters:    Size  Location     Type
  6719 ;;  a               4   72[BANK0 ] long 
  6720 ;;  b               4   76[BANK0 ] long 
  6721 ;; Auto vars:     Size  Location     Type
  6722 ;;		None
  6723 ;; Return value:  Size  Location     Type
  6724 ;;                  4   72[BANK0 ] long 
  6725 ;; Registers used:
  6726 ;;		wreg, status,2, status,0, btemp+1, pclath, cstack
  6727 ;; Tracked objects:
  6728 ;;		On entry : 0/0
  6729 ;;		On exit  : 0/0
  6730 ;;		Unchanged: 0/0
  6731 ;; Data sizes:     COMMON   BANK0   BANK1   BANK3   BANK2
  6732 ;;      Params:         0       8       0       0       0
  6733 ;;      Locals:         0       0       0       0       0
  6734 ;;      Temps:          0       0       0       0       0
  6735 ;;      Totals:         0       8       0       0       0
  6736 ;;Total ram usage:        8 bytes
  6737 ;; Hardware stack levels used: 1
  6738 ;; Hardware stack levels required when called: 5
  6739 ;; This function calls:
  6740 ;;		___fladd
  6741 ;; This function is called by:
  6742 ;;		_floattostr
  6743 ;; This function uses a non-reentrant model
  6744 ;;
  6745                           
  6746     1E43                     ___flsub:	
  6747                           ;psect for function ___flsub
  6748                           
  6749     1E43                     l2807:	
  6750                           ;incstack = 0
  6751                           ; Regs used in ___flsub: [wreg+status,2+status,0+btemp+1+pclath+cstack]
  6752                           
  6753     1E43  3080               	movlw	128
  6754     1E44  1283               	bcf	3,5	;RP0=0, select bank0
  6755     1E45  1303               	bcf	3,6	;RP1=0, select bank0
  6756     1E46  06EB               	xorwf	___flsub@a+3,f
  6757     1E47                     l2809:
  6758     1E47  086F               	movf	___flsub@b+3,w
  6759     1E48  00D7               	movwf	___fladd@b+3
  6760     1E49  086E               	movf	___flsub@b+2,w
  6761     1E4A  00D6               	movwf	___fladd@b+2
  6762     1E4B  086D               	movf	___flsub@b+1,w
  6763     1E4C  00D5               	movwf	___fladd@b+1
  6764     1E4D  086C               	movf	___flsub@b,w
  6765     1E4E  00D4               	movwf	___fladd@b
  6766     1E4F  086B               	movf	___flsub@a+3,w
  6767     1E50  00DB               	movwf	___fladd@a+3
  6768     1E51  086A               	movf	___flsub@a+2,w
  6769     1E52  00DA               	movwf	___fladd@a+2
  6770     1E53  0869               	movf	___flsub@a+1,w
  6771     1E54  00D9               	movwf	___fladd@a+1
  6772     1E55  0868               	movf	___flsub@a,w
  6773     1E56  00D8               	movwf	___fladd@a
  6774     1E57  120A  158A  25A8  160A  158A  	fcall	___fladd
  6775     1E5C  1283               	bcf	3,5	;RP0=0, select bank0
  6776     1E5D  1303               	bcf	3,6	;RP1=0, select bank0
  6777     1E5E  0857               	movf	?___fladd+3,w
  6778     1E5F  00EB               	movwf	?___flsub+3
  6779     1E60  0856               	movf	?___fladd+2,w
  6780     1E61  00EA               	movwf	?___flsub+2
  6781     1E62  0855               	movf	?___fladd+1,w
  6782     1E63  00E9               	movwf	?___flsub+1
  6783     1E64  0854               	movf	?___fladd,w
  6784     1E65  00E8               	movwf	?___flsub
  6785     1E66                     l807:
  6786     1E66  0008               	return
  6787     1E67                     __end_of___flsub:
  6788                           
  6789                           	psect	text27
  6790     0DA8                     __ptext27:	
  6791 ;; *************** function ___fladd *****************
  6792 ;; Defined at:
  6793 ;;		line 10 in file "C:\Program Files\Microchip\xc8\v2.40\pic\sources\c90\common\sprcadd.c"
  6794 ;; Parameters:    Size  Location     Type
  6795 ;;  b               4   52[BANK0 ] long 
  6796 ;;  a               4   56[BANK0 ] long 
  6797 ;; Auto vars:     Size  Location     Type
  6798 ;;  grs             1   71[BANK0 ] unsigned char 
  6799 ;;  bexp            1   70[BANK0 ] unsigned char 
  6800 ;;  aexp            1   69[BANK0 ] unsigned char 
  6801 ;;  signs           1   68[BANK0 ] unsigned char 
  6802 ;; Return value:  Size  Location     Type
  6803 ;;                  4   52[BANK0 ] unsigned char 
  6804 ;; Registers used:
  6805 ;;		wreg, status,2, status,0, btemp+1
  6806 ;; Tracked objects:
  6807 ;;		On entry : 0/0
  6808 ;;		On exit  : 0/0
  6809 ;;		Unchanged: 0/0
  6810 ;; Data sizes:     COMMON   BANK0   BANK1   BANK3   BANK2
  6811 ;;      Params:         0       8       0       0       0
  6812 ;;      Locals:         0       4       0       0       0
  6813 ;;      Temps:          0       8       0       0       0
  6814 ;;      Totals:         0      20       0       0       0
  6815 ;;Total ram usage:       20 bytes
  6816 ;; Hardware stack levels used: 1
  6817 ;; Hardware stack levels required when called: 4
  6818 ;; This function calls:
  6819 ;;		Nothing
  6820 ;; This function is called by:
  6821 ;;		_floattostr
  6822 ;;		_AHT10_Read
  6823 ;;		___flsub
  6824 ;; This function uses a non-reentrant model
  6825 ;;
  6826                           
  6827     0DA8                     ___fladd:	
  6828                           ;psect for function ___fladd
  6829                           
  6830     0DA8                     l2439:	
  6831                           ;incstack = 0
  6832                           ; Regs used in ___fladd: [wreg+status,2+status,0+btemp+1]
  6833                           
  6834     0DA8  1283               	bcf	3,5	;RP0=0, select bank0
  6835     0DA9  1303               	bcf	3,6	;RP1=0, select bank0
  6836     0DAA  0857               	movf	___fladd@b+3,w
  6837     0DAB  3980               	andlw	128
  6838     0DAC  00E4               	movwf	___fladd@signs
  6839     0DAD                     l2441:
  6840     0DAD  0857               	movf	___fladd@b+3,w
  6841     0DAE  00DC               	movwf	??___fladd
  6842     0DAF  075C               	addwf	??___fladd,w
  6843     0DB0  00E6               	movwf	___fladd@bexp
  6844     0DB1                     l2443:
  6845     0DB1  1FD6               	btfss	___fladd@b+2,7
  6846     0DB2  2DB4               	goto	u2461
  6847     0DB3  2DB5               	goto	u2460
  6848     0DB4                     u2461:
  6849     0DB4  2DB6               	goto	l2447
  6850     0DB5                     u2460:
  6851     0DB5                     l2445:
  6852     0DB5  1466               	bsf	___fladd@bexp,0
  6853     0DB6                     l2447:
  6854     0DB6  0866               	movf	___fladd@bexp,w
  6855     0DB7  1903               	btfsc	3,2
  6856     0DB8  2DBA               	goto	u2471
  6857     0DB9  2DBB               	goto	u2470
  6858     0DBA                     u2471:
  6859     0DBA  2DCB               	goto	l2457
  6860     0DBB                     u2470:
  6861     0DBB                     l2449:
  6862     0DBB  0A66               	incf	___fladd@bexp,w
  6863     0DBC  1D03               	btfss	3,2
  6864     0DBD  2DBF               	goto	u2481
  6865     0DBE  2DC0               	goto	u2480
  6866     0DBF                     u2481:
  6867     0DBF  2DC8               	goto	l2453
  6868     0DC0                     u2480:
  6869     0DC0                     l2451:
  6870     0DC0  3000               	movlw	0
  6871     0DC1  00D7               	movwf	___fladd@b+3
  6872     0DC2  3000               	movlw	0
  6873     0DC3  00D6               	movwf	___fladd@b+2
  6874     0DC4  3000               	movlw	0
  6875     0DC5  00D5               	movwf	___fladd@b+1
  6876     0DC6  3000               	movlw	0
  6877     0DC7  00D4               	movwf	___fladd@b
  6878     0DC8                     l2453:
  6879     0DC8  17D6               	bsf	___fladd@b+2,7
  6880     0DC9                     l2455:
  6881     0DC9  01D7               	clrf	___fladd@b+3
  6882     0DCA  2DD3               	goto	l2459
  6883     0DCB                     l2457:
  6884     0DCB  3000               	movlw	0
  6885     0DCC  00D7               	movwf	___fladd@b+3
  6886     0DCD  3000               	movlw	0
  6887     0DCE  00D6               	movwf	___fladd@b+2
  6888     0DCF  3000               	movlw	0
  6889     0DD0  00D5               	movwf	___fladd@b+1
  6890     0DD1  3000               	movlw	0
  6891     0DD2  00D4               	movwf	___fladd@b
  6892     0DD3                     l2459:
  6893     0DD3  085B               	movf	___fladd@a+3,w
  6894     0DD4  3980               	andlw	128
  6895     0DD5  00E5               	movwf	___fladd@aexp
  6896     0DD6                     l2461:
  6897     0DD6  0865               	movf	___fladd@aexp,w
  6898     0DD7  0664               	xorwf	___fladd@signs,w
  6899     0DD8  1903               	skipnz
  6900     0DD9  2DDB               	goto	u2491
  6901     0DDA  2DDC               	goto	u2490
  6902     0DDB                     u2491:
  6903     0DDB  2DDD               	goto	l2465
  6904     0DDC                     u2490:
  6905     0DDC                     l2463:
  6906     0DDC  1764               	bsf	___fladd@signs,6
  6907     0DDD                     l2465:
  6908     0DDD  085B               	movf	___fladd@a+3,w
  6909     0DDE  00DC               	movwf	??___fladd
  6910     0DDF  075C               	addwf	??___fladd,w
  6911     0DE0  00E5               	movwf	___fladd@aexp
  6912     0DE1                     l2467:
  6913     0DE1  1FDA               	btfss	___fladd@a+2,7
  6914     0DE2  2DE4               	goto	u2501
  6915     0DE3  2DE5               	goto	u2500
  6916     0DE4                     u2501:
  6917     0DE4  2DE6               	goto	l2471
  6918     0DE5                     u2500:
  6919     0DE5                     l2469:
  6920     0DE5  1465               	bsf	___fladd@aexp,0
  6921     0DE6                     l2471:
  6922     0DE6  0865               	movf	___fladd@aexp,w
  6923     0DE7  1903               	btfsc	3,2
  6924     0DE8  2DEA               	goto	u2511
  6925     0DE9  2DEB               	goto	u2510
  6926     0DEA                     u2511:
  6927     0DEA  2DFB               	goto	l2481
  6928     0DEB                     u2510:
  6929     0DEB                     l2473:
  6930     0DEB  0A65               	incf	___fladd@aexp,w
  6931     0DEC  1D03               	btfss	3,2
  6932     0DED  2DEF               	goto	u2521
  6933     0DEE  2DF0               	goto	u2520
  6934     0DEF                     u2521:
  6935     0DEF  2DF8               	goto	l2477
  6936     0DF0                     u2520:
  6937     0DF0                     l2475:
  6938     0DF0  3000               	movlw	0
  6939     0DF1  00DB               	movwf	___fladd@a+3
  6940     0DF2  3000               	movlw	0
  6941     0DF3  00DA               	movwf	___fladd@a+2
  6942     0DF4  3000               	movlw	0
  6943     0DF5  00D9               	movwf	___fladd@a+1
  6944     0DF6  3000               	movlw	0
  6945     0DF7  00D8               	movwf	___fladd@a
  6946     0DF8                     l2477:
  6947     0DF8  17DA               	bsf	___fladd@a+2,7
  6948     0DF9                     l2479:
  6949     0DF9  01DB               	clrf	___fladd@a+3
  6950     0DFA  2E03               	goto	l761
  6951     0DFB                     l2481:
  6952     0DFB  3000               	movlw	0
  6953     0DFC  00DB               	movwf	___fladd@a+3
  6954     0DFD  3000               	movlw	0
  6955     0DFE  00DA               	movwf	___fladd@a+2
  6956     0DFF  3000               	movlw	0
  6957     0E00  00D9               	movwf	___fladd@a+1
  6958     0E01  3000               	movlw	0
  6959     0E02  00D8               	movwf	___fladd@a
  6960     0E03                     l761:
  6961     0E03  0866               	movf	___fladd@bexp,w
  6962     0E04  0265               	subwf	___fladd@aexp,w
  6963     0E05  1803               	skipnc
  6964     0E06  2E08               	goto	u2531
  6965     0E07  2E09               	goto	u2530
  6966     0E08                     u2531:
  6967     0E08  2E2F               	goto	l2517
  6968     0E09                     u2530:
  6969     0E09                     l2483:
  6970     0E09  1F64               	btfss	___fladd@signs,6
  6971     0E0A  2E0C               	goto	u2541
  6972     0E0B  2E0D               	goto	u2540
  6973     0E0C                     u2541:
  6974     0E0C  2E11               	goto	l2487
  6975     0E0D                     u2540:
  6976     0E0D                     l2485:
  6977     0E0D  3080               	movlw	128
  6978     0E0E  00DC               	movwf	??___fladd
  6979     0E0F  085C               	movf	??___fladd,w
  6980     0E10  06E4               	xorwf	___fladd@signs,f
  6981     0E11                     l2487:
  6982     0E11  0866               	movf	___fladd@bexp,w
  6983     0E12  00E7               	movwf	___fladd@grs
  6984     0E13                     l2489:
  6985     0E13  0865               	movf	___fladd@aexp,w
  6986     0E14  00E6               	movwf	___fladd@bexp
  6987     0E15                     l2491:
  6988     0E15  0867               	movf	___fladd@grs,w
  6989     0E16  00E5               	movwf	___fladd@aexp
  6990     0E17                     l2493:
  6991     0E17  0854               	movf	___fladd@b,w
  6992     0E18  00E7               	movwf	___fladd@grs
  6993     0E19                     l2495:
  6994     0E19  0858               	movf	___fladd@a,w
  6995     0E1A  00D4               	movwf	___fladd@b
  6996     0E1B                     l2497:
  6997     0E1B  0867               	movf	___fladd@grs,w
  6998     0E1C  00D8               	movwf	___fladd@a
  6999     0E1D                     l2499:
  7000     0E1D  0855               	movf	___fladd@b+1,w
  7001     0E1E  00E7               	movwf	___fladd@grs
  7002     0E1F                     l2501:
  7003     0E1F  0859               	movf	___fladd@a+1,w
  7004     0E20  00D5               	movwf	___fladd@b+1
  7005     0E21                     l2503:
  7006     0E21  0867               	movf	___fladd@grs,w
  7007     0E22  00D9               	movwf	___fladd@a+1
  7008     0E23                     l2505:
  7009     0E23  0856               	movf	___fladd@b+2,w
  7010     0E24  00E7               	movwf	___fladd@grs
  7011     0E25                     l2507:
  7012     0E25  085A               	movf	___fladd@a+2,w
  7013     0E26  00D6               	movwf	___fladd@b+2
  7014     0E27                     l2509:
  7015     0E27  0867               	movf	___fladd@grs,w
  7016     0E28  00DA               	movwf	___fladd@a+2
  7017     0E29                     l2511:
  7018     0E29  0857               	movf	___fladd@b+3,w
  7019     0E2A  00E7               	movwf	___fladd@grs
  7020     0E2B                     l2513:
  7021     0E2B  085B               	movf	___fladd@a+3,w
  7022     0E2C  00D7               	movwf	___fladd@b+3
  7023     0E2D                     l2515:
  7024     0E2D  0867               	movf	___fladd@grs,w
  7025     0E2E  00DB               	movwf	___fladd@a+3
  7026     0E2F                     l2517:
  7027     0E2F  01E7               	clrf	___fladd@grs
  7028     0E30                     l2519:
  7029     0E30  0865               	movf	___fladd@aexp,w
  7030     0E31  00DC               	movwf	??___fladd
  7031     0E32  01DD               	clrf	??___fladd+1
  7032     0E33  085D               	movf	??___fladd+1,w
  7033     0E34  00DF               	movwf	??___fladd+3
  7034     0E35  0866               	movf	___fladd@bexp,w
  7035     0E36  025C               	subwf	??___fladd,w
  7036     0E37  00DE               	movwf	??___fladd+2
  7037     0E38  1C03               	skipc
  7038     0E39  03DF               	decf	??___fladd+3,f
  7039     0E3A  085F               	movf	??___fladd+3,w
  7040     0E3B  3A80               	xorlw	128
  7041     0E3C  00FF               	movwf	btemp+1
  7042     0E3D  3080               	movlw	128
  7043     0E3E  027F               	subwf	btemp+1,w
  7044     0E3F  1D03               	skipz
  7045     0E40  2E43               	goto	u2555
  7046     0E41  301A               	movlw	26
  7047     0E42  025E               	subwf	??___fladd+2,w
  7048     0E43                     u2555:
  7049     0E43  1C03               	skipc
  7050     0E44  2E46               	goto	u2551
  7051     0E45  2E47               	goto	u2550
  7052     0E46                     u2551:
  7053     0E46  2E7E               	goto	l2535
  7054     0E47                     u2550:
  7055     0E47                     l2521:
  7056     0E47  1283               	bcf	3,5	;RP0=0, select bank0
  7057     0E48  1303               	bcf	3,6	;RP1=0, select bank0
  7058     0E49  0857               	movf	___fladd@b+3,w
  7059     0E4A  0456               	iorwf	___fladd@b+2,w
  7060     0E4B  0455               	iorwf	___fladd@b+1,w
  7061     0E4C  0454               	iorwf	___fladd@b,w
  7062     0E4D  1D03               	skipz
  7063     0E4E  2E50               	goto	u2561
  7064     0E4F  2E52               	goto	u2560
  7065     0E50                     u2561:
  7066     0E50  3001               	movlw	1
  7067     0E51  2E53               	goto	u2570
  7068     0E52                     u2560:
  7069     0E52  3000               	movlw	0
  7070     0E53                     u2570:
  7071     0E53  00E7               	movwf	___fladd@grs
  7072     0E54  3000               	movlw	0
  7073     0E55  00D7               	movwf	___fladd@b+3
  7074     0E56  3000               	movlw	0
  7075     0E57  00D6               	movwf	___fladd@b+2
  7076     0E58  3000               	movlw	0
  7077     0E59  00D5               	movwf	___fladd@b+1
  7078     0E5A  3000               	movlw	0
  7079     0E5B  00D4               	movwf	___fladd@b
  7080     0E5C  0865               	movf	___fladd@aexp,w
  7081     0E5D  00E6               	movwf	___fladd@bexp
  7082     0E5E  2E86               	goto	l765
  7083     0E5F                     l767:
  7084     0E5F  1C67               	btfss	___fladd@grs,0
  7085     0E60  2E62               	goto	u2581
  7086     0E61  2E63               	goto	u2580
  7087     0E62                     u2581:
  7088     0E62  2E6A               	goto	l2525
  7089     0E63                     u2580:
  7090     0E63                     l2523:
  7091     0E63  0867               	movf	___fladd@grs,w
  7092     0E64  00DC               	movwf	??___fladd
  7093     0E65  1003               	clrc
  7094     0E66  0C5C               	rrf	??___fladd,w
  7095     0E67  3801               	iorlw	1
  7096     0E68  00E7               	movwf	___fladd@grs
  7097     0E69  2E6C               	goto	l2527
  7098     0E6A                     l2525:
  7099     0E6A  1003               	clrc
  7100     0E6B  0CE7               	rrf	___fladd@grs,f
  7101     0E6C                     l2527:
  7102     0E6C  1C54               	btfss	___fladd@b,0
  7103     0E6D  2E6F               	goto	u2591
  7104     0E6E  2E70               	goto	u2590
  7105     0E6F                     u2591:
  7106     0E6F  2E71               	goto	l2531
  7107     0E70                     u2590:
  7108     0E70                     l2529:
  7109     0E70  17E7               	bsf	___fladd@grs,7
  7110     0E71                     l2531:
  7111     0E71  3001               	movlw	1
  7112     0E72  00DC               	movwf	??___fladd
  7113     0E73                     u2605:
  7114     0E73  0D57               	rlf	___fladd@b+3,w
  7115     0E74  0CD7               	rrf	___fladd@b+3,f
  7116     0E75  0CD6               	rrf	___fladd@b+2,f
  7117     0E76  0CD5               	rrf	___fladd@b+1,f
  7118     0E77  0CD4               	rrf	___fladd@b,f
  7119     0E78  0BDC               	decfsz	??___fladd& (0+127),f
  7120     0E79  2E73               	goto	u2605
  7121     0E7A                     l2533:
  7122     0E7A  3001               	movlw	1
  7123     0E7B  00DC               	movwf	??___fladd
  7124     0E7C  085C               	movf	??___fladd,w
  7125     0E7D  07E6               	addwf	___fladd@bexp,f
  7126     0E7E                     l2535:
  7127     0E7E  1283               	bcf	3,5	;RP0=0, select bank0
  7128     0E7F  1303               	bcf	3,6	;RP1=0, select bank0
  7129     0E80  0865               	movf	___fladd@aexp,w
  7130     0E81  0266               	subwf	___fladd@bexp,w
  7131     0E82  1C03               	skipc
  7132     0E83  2E85               	goto	u2611
  7133     0E84  2E86               	goto	u2610
  7134     0E85                     u2611:
  7135     0E85  2E5F               	goto	l767
  7136     0E86                     u2610:
  7137     0E86                     l765:
  7138     0E86  1B64               	btfsc	___fladd@signs,6
  7139     0E87  2E89               	goto	u2621
  7140     0E88  2E8A               	goto	u2620
  7141     0E89                     u2621:
  7142     0E89  2ED3               	goto	l2561
  7143     0E8A                     u2620:
  7144     0E8A                     l2537:
  7145     0E8A  0866               	movf	___fladd@bexp,w
  7146     0E8B  1D03               	btfss	3,2
  7147     0E8C  2E8E               	goto	u2631
  7148     0E8D  2E8F               	goto	u2630
  7149     0E8E                     u2631:
  7150     0E8E  2E98               	goto	l2543
  7151     0E8F                     u2630:
  7152     0E8F                     l2539:
  7153     0E8F  3000               	movlw	0
  7154     0E90  00D7               	movwf	?___fladd+3
  7155     0E91  3000               	movlw	0
  7156     0E92  00D6               	movwf	?___fladd+2
  7157     0E93  3000               	movlw	0
  7158     0E94  00D5               	movwf	?___fladd+1
  7159     0E95  3000               	movlw	0
  7160     0E96  00D4               	movwf	?___fladd
  7161     0E97  2FFF               	goto	l774
  7162     0E98                     l2543:
  7163     0E98  0858               	movf	___fladd@a,w
  7164     0E99  07D4               	addwf	___fladd@b,f
  7165     0E9A  0859               	movf	___fladd@a+1,w
  7166     0E9B  1103               	clrz
  7167     0E9C  1803               	skipnc
  7168     0E9D  3E01               	addlw	1
  7169     0E9E  1903               	skipnz
  7170     0E9F  2EA1               	goto	u2641
  7171     0EA0  07D5               	addwf	___fladd@b+1,f
  7172     0EA1                     u2641:
  7173     0EA1  085A               	movf	___fladd@a+2,w
  7174     0EA2  1103               	clrz
  7175     0EA3  1803               	skipnc
  7176     0EA4  3E01               	addlw	1
  7177     0EA5  1903               	skipnz
  7178     0EA6  2EA8               	goto	u2642
  7179     0EA7  07D6               	addwf	___fladd@b+2,f
  7180     0EA8                     u2642:
  7181     0EA8  085B               	movf	___fladd@a+3,w
  7182     0EA9  1103               	clrz
  7183     0EAA  1803               	skipnc
  7184     0EAB  3E01               	addlw	1
  7185     0EAC  1903               	skipnz
  7186     0EAD  2EAF               	goto	u2643
  7187     0EAE  07D7               	addwf	___fladd@b+3,f
  7188     0EAF                     u2643:
  7189     0EAF                     l2545:
  7190     0EAF  1C57               	btfss	___fladd@b+3,0
  7191     0EB0  2EB2               	goto	u2651
  7192     0EB1  2EB3               	goto	u2650
  7193     0EB2                     u2651:
  7194     0EB2  2F87               	goto	l2595
  7195     0EB3                     u2650:
  7196     0EB3                     l2547:
  7197     0EB3  1C67               	btfss	___fladd@grs,0
  7198     0EB4  2EB6               	goto	u2661
  7199     0EB5  2EB7               	goto	u2660
  7200     0EB6                     u2661:
  7201     0EB6  2EBE               	goto	l2551
  7202     0EB7                     u2660:
  7203     0EB7                     l2549:
  7204     0EB7  0867               	movf	___fladd@grs,w
  7205     0EB8  00DC               	movwf	??___fladd
  7206     0EB9  1003               	clrc
  7207     0EBA  0C5C               	rrf	??___fladd,w
  7208     0EBB  3801               	iorlw	1
  7209     0EBC  00E7               	movwf	___fladd@grs
  7210     0EBD  2EC0               	goto	l2553
  7211     0EBE                     l2551:
  7212     0EBE  1003               	clrc
  7213     0EBF  0CE7               	rrf	___fladd@grs,f
  7214     0EC0                     l2553:
  7215     0EC0  1C54               	btfss	___fladd@b,0
  7216     0EC1  2EC3               	goto	u2671
  7217     0EC2  2EC4               	goto	u2670
  7218     0EC3                     u2671:
  7219     0EC3  2EC5               	goto	l2557
  7220     0EC4                     u2670:
  7221     0EC4                     l2555:
  7222     0EC4  17E7               	bsf	___fladd@grs,7
  7223     0EC5                     l2557:
  7224     0EC5  3001               	movlw	1
  7225     0EC6  00DC               	movwf	??___fladd
  7226     0EC7                     u2685:
  7227     0EC7  0D57               	rlf	___fladd@b+3,w
  7228     0EC8  0CD7               	rrf	___fladd@b+3,f
  7229     0EC9  0CD6               	rrf	___fladd@b+2,f
  7230     0ECA  0CD5               	rrf	___fladd@b+1,f
  7231     0ECB  0CD4               	rrf	___fladd@b,f
  7232     0ECC  0BDC               	decfsz	??___fladd& (0+127),f
  7233     0ECD  2EC7               	goto	u2685
  7234     0ECE                     l2559:
  7235     0ECE  3001               	movlw	1
  7236     0ECF  00DC               	movwf	??___fladd
  7237     0ED0  085C               	movf	??___fladd,w
  7238     0ED1  07E6               	addwf	___fladd@bexp,f
  7239     0ED2  2F87               	goto	l2595
  7240     0ED3                     l2561:
  7241     0ED3  0857               	movf	___fladd@b+3,w
  7242     0ED4  3A80               	xorlw	128
  7243     0ED5  00FF               	movwf	btemp+1
  7244     0ED6  085B               	movf	___fladd@a+3,w
  7245     0ED7  3A80               	xorlw	128
  7246     0ED8  027F               	subwf	btemp+1,w
  7247     0ED9  1D03               	skipz
  7248     0EDA  2EE5               	goto	u2693
  7249     0EDB  085A               	movf	___fladd@a+2,w
  7250     0EDC  0256               	subwf	___fladd@b+2,w
  7251     0EDD  1D03               	skipz
  7252     0EDE  2EE5               	goto	u2693
  7253     0EDF  0859               	movf	___fladd@a+1,w
  7254     0EE0  0255               	subwf	___fladd@b+1,w
  7255     0EE1  1D03               	skipz
  7256     0EE2  2EE5               	goto	u2693
  7257     0EE3  0858               	movf	___fladd@a,w
  7258     0EE4  0254               	subwf	___fladd@b,w
  7259     0EE5                     u2693:
  7260     0EE5  1803               	skipnc
  7261     0EE6  2EE8               	goto	u2691
  7262     0EE7  2EE9               	goto	u2690
  7263     0EE8                     u2691:
  7264     0EE8  2F41               	goto	l2571
  7265     0EE9                     u2690:
  7266     0EE9                     l2563:
  7267     0EE9  30FF               	movlw	255
  7268     0EEA  00DC               	movwf	??___fladd
  7269     0EEB  30FF               	movlw	255
  7270     0EEC  00DD               	movwf	??___fladd+1
  7271     0EED  30FF               	movlw	255
  7272     0EEE  00DE               	movwf	??___fladd+2
  7273     0EEF  30FF               	movlw	255
  7274     0EF0  00DF               	movwf	??___fladd+3
  7275     0EF1  0858               	movf	___fladd@a,w
  7276     0EF2  00E0               	movwf	??___fladd+4
  7277     0EF3  0859               	movf	___fladd@a+1,w
  7278     0EF4  00E1               	movwf	??___fladd+5
  7279     0EF5  085A               	movf	___fladd@a+2,w
  7280     0EF6  00E2               	movwf	??___fladd+6
  7281     0EF7  085B               	movf	___fladd@a+3,w
  7282     0EF8  00E3               	movwf	??___fladd+7
  7283     0EF9  0854               	movf	___fladd@b,w
  7284     0EFA  02E0               	subwf	??___fladd+4,f
  7285     0EFB  0855               	movf	___fladd@b+1,w
  7286     0EFC  1C03               	skipc
  7287     0EFD  0F55               	incfsz	___fladd@b+1,w
  7288     0EFE  2F00               	goto	u2701
  7289     0EFF  2F01               	goto	u2702
  7290     0F00                     u2701:
  7291     0F00  02E1               	subwf	??___fladd+5,f
  7292     0F01                     u2702:
  7293     0F01  0856               	movf	___fladd@b+2,w
  7294     0F02  1C03               	skipc
  7295     0F03  0F56               	incfsz	___fladd@b+2,w
  7296     0F04  2F06               	goto	u2703
  7297     0F05  2F07               	goto	u2704
  7298     0F06                     u2703:
  7299     0F06  02E2               	subwf	??___fladd+6,f
  7300     0F07                     u2704:
  7301     0F07  0857               	movf	___fladd@b+3,w
  7302     0F08  1C03               	skipc
  7303     0F09  0F57               	incfsz	___fladd@b+3,w
  7304     0F0A  2F0C               	goto	u2705
  7305     0F0B  2F0D               	goto	u2706
  7306     0F0C                     u2705:
  7307     0F0C  02E3               	subwf	??___fladd+7,f
  7308     0F0D                     u2706:
  7309     0F0D  0860               	movf	??___fladd+4,w
  7310     0F0E  07DC               	addwf	??___fladd,f
  7311     0F0F  0861               	movf	??___fladd+5,w
  7312     0F10  1803               	skipnc
  7313     0F11  0F61               	incfsz	??___fladd+5,w
  7314     0F12  2F14               	goto	u2710
  7315     0F13  2F15               	goto	u2711
  7316     0F14                     u2710:
  7317     0F14  07DD               	addwf	??___fladd+1,f
  7318     0F15                     u2711:
  7319     0F15  0862               	movf	??___fladd+6,w
  7320     0F16  1803               	skipnc
  7321     0F17  0F62               	incfsz	??___fladd+6,w
  7322     0F18  2F1A               	goto	u2712
  7323     0F19  2F1B               	goto	u2713
  7324     0F1A                     u2712:
  7325     0F1A  07DE               	addwf	??___fladd+2,f
  7326     0F1B                     u2713:
  7327     0F1B  0863               	movf	??___fladd+7,w
  7328     0F1C  1803               	skipnc
  7329     0F1D  0A63               	incf	??___fladd+7,w
  7330     0F1E  07DF               	addwf	??___fladd+3,f
  7331     0F1F  085F               	movf	??___fladd+3,w
  7332     0F20  00D7               	movwf	___fladd@b+3
  7333     0F21  085E               	movf	??___fladd+2,w
  7334     0F22  00D6               	movwf	___fladd@b+2
  7335     0F23  085D               	movf	??___fladd+1,w
  7336     0F24  00D5               	movwf	___fladd@b+1
  7337     0F25  085C               	movf	??___fladd,w
  7338     0F26  00D4               	movwf	___fladd@b
  7339     0F27                     l2565:
  7340     0F27  3080               	movlw	128
  7341     0F28  00DC               	movwf	??___fladd
  7342     0F29  085C               	movf	??___fladd,w
  7343     0F2A  06E4               	xorwf	___fladd@signs,f
  7344     0F2B  09E7               	comf	___fladd@grs,f
  7345     0F2C  0AE7               	incf	___fladd@grs,f
  7346     0F2D                     l2567:
  7347     0F2D  0867               	movf	___fladd@grs,w
  7348     0F2E  1D03               	btfss	3,2
  7349     0F2F  2F31               	goto	u2721
  7350     0F30  2F32               	goto	u2720
  7351     0F31                     u2721:
  7352     0F31  2F4F               	goto	l782
  7353     0F32                     u2720:
  7354     0F32                     l2569:
  7355     0F32  3001               	movlw	1
  7356     0F33  07D4               	addwf	___fladd@b,f
  7357     0F34  3000               	movlw	0
  7358     0F35  1803               	skipnc
  7359     0F36  3001               	movlw	1
  7360     0F37  07D5               	addwf	___fladd@b+1,f
  7361     0F38  3000               	movlw	0
  7362     0F39  1803               	skipnc
  7363     0F3A  3001               	movlw	1
  7364     0F3B  07D6               	addwf	___fladd@b+2,f
  7365     0F3C  3000               	movlw	0
  7366     0F3D  1803               	skipnc
  7367     0F3E  3001               	movlw	1
  7368     0F3F  07D7               	addwf	___fladd@b+3,f
  7369     0F40  2F4F               	goto	l782
  7370     0F41                     l2571:
  7371     0F41  0858               	movf	___fladd@a,w
  7372     0F42  02D4               	subwf	___fladd@b,f
  7373     0F43  0859               	movf	___fladd@a+1,w
  7374     0F44  1C03               	skipc
  7375     0F45  0F59               	incfsz	___fladd@a+1,w
  7376     0F46  02D5               	subwf	___fladd@b+1,f
  7377     0F47  085A               	movf	___fladd@a+2,w
  7378     0F48  1C03               	skipc
  7379     0F49  0F5A               	incfsz	___fladd@a+2,w
  7380     0F4A  02D6               	subwf	___fladd@b+2,f
  7381     0F4B  085B               	movf	___fladd@a+3,w
  7382     0F4C  1C03               	skipc
  7383     0F4D  0F5B               	incfsz	___fladd@a+3,w
  7384     0F4E  02D7               	subwf	___fladd@b+3,f
  7385     0F4F                     l782:
  7386     0F4F  0857               	movf	___fladd@b+3,w
  7387     0F50  0456               	iorwf	___fladd@b+2,w
  7388     0F51  0455               	iorwf	___fladd@b+1,w
  7389     0F52  0454               	iorwf	___fladd@b,w
  7390     0F53  1D03               	skipz
  7391     0F54  2F56               	goto	u2731
  7392     0F55  2F57               	goto	u2730
  7393     0F56                     u2731:
  7394     0F56  2F83               	goto	l2593
  7395     0F57                     u2730:
  7396     0F57                     l2573:
  7397     0F57  0867               	movf	___fladd@grs,w
  7398     0F58  1D03               	btfss	3,2
  7399     0F59  2F5B               	goto	u2741
  7400     0F5A  2F5C               	goto	u2740
  7401     0F5B                     u2741:
  7402     0F5B  2F83               	goto	l2593
  7403     0F5C                     u2740:
  7404     0F5C                     l2575:
  7405     0F5C  3000               	movlw	0
  7406     0F5D  00D7               	movwf	?___fladd+3
  7407     0F5E  3000               	movlw	0
  7408     0F5F  00D6               	movwf	?___fladd+2
  7409     0F60  3000               	movlw	0
  7410     0F61  00D5               	movwf	?___fladd+1
  7411     0F62  3000               	movlw	0
  7412     0F63  00D4               	movwf	?___fladd
  7413     0F64  2FFF               	goto	l774
  7414     0F65                     l2579:
  7415     0F65  3001               	movlw	1
  7416     0F66  00DC               	movwf	??___fladd
  7417     0F67                     u2755:
  7418     0F67  1003               	clrc
  7419     0F68  0DD4               	rlf	___fladd@b,f
  7420     0F69  0DD5               	rlf	___fladd@b+1,f
  7421     0F6A  0DD6               	rlf	___fladd@b+2,f
  7422     0F6B  0DD7               	rlf	___fladd@b+3,f
  7423     0F6C  0BDC               	decfsz	??___fladd,f
  7424     0F6D  2F67               	goto	u2755
  7425     0F6E                     l2581:
  7426     0F6E  1FE7               	btfss	___fladd@grs,7
  7427     0F6F  2F71               	goto	u2761
  7428     0F70  2F72               	goto	u2760
  7429     0F71                     u2761:
  7430     0F71  2F73               	goto	l786
  7431     0F72                     u2760:
  7432     0F72                     l2583:
  7433     0F72  1454               	bsf	___fladd@b,0
  7434     0F73                     l786:
  7435     0F73  1C67               	btfss	___fladd@grs,0
  7436     0F74  2F76               	goto	u2771
  7437     0F75  2F77               	goto	u2770
  7438     0F76                     u2771:
  7439     0F76  2F7A               	goto	l2587
  7440     0F77                     u2770:
  7441     0F77                     l2585:
  7442     0F77  1403               	setc
  7443     0F78  0DE7               	rlf	___fladd@grs,f
  7444     0F79  2F7C               	goto	l2589
  7445     0F7A                     l2587:
  7446     0F7A  1003               	clrc
  7447     0F7B  0DE7               	rlf	___fladd@grs,f
  7448     0F7C                     l2589:
  7449     0F7C  0866               	movf	___fladd@bexp,w
  7450     0F7D  1903               	btfsc	3,2
  7451     0F7E  2F80               	goto	u2781
  7452     0F7F  2F81               	goto	u2780
  7453     0F80                     u2781:
  7454     0F80  2F83               	goto	l2593
  7455     0F81                     u2780:
  7456     0F81                     l2591:
  7457     0F81  3001               	movlw	1
  7458     0F82  02E6               	subwf	___fladd@bexp,f
  7459     0F83                     l2593:
  7460     0F83  1FD6               	btfss	___fladd@b+2,7
  7461     0F84  2F86               	goto	u2791
  7462     0F85  2F87               	goto	u2790
  7463     0F86                     u2791:
  7464     0F86  2F65               	goto	l2579
  7465     0F87                     u2790:
  7466     0F87                     l2595:
  7467     0F87  01E5               	clrf	___fladd@aexp
  7468     0F88                     l2597:
  7469     0F88  1FE7               	btfss	___fladd@grs,7
  7470     0F89  2F8B               	goto	u2801
  7471     0F8A  2F8C               	goto	u2800
  7472     0F8B                     u2801:
  7473     0F8B  2F9A               	goto	l2605
  7474     0F8C                     u2800:
  7475     0F8C                     l2599:
  7476     0F8C  0867               	movf	___fladd@grs,w
  7477     0F8D  397F               	andlw	127
  7478     0F8E  1903               	btfsc	3,2
  7479     0F8F  2F91               	goto	u2811
  7480     0F90  2F92               	goto	u2810
  7481     0F91                     u2811:
  7482     0F91  2F95               	goto	l792
  7483     0F92                     u2810:
  7484     0F92                     l2601:
  7485     0F92  01E5               	clrf	___fladd@aexp
  7486     0F93  0AE5               	incf	___fladd@aexp,f
  7487     0F94  2F9A               	goto	l2605
  7488     0F95                     l792:
  7489     0F95  1C54               	btfss	___fladd@b,0
  7490     0F96  2F98               	goto	u2821
  7491     0F97  2F99               	goto	u2820
  7492     0F98                     u2821:
  7493     0F98  2F9A               	goto	l2605
  7494     0F99                     u2820:
  7495     0F99  2F92               	goto	l2601
  7496     0F9A                     l2605:
  7497     0F9A  0865               	movf	___fladd@aexp,w
  7498     0F9B  1903               	btfsc	3,2
  7499     0F9C  2F9E               	goto	u2831
  7500     0F9D  2F9F               	goto	u2830
  7501     0F9E                     u2831:
  7502     0F9E  2FD3               	goto	l795
  7503     0F9F                     u2830:
  7504     0F9F                     l2607:
  7505     0F9F  3001               	movlw	1
  7506     0FA0  07D4               	addwf	___fladd@b,f
  7507     0FA1  3000               	movlw	0
  7508     0FA2  1803               	skipnc
  7509     0FA3  3001               	movlw	1
  7510     0FA4  07D5               	addwf	___fladd@b+1,f
  7511     0FA5  3000               	movlw	0
  7512     0FA6  1803               	skipnc
  7513     0FA7  3001               	movlw	1
  7514     0FA8  07D6               	addwf	___fladd@b+2,f
  7515     0FA9  3000               	movlw	0
  7516     0FAA  1803               	skipnc
  7517     0FAB  3001               	movlw	1
  7518     0FAC  07D7               	addwf	___fladd@b+3,f
  7519     0FAD                     l2609:
  7520     0FAD  1C57               	btfss	___fladd@b+3,0
  7521     0FAE  2FB0               	goto	u2841
  7522     0FAF  2FB1               	goto	u2840
  7523     0FB0                     u2841:
  7524     0FB0  2FD3               	goto	l795
  7525     0FB1                     u2840:
  7526     0FB1                     l2611:
  7527     0FB1  0854               	movf	___fladd@b,w
  7528     0FB2  00DC               	movwf	??___fladd
  7529     0FB3  0855               	movf	___fladd@b+1,w
  7530     0FB4  00DD               	movwf	??___fladd+1
  7531     0FB5  0856               	movf	___fladd@b+2,w
  7532     0FB6  00DE               	movwf	??___fladd+2
  7533     0FB7  0857               	movf	___fladd@b+3,w
  7534     0FB8  00DF               	movwf	??___fladd+3
  7535     0FB9  3001               	movlw	1
  7536     0FBA  00E0               	movwf	??___fladd+4
  7537     0FBB                     u2855:
  7538     0FBB  0D5F               	rlf	??___fladd+3,w
  7539     0FBC  0CDF               	rrf	??___fladd+3,f
  7540     0FBD  0CDE               	rrf	??___fladd+2,f
  7541     0FBE  0CDD               	rrf	??___fladd+1,f
  7542     0FBF  0CDC               	rrf	??___fladd,f
  7543     0FC0                     u2850:
  7544     0FC0  0BE0               	decfsz	??___fladd+4,f
  7545     0FC1  2FBB               	goto	u2855
  7546     0FC2  085F               	movf	??___fladd+3,w
  7547     0FC3  00D7               	movwf	___fladd@b+3
  7548     0FC4  085E               	movf	??___fladd+2,w
  7549     0FC5  00D6               	movwf	___fladd@b+2
  7550     0FC6  085D               	movf	??___fladd+1,w
  7551     0FC7  00D5               	movwf	___fladd@b+1
  7552     0FC8  085C               	movf	??___fladd,w
  7553     0FC9  00D4               	movwf	___fladd@b
  7554     0FCA  0A66               	incf	___fladd@bexp,w
  7555     0FCB  1903               	btfsc	3,2
  7556     0FCC  2FCE               	goto	u2861
  7557     0FCD  2FCF               	goto	u2860
  7558     0FCE                     u2861:
  7559     0FCE  2FD3               	goto	l795
  7560     0FCF                     u2860:
  7561     0FCF                     l2613:
  7562     0FCF  3001               	movlw	1
  7563     0FD0  00DC               	movwf	??___fladd
  7564     0FD1  085C               	movf	??___fladd,w
  7565     0FD2  07E6               	addwf	___fladd@bexp,f
  7566     0FD3                     l795:
  7567     0FD3  0A66               	incf	___fladd@bexp,w
  7568     0FD4  1903               	btfsc	3,2
  7569     0FD5  2FD7               	goto	u2871
  7570     0FD6  2FD8               	goto	u2870
  7571     0FD7                     u2871:
  7572     0FD7  2FDD               	goto	l2617
  7573     0FD8                     u2870:
  7574     0FD8                     l2615:
  7575     0FD8  0866               	movf	___fladd@bexp,w
  7576     0FD9  1D03               	btfss	3,2
  7577     0FDA  2FDC               	goto	u2881
  7578     0FDB  2FDD               	goto	u2880
  7579     0FDC                     u2881:
  7580     0FDC  2FEB               	goto	l2623
  7581     0FDD                     u2880:
  7582     0FDD                     l2617:
  7583     0FDD  3000               	movlw	0
  7584     0FDE  00D7               	movwf	___fladd@b+3
  7585     0FDF  3000               	movlw	0
  7586     0FE0  00D6               	movwf	___fladd@b+2
  7587     0FE1  3000               	movlw	0
  7588     0FE2  00D5               	movwf	___fladd@b+1
  7589     0FE3  3000               	movlw	0
  7590     0FE4  00D4               	movwf	___fladd@b
  7591     0FE5                     l2619:
  7592     0FE5  0866               	movf	___fladd@bexp,w
  7593     0FE6  1D03               	btfss	3,2
  7594     0FE7  2FE9               	goto	u2891
  7595     0FE8  2FEA               	goto	u2890
  7596     0FE9                     u2891:
  7597     0FE9  2FEB               	goto	l2623
  7598     0FEA                     u2890:
  7599     0FEA                     l2621:
  7600     0FEA  01E4               	clrf	___fladd@signs
  7601     0FEB                     l2623:
  7602     0FEB  1C66               	btfss	___fladd@bexp,0
  7603     0FEC  2FEE               	goto	u2901
  7604     0FED  2FEF               	goto	u2900
  7605     0FEE                     u2901:
  7606     0FEE  2FF1               	goto	l2627
  7607     0FEF                     u2900:
  7608     0FEF                     l2625:
  7609     0FEF  17D6               	bsf	___fladd@b+2,7
  7610     0FF0  2FF5               	goto	l803
  7611     0FF1                     l2627:
  7612     0FF1  307F               	movlw	127
  7613     0FF2  00DC               	movwf	??___fladd
  7614     0FF3  085C               	movf	??___fladd,w
  7615     0FF4  05D6               	andwf	___fladd@b+2,f
  7616     0FF5                     l803:
  7617     0FF5  0866               	movf	___fladd@bexp,w
  7618     0FF6  00DC               	movwf	??___fladd
  7619     0FF7  1003               	clrc
  7620     0FF8  0C5C               	rrf	??___fladd,w
  7621     0FF9  00D7               	movwf	___fladd@b+3
  7622     0FFA                     l2629:
  7623     0FFA  1FE4               	btfss	___fladd@signs,7
  7624     0FFB  2FFD               	goto	u2911
  7625     0FFC  2FFE               	goto	u2910
  7626     0FFD                     u2911:
  7627     0FFD  2FFF               	goto	l804
  7628     0FFE                     u2910:
  7629     0FFE                     l2631:
  7630     0FFE  17D7               	bsf	___fladd@b+3,7
  7631     0FFF                     l804:
  7632     0FFF                     l774:
  7633     0FFF  0008               	return
  7634     1000                     __end_of___fladd:
  7635                           
  7636                           	psect	text28
  7637     1D66                     __ptext28:	
  7638 ;; *************** function ___flneg *****************
  7639 ;; Defined at:
  7640 ;;		line 15 in file "C:\Program Files\Microchip\xc8\v2.40\pic\sources\c90\common\flneg.c"
  7641 ;; Parameters:    Size  Location     Type
  7642 ;;  f1              4    0[BANK0 ] unsigned char 
  7643 ;; Auto vars:     Size  Location     Type
  7644 ;;		None
  7645 ;; Return value:  Size  Location     Type
  7646 ;;                  4    0[BANK0 ] unsigned char 
  7647 ;; Registers used:
  7648 ;;		wreg
  7649 ;; Tracked objects:
  7650 ;;		On entry : 0/0
  7651 ;;		On exit  : 0/0
  7652 ;;		Unchanged: 0/0
  7653 ;; Data sizes:     COMMON   BANK0   BANK1   BANK3   BANK2
  7654 ;;      Params:         0       4       0       0       0
  7655 ;;      Locals:         0       0       0       0       0
  7656 ;;      Temps:          0       0       0       0       0
  7657 ;;      Totals:         0       4       0       0       0
  7658 ;;Total ram usage:        4 bytes
  7659 ;; Hardware stack levels used: 1
  7660 ;; Hardware stack levels required when called: 4
  7661 ;; This function calls:
  7662 ;;		Nothing
  7663 ;; This function is called by:
  7664 ;;		_floattostr
  7665 ;; This function uses a non-reentrant model
  7666 ;;
  7667                           
  7668     1D66                     ___flneg:	
  7669                           ;psect for function ___flneg
  7670                           
  7671     1D66                     l2763:	
  7672                           ;incstack = 0
  7673                           ; Regs used in ___flneg: [wreg]
  7674                           
  7675     1D66  1283               	bcf	3,5	;RP0=0, select bank0
  7676     1D67  1303               	bcf	3,6	;RP1=0, select bank0
  7677     1D68  0823               	movf	___flneg@f1+3,w
  7678     1D69  0422               	iorwf	___flneg@f1+2,w
  7679     1D6A  0421               	iorwf	___flneg@f1+1,w
  7680     1D6B  0420               	iorwf	___flneg@f1,w
  7681     1D6C  1903               	skipnz
  7682     1D6D  2D6F               	goto	u3141
  7683     1D6E  2D70               	goto	u3140
  7684     1D6F                     u3141:
  7685     1D6F  2D72               	goto	l2767
  7686     1D70                     u3140:
  7687     1D70                     l2765:
  7688     1D70  3080               	movlw	128
  7689     1D71  06A3               	xorwf	___flneg@f1+3,f
  7690     1D72                     l2767:
  7691     1D72                     l650:
  7692     1D72  0008               	return
  7693     1D73                     __end_of___flneg:
  7694                           
  7695                           	psect	text29
  7696     0436                     __ptext29:	
  7697 ;; *************** function ___flmul *****************
  7698 ;; Defined at:
  7699 ;;		line 8 in file "C:\Program Files\Microchip\xc8\v2.40\pic\sources\c90\common\sprcmul.c"
  7700 ;; Parameters:    Size  Location     Type
  7701 ;;  b               4   26[BANK0 ] unsigned char 
  7702 ;;  a               4   30[BANK0 ] unsigned char 
  7703 ;; Auto vars:     Size  Location     Type
  7704 ;;  prod            4   46[BANK0 ] struct .
  7705 ;;  grs             4   40[BANK0 ] unsigned long 
  7706 ;;  temp            2   50[BANK0 ] struct .
  7707 ;;  bexp            1   45[BANK0 ] unsigned char 
  7708 ;;  aexp            1   44[BANK0 ] unsigned char 
  7709 ;;  sign            1   39[BANK0 ] unsigned char 
  7710 ;; Return value:  Size  Location     Type
  7711 ;;                  4   26[BANK0 ] unsigned char 
  7712 ;; Registers used:
  7713 ;;		wreg, status,2, status,0, btemp+1, pclath, cstack
  7714 ;; Tracked objects:
  7715 ;;		On entry : 0/0
  7716 ;;		On exit  : 0/0
  7717 ;;		Unchanged: 0/0
  7718 ;; Data sizes:     COMMON   BANK0   BANK1   BANK3   BANK2
  7719 ;;      Params:         0       8       0       0       0
  7720 ;;      Locals:         0      13       0       0       0
  7721 ;;      Temps:          0       5       0       0       0
  7722 ;;      Totals:         0      26       0       0       0
  7723 ;;Total ram usage:       26 bytes
  7724 ;; Hardware stack levels used: 1
  7725 ;; Hardware stack levels required when called: 5
  7726 ;; This function calls:
  7727 ;;		__Umul8_16
  7728 ;; This function is called by:
  7729 ;;		_floattostr
  7730 ;;		_AHT10_Read
  7731 ;; This function uses a non-reentrant model
  7732 ;;
  7733                           
  7734     0436                     ___flmul:	
  7735                           ;psect for function ___flmul
  7736                           
  7737     0436                     l2955:	
  7738                           ;incstack = 0
  7739                           ; Regs used in ___flmul: [wreg+status,2+status,0+btemp+1+pclath+cstack]
  7740                           
  7741     0436  1283               	bcf	3,5	;RP0=0, select bank0
  7742     0437  1303               	bcf	3,6	;RP1=0, select bank0
  7743     0438  083D               	movf	___flmul@b+3,w
  7744     0439  3980               	andlw	128
  7745     043A  00C7               	movwf	___flmul@sign
  7746     043B                     l2957:
  7747     043B  083D               	movf	___flmul@b+3,w
  7748     043C  00C2               	movwf	??___flmul
  7749     043D  0742               	addwf	??___flmul,w
  7750     043E  00CD               	movwf	___flmul@bexp
  7751     043F                     l2959:
  7752     043F  1FBC               	btfss	___flmul@b+2,7
  7753     0440  2C42               	goto	u3541
  7754     0441  2C43               	goto	u3540
  7755     0442                     u3541:
  7756     0442  2C44               	goto	l2963
  7757     0443                     u3540:
  7758     0443                     l2961:
  7759     0443  144D               	bsf	___flmul@bexp,0
  7760     0444                     l2963:
  7761     0444  084D               	movf	___flmul@bexp,w
  7762     0445  1903               	btfsc	3,2
  7763     0446  2C48               	goto	u3551
  7764     0447  2C49               	goto	u3550
  7765     0448                     u3551:
  7766     0448  2C58               	goto	l2971
  7767     0449                     u3550:
  7768     0449                     l2965:
  7769     0449  0A4D               	incf	___flmul@bexp,w
  7770     044A  1D03               	btfss	3,2
  7771     044B  2C4D               	goto	u3561
  7772     044C  2C4E               	goto	u3560
  7773     044D                     u3561:
  7774     044D  2C56               	goto	l2969
  7775     044E                     u3560:
  7776     044E                     l2967:
  7777     044E  3000               	movlw	0
  7778     044F  00BD               	movwf	___flmul@b+3
  7779     0450  3000               	movlw	0
  7780     0451  00BC               	movwf	___flmul@b+2
  7781     0452  3000               	movlw	0
  7782     0453  00BB               	movwf	___flmul@b+1
  7783     0454  3000               	movlw	0
  7784     0455  00BA               	movwf	___flmul@b
  7785     0456                     l2969:
  7786     0456  17BC               	bsf	___flmul@b+2,7
  7787     0457  2C60               	goto	l2973
  7788     0458                     l2971:
  7789     0458  3000               	movlw	0
  7790     0459  00BD               	movwf	___flmul@b+3
  7791     045A  3000               	movlw	0
  7792     045B  00BC               	movwf	___flmul@b+2
  7793     045C  3000               	movlw	0
  7794     045D  00BB               	movwf	___flmul@b+1
  7795     045E  3000               	movlw	0
  7796     045F  00BA               	movwf	___flmul@b
  7797     0460                     l2973:
  7798     0460  0841               	movf	___flmul@a+3,w
  7799     0461  3980               	andlw	128
  7800     0462  00C2               	movwf	??___flmul
  7801     0463  0842               	movf	??___flmul,w
  7802     0464  06C7               	xorwf	___flmul@sign,f
  7803     0465                     l2975:
  7804     0465  0841               	movf	___flmul@a+3,w
  7805     0466  00C2               	movwf	??___flmul
  7806     0467  0742               	addwf	??___flmul,w
  7807     0468  00CC               	movwf	___flmul@aexp
  7808     0469                     l2977:
  7809     0469  1FC0               	btfss	___flmul@a+2,7
  7810     046A  2C6C               	goto	u3571
  7811     046B  2C6D               	goto	u3570
  7812     046C                     u3571:
  7813     046C  2C6E               	goto	l2981
  7814     046D                     u3570:
  7815     046D                     l2979:
  7816     046D  144C               	bsf	___flmul@aexp,0
  7817     046E                     l2981:
  7818     046E  084C               	movf	___flmul@aexp,w
  7819     046F  1903               	btfsc	3,2
  7820     0470  2C72               	goto	u3581
  7821     0471  2C73               	goto	u3580
  7822     0472                     u3581:
  7823     0472  2C82               	goto	l2989
  7824     0473                     u3580:
  7825     0473                     l2983:
  7826     0473  0A4C               	incf	___flmul@aexp,w
  7827     0474  1D03               	btfss	3,2
  7828     0475  2C77               	goto	u3591
  7829     0476  2C78               	goto	u3590
  7830     0477                     u3591:
  7831     0477  2C80               	goto	l2987
  7832     0478                     u3590:
  7833     0478                     l2985:
  7834     0478  3000               	movlw	0
  7835     0479  00C1               	movwf	___flmul@a+3
  7836     047A  3000               	movlw	0
  7837     047B  00C0               	movwf	___flmul@a+2
  7838     047C  3000               	movlw	0
  7839     047D  00BF               	movwf	___flmul@a+1
  7840     047E  3000               	movlw	0
  7841     047F  00BE               	movwf	___flmul@a
  7842     0480                     l2987:
  7843     0480  17C0               	bsf	___flmul@a+2,7
  7844     0481  2C8A               	goto	l2991
  7845     0482                     l2989:
  7846     0482  3000               	movlw	0
  7847     0483  00C1               	movwf	___flmul@a+3
  7848     0484  3000               	movlw	0
  7849     0485  00C0               	movwf	___flmul@a+2
  7850     0486  3000               	movlw	0
  7851     0487  00BF               	movwf	___flmul@a+1
  7852     0488  3000               	movlw	0
  7853     0489  00BE               	movwf	___flmul@a
  7854     048A                     l2991:
  7855     048A  084C               	movf	___flmul@aexp,w
  7856     048B  1903               	btfsc	3,2
  7857     048C  2C8E               	goto	u3601
  7858     048D  2C8F               	goto	u3600
  7859     048E                     u3601:
  7860     048E  2C94               	goto	l2995
  7861     048F                     u3600:
  7862     048F                     l2993:
  7863     048F  084D               	movf	___flmul@bexp,w
  7864     0490  1D03               	btfss	3,2
  7865     0491  2C93               	goto	u3611
  7866     0492  2C94               	goto	u3610
  7867     0493                     u3611:
  7868     0493  2C9D               	goto	l2999
  7869     0494                     u3610:
  7870     0494                     l2995:
  7871     0494  3000               	movlw	0
  7872     0495  00BD               	movwf	?___flmul+3
  7873     0496  3000               	movlw	0
  7874     0497  00BC               	movwf	?___flmul+2
  7875     0498  3000               	movlw	0
  7876     0499  00BB               	movwf	?___flmul+1
  7877     049A  3000               	movlw	0
  7878     049B  00BA               	movwf	?___flmul
  7879     049C  2F7A               	goto	l857
  7880     049D                     l2999:
  7881     049D  083A               	movf	___flmul@b,w
  7882     049E  00A0               	movwf	__Umul8_16@multiplicand
  7883     049F  0840               	movf	___flmul@a+2,w
  7884     04A0  160A  158A  268E  120A  118A  	fcall	__Umul8_16
  7885     04A5  1283               	bcf	3,5	;RP0=0, select bank0
  7886     04A6  1303               	bcf	3,6	;RP1=0, select bank0
  7887     04A7  0821               	movf	?__Umul8_16+1,w
  7888     04A8  00D3               	movwf	___flmul@temp+1
  7889     04A9  0820               	movf	?__Umul8_16,w
  7890     04AA  00D2               	movwf	___flmul@temp
  7891     04AB                     l3001:
  7892     04AB  0852               	movf	___flmul@temp,w
  7893     04AC  00C2               	movwf	??___flmul
  7894     04AD  01C3               	clrf	??___flmul+1
  7895     04AE  01C4               	clrf	??___flmul+2
  7896     04AF  01C5               	clrf	??___flmul+3
  7897     04B0  0845               	movf	??___flmul+3,w
  7898     04B1  00CB               	movwf	___flmul@grs+3
  7899     04B2  0844               	movf	??___flmul+2,w
  7900     04B3  00CA               	movwf	___flmul@grs+2
  7901     04B4  0843               	movf	??___flmul+1,w
  7902     04B5  00C9               	movwf	___flmul@grs+1
  7903     04B6  0842               	movf	??___flmul,w
  7904     04B7  00C8               	movwf	___flmul@grs
  7905     04B8                     l3003:
  7906     04B8  0853               	movf	___flmul@temp+1,w
  7907     04B9  00C2               	movwf	??___flmul
  7908     04BA  01C3               	clrf	??___flmul+1
  7909     04BB  01C4               	clrf	??___flmul+2
  7910     04BC  01C5               	clrf	??___flmul+3
  7911     04BD  0845               	movf	??___flmul+3,w
  7912     04BE  00D1               	movwf	___flmul@prod+3
  7913     04BF  0844               	movf	??___flmul+2,w
  7914     04C0  00D0               	movwf	___flmul@prod+2
  7915     04C1  0843               	movf	??___flmul+1,w
  7916     04C2  00CF               	movwf	___flmul@prod+1
  7917     04C3  0842               	movf	??___flmul,w
  7918     04C4  00CE               	movwf	___flmul@prod
  7919     04C5  083B               	movf	___flmul@b+1,w
  7920     04C6  00A0               	movwf	__Umul8_16@multiplicand
  7921     04C7  083F               	movf	___flmul@a+1,w
  7922     04C8  160A  158A  268E  120A  118A  	fcall	__Umul8_16
  7923     04CD  1283               	bcf	3,5	;RP0=0, select bank0
  7924     04CE  1303               	bcf	3,6	;RP1=0, select bank0
  7925     04CF  0821               	movf	?__Umul8_16+1,w
  7926     04D0  00D3               	movwf	___flmul@temp+1
  7927     04D1  0820               	movf	?__Umul8_16,w
  7928     04D2  00D2               	movwf	___flmul@temp
  7929     04D3                     l3005:
  7930     04D3  0852               	movf	___flmul@temp,w
  7931     04D4  00C2               	movwf	??___flmul
  7932     04D5  01C3               	clrf	??___flmul+1
  7933     04D6  01C4               	clrf	??___flmul+2
  7934     04D7  01C5               	clrf	??___flmul+3
  7935     04D8  0842               	movf	??___flmul,w
  7936     04D9  07C8               	addwf	___flmul@grs,f
  7937     04DA  0843               	movf	??___flmul+1,w
  7938     04DB  1103               	clrz
  7939     04DC  1803               	skipnc
  7940     04DD  3E01               	addlw	1
  7941     04DE  1903               	skipnz
  7942     04DF  2CE1               	goto	u3621
  7943     04E0  07C9               	addwf	___flmul@grs+1,f
  7944     04E1                     u3621:
  7945     04E1  0844               	movf	??___flmul+2,w
  7946     04E2  1103               	clrz
  7947     04E3  1803               	skipnc
  7948     04E4  3E01               	addlw	1
  7949     04E5  1903               	skipnz
  7950     04E6  2CE8               	goto	u3622
  7951     04E7  07CA               	addwf	___flmul@grs+2,f
  7952     04E8                     u3622:
  7953     04E8  0845               	movf	??___flmul+3,w
  7954     04E9  1103               	clrz
  7955     04EA  1803               	skipnc
  7956     04EB  3E01               	addlw	1
  7957     04EC  1903               	skipnz
  7958     04ED  2CEF               	goto	u3623
  7959     04EE  07CB               	addwf	___flmul@grs+3,f
  7960     04EF                     u3623:
  7961     04EF                     l3007:
  7962     04EF  0853               	movf	___flmul@temp+1,w
  7963     04F0  00C2               	movwf	??___flmul
  7964     04F1  01C3               	clrf	??___flmul+1
  7965     04F2  01C4               	clrf	??___flmul+2
  7966     04F3  01C5               	clrf	??___flmul+3
  7967     04F4  0842               	movf	??___flmul,w
  7968     04F5  07CE               	addwf	___flmul@prod,f
  7969     04F6  0843               	movf	??___flmul+1,w
  7970     04F7  1103               	clrz
  7971     04F8  1803               	skipnc
  7972     04F9  3E01               	addlw	1
  7973     04FA  1903               	skipnz
  7974     04FB  2CFD               	goto	u3631
  7975     04FC  07CF               	addwf	___flmul@prod+1,f
  7976     04FD                     u3631:
  7977     04FD  0844               	movf	??___flmul+2,w
  7978     04FE  1103               	clrz
  7979     04FF  1803               	skipnc
  7980     0500  3E01               	addlw	1
  7981     0501  1903               	skipnz
  7982     0502  2D04               	goto	u3632
  7983     0503  07D0               	addwf	___flmul@prod+2,f
  7984     0504                     u3632:
  7985     0504  0845               	movf	??___flmul+3,w
  7986     0505  1103               	clrz
  7987     0506  1803               	skipnc
  7988     0507  3E01               	addlw	1
  7989     0508  1903               	skipnz
  7990     0509  2D0B               	goto	u3633
  7991     050A  07D1               	addwf	___flmul@prod+3,f
  7992     050B                     u3633:
  7993     050B  083C               	movf	___flmul@b+2,w
  7994     050C  00A0               	movwf	__Umul8_16@multiplicand
  7995     050D  083E               	movf	___flmul@a,w
  7996     050E  160A  158A  268E  120A  118A  	fcall	__Umul8_16
  7997     0513  1283               	bcf	3,5	;RP0=0, select bank0
  7998     0514  1303               	bcf	3,6	;RP1=0, select bank0
  7999     0515  0821               	movf	?__Umul8_16+1,w
  8000     0516  00D3               	movwf	___flmul@temp+1
  8001     0517  0820               	movf	?__Umul8_16,w
  8002     0518  00D2               	movwf	___flmul@temp
  8003     0519                     l3009:
  8004     0519  0852               	movf	___flmul@temp,w
  8005     051A  00C2               	movwf	??___flmul
  8006     051B  01C3               	clrf	??___flmul+1
  8007     051C  01C4               	clrf	??___flmul+2
  8008     051D  01C5               	clrf	??___flmul+3
  8009     051E  0842               	movf	??___flmul,w
  8010     051F  07C8               	addwf	___flmul@grs,f
  8011     0520  0843               	movf	??___flmul+1,w
  8012     0521  1103               	clrz
  8013     0522  1803               	skipnc
  8014     0523  3E01               	addlw	1
  8015     0524  1903               	skipnz
  8016     0525  2D27               	goto	u3641
  8017     0526  07C9               	addwf	___flmul@grs+1,f
  8018     0527                     u3641:
  8019     0527  0844               	movf	??___flmul+2,w
  8020     0528  1103               	clrz
  8021     0529  1803               	skipnc
  8022     052A  3E01               	addlw	1
  8023     052B  1903               	skipnz
  8024     052C  2D2E               	goto	u3642
  8025     052D  07CA               	addwf	___flmul@grs+2,f
  8026     052E                     u3642:
  8027     052E  0845               	movf	??___flmul+3,w
  8028     052F  1103               	clrz
  8029     0530  1803               	skipnc
  8030     0531  3E01               	addlw	1
  8031     0532  1903               	skipnz
  8032     0533  2D35               	goto	u3643
  8033     0534  07CB               	addwf	___flmul@grs+3,f
  8034     0535                     u3643:
  8035     0535                     l3011:
  8036     0535  0853               	movf	___flmul@temp+1,w
  8037     0536  00C2               	movwf	??___flmul
  8038     0537  01C3               	clrf	??___flmul+1
  8039     0538  01C4               	clrf	??___flmul+2
  8040     0539  01C5               	clrf	??___flmul+3
  8041     053A  0842               	movf	??___flmul,w
  8042     053B  07CE               	addwf	___flmul@prod,f
  8043     053C  0843               	movf	??___flmul+1,w
  8044     053D  1103               	clrz
  8045     053E  1803               	skipnc
  8046     053F  3E01               	addlw	1
  8047     0540  1903               	skipnz
  8048     0541  2D43               	goto	u3651
  8049     0542  07CF               	addwf	___flmul@prod+1,f
  8050     0543                     u3651:
  8051     0543  0844               	movf	??___flmul+2,w
  8052     0544  1103               	clrz
  8053     0545  1803               	skipnc
  8054     0546  3E01               	addlw	1
  8055     0547  1903               	skipnz
  8056     0548  2D4A               	goto	u3652
  8057     0549  07D0               	addwf	___flmul@prod+2,f
  8058     054A                     u3652:
  8059     054A  0845               	movf	??___flmul+3,w
  8060     054B  1103               	clrz
  8061     054C  1803               	skipnc
  8062     054D  3E01               	addlw	1
  8063     054E  1903               	skipnz
  8064     054F  2D51               	goto	u3653
  8065     0550  07D1               	addwf	___flmul@prod+3,f
  8066     0551                     u3653:
  8067     0551                     l3013:
  8068     0551  3008               	movlw	8
  8069     0552  00C2               	movwf	??___flmul
  8070     0553                     u3665:
  8071     0553  1003               	clrc
  8072     0554  0DC8               	rlf	___flmul@grs,f
  8073     0555  0DC9               	rlf	___flmul@grs+1,f
  8074     0556  0DCA               	rlf	___flmul@grs+2,f
  8075     0557  0DCB               	rlf	___flmul@grs+3,f
  8076     0558  0BC2               	decfsz	??___flmul,f
  8077     0559  2D53               	goto	u3665
  8078     055A                     l3015:
  8079     055A  083B               	movf	___flmul@b+1,w
  8080     055B  00A0               	movwf	__Umul8_16@multiplicand
  8081     055C  083E               	movf	___flmul@a,w
  8082     055D  160A  158A  268E  120A  118A  	fcall	__Umul8_16
  8083     0562  1283               	bcf	3,5	;RP0=0, select bank0
  8084     0563  1303               	bcf	3,6	;RP1=0, select bank0
  8085     0564  0821               	movf	?__Umul8_16+1,w
  8086     0565  00D3               	movwf	___flmul@temp+1
  8087     0566  0820               	movf	?__Umul8_16,w
  8088     0567  00D2               	movwf	___flmul@temp
  8089     0568                     l3017:
  8090     0568  0852               	movf	___flmul@temp,w
  8091     0569  00C2               	movwf	??___flmul
  8092     056A  0853               	movf	___flmul@temp+1,w
  8093     056B  00C3               	movwf	??___flmul+1
  8094     056C  01C4               	clrf	??___flmul+2
  8095     056D  01C5               	clrf	??___flmul+3
  8096     056E  0842               	movf	??___flmul,w
  8097     056F  07C8               	addwf	___flmul@grs,f
  8098     0570  0843               	movf	??___flmul+1,w
  8099     0571  1103               	clrz
  8100     0572  1803               	skipnc
  8101     0573  3E01               	addlw	1
  8102     0574  1903               	skipnz
  8103     0575  2D77               	goto	u3671
  8104     0576  07C9               	addwf	___flmul@grs+1,f
  8105     0577                     u3671:
  8106     0577  0844               	movf	??___flmul+2,w
  8107     0578  1103               	clrz
  8108     0579  1803               	skipnc
  8109     057A  3E01               	addlw	1
  8110     057B  1903               	skipnz
  8111     057C  2D7E               	goto	u3672
  8112     057D  07CA               	addwf	___flmul@grs+2,f
  8113     057E                     u3672:
  8114     057E  0845               	movf	??___flmul+3,w
  8115     057F  1103               	clrz
  8116     0580  1803               	skipnc
  8117     0581  3E01               	addlw	1
  8118     0582  1903               	skipnz
  8119     0583  2D85               	goto	u3673
  8120     0584  07CB               	addwf	___flmul@grs+3,f
  8121     0585                     u3673:
  8122     0585                     l3019:
  8123     0585  083A               	movf	___flmul@b,w
  8124     0586  00A0               	movwf	__Umul8_16@multiplicand
  8125     0587  083F               	movf	___flmul@a+1,w
  8126     0588  160A  158A  268E  120A  118A  	fcall	__Umul8_16
  8127     058D  1283               	bcf	3,5	;RP0=0, select bank0
  8128     058E  1303               	bcf	3,6	;RP1=0, select bank0
  8129     058F  0821               	movf	?__Umul8_16+1,w
  8130     0590  00D3               	movwf	___flmul@temp+1
  8131     0591  0820               	movf	?__Umul8_16,w
  8132     0592  00D2               	movwf	___flmul@temp
  8133     0593                     l3021:
  8134     0593  0852               	movf	___flmul@temp,w
  8135     0594  00C2               	movwf	??___flmul
  8136     0595  0853               	movf	___flmul@temp+1,w
  8137     0596  00C3               	movwf	??___flmul+1
  8138     0597  01C4               	clrf	??___flmul+2
  8139     0598  01C5               	clrf	??___flmul+3
  8140     0599  0842               	movf	??___flmul,w
  8141     059A  07C8               	addwf	___flmul@grs,f
  8142     059B  0843               	movf	??___flmul+1,w
  8143     059C  1103               	clrz
  8144     059D  1803               	skipnc
  8145     059E  3E01               	addlw	1
  8146     059F  1903               	skipnz
  8147     05A0  2DA2               	goto	u3681
  8148     05A1  07C9               	addwf	___flmul@grs+1,f
  8149     05A2                     u3681:
  8150     05A2  0844               	movf	??___flmul+2,w
  8151     05A3  1103               	clrz
  8152     05A4  1803               	skipnc
  8153     05A5  3E01               	addlw	1
  8154     05A6  1903               	skipnz
  8155     05A7  2DA9               	goto	u3682
  8156     05A8  07CA               	addwf	___flmul@grs+2,f
  8157     05A9                     u3682:
  8158     05A9  0845               	movf	??___flmul+3,w
  8159     05AA  1103               	clrz
  8160     05AB  1803               	skipnc
  8161     05AC  3E01               	addlw	1
  8162     05AD  1903               	skipnz
  8163     05AE  2DB0               	goto	u3683
  8164     05AF  07CB               	addwf	___flmul@grs+3,f
  8165     05B0                     u3683:
  8166     05B0                     l3023:
  8167     05B0  3008               	movlw	8
  8168     05B1  00C2               	movwf	??___flmul
  8169     05B2                     u3695:
  8170     05B2  1003               	clrc
  8171     05B3  0DC8               	rlf	___flmul@grs,f
  8172     05B4  0DC9               	rlf	___flmul@grs+1,f
  8173     05B5  0DCA               	rlf	___flmul@grs+2,f
  8174     05B6  0DCB               	rlf	___flmul@grs+3,f
  8175     05B7  0BC2               	decfsz	??___flmul,f
  8176     05B8  2DB2               	goto	u3695
  8177     05B9  083A               	movf	___flmul@b,w
  8178     05BA  00A0               	movwf	__Umul8_16@multiplicand
  8179     05BB  083E               	movf	___flmul@a,w
  8180     05BC  160A  158A  268E  120A  118A  	fcall	__Umul8_16
  8181     05C1  1283               	bcf	3,5	;RP0=0, select bank0
  8182     05C2  1303               	bcf	3,6	;RP1=0, select bank0
  8183     05C3  0821               	movf	?__Umul8_16+1,w
  8184     05C4  00D3               	movwf	___flmul@temp+1
  8185     05C5  0820               	movf	?__Umul8_16,w
  8186     05C6  00D2               	movwf	___flmul@temp
  8187     05C7                     l3025:
  8188     05C7  0852               	movf	___flmul@temp,w
  8189     05C8  00C2               	movwf	??___flmul
  8190     05C9  0853               	movf	___flmul@temp+1,w
  8191     05CA  00C3               	movwf	??___flmul+1
  8192     05CB  01C4               	clrf	??___flmul+2
  8193     05CC  01C5               	clrf	??___flmul+3
  8194     05CD  0842               	movf	??___flmul,w
  8195     05CE  07C8               	addwf	___flmul@grs,f
  8196     05CF  0843               	movf	??___flmul+1,w
  8197     05D0  1103               	clrz
  8198     05D1  1803               	skipnc
  8199     05D2  3E01               	addlw	1
  8200     05D3  1903               	skipnz
  8201     05D4  2DD6               	goto	u3701
  8202     05D5  07C9               	addwf	___flmul@grs+1,f
  8203     05D6                     u3701:
  8204     05D6  0844               	movf	??___flmul+2,w
  8205     05D7  1103               	clrz
  8206     05D8  1803               	skipnc
  8207     05D9  3E01               	addlw	1
  8208     05DA  1903               	skipnz
  8209     05DB  2DDD               	goto	u3702
  8210     05DC  07CA               	addwf	___flmul@grs+2,f
  8211     05DD                     u3702:
  8212     05DD  0845               	movf	??___flmul+3,w
  8213     05DE  1103               	clrz
  8214     05DF  1803               	skipnc
  8215     05E0  3E01               	addlw	1
  8216     05E1  1903               	skipnz
  8217     05E2  2DE4               	goto	u3703
  8218     05E3  07CB               	addwf	___flmul@grs+3,f
  8219     05E4                     u3703:
  8220     05E4                     l3027:
  8221     05E4  083B               	movf	___flmul@b+1,w
  8222     05E5  00A0               	movwf	__Umul8_16@multiplicand
  8223     05E6  0840               	movf	___flmul@a+2,w
  8224     05E7  160A  158A  268E  120A  118A  	fcall	__Umul8_16
  8225     05EC  1283               	bcf	3,5	;RP0=0, select bank0
  8226     05ED  1303               	bcf	3,6	;RP1=0, select bank0
  8227     05EE  0821               	movf	?__Umul8_16+1,w
  8228     05EF  00D3               	movwf	___flmul@temp+1
  8229     05F0  0820               	movf	?__Umul8_16,w
  8230     05F1  00D2               	movwf	___flmul@temp
  8231     05F2  0852               	movf	___flmul@temp,w
  8232     05F3  00C2               	movwf	??___flmul
  8233     05F4  0853               	movf	___flmul@temp+1,w
  8234     05F5  00C3               	movwf	??___flmul+1
  8235     05F6  01C4               	clrf	??___flmul+2
  8236     05F7  01C5               	clrf	??___flmul+3
  8237     05F8  0842               	movf	??___flmul,w
  8238     05F9  07CE               	addwf	___flmul@prod,f
  8239     05FA  0843               	movf	??___flmul+1,w
  8240     05FB  1103               	clrz
  8241     05FC  1803               	skipnc
  8242     05FD  3E01               	addlw	1
  8243     05FE  1903               	skipnz
  8244     05FF  2E01               	goto	u3711
  8245     0600  07CF               	addwf	___flmul@prod+1,f
  8246     0601                     u3711:
  8247     0601  0844               	movf	??___flmul+2,w
  8248     0602  1103               	clrz
  8249     0603  1803               	skipnc
  8250     0604  3E01               	addlw	1
  8251     0605  1903               	skipnz
  8252     0606  2E08               	goto	u3712
  8253     0607  07D0               	addwf	___flmul@prod+2,f
  8254     0608                     u3712:
  8255     0608  0845               	movf	??___flmul+3,w
  8256     0609  1103               	clrz
  8257     060A  1803               	skipnc
  8258     060B  3E01               	addlw	1
  8259     060C  1903               	skipnz
  8260     060D  2E0F               	goto	u3713
  8261     060E  07D1               	addwf	___flmul@prod+3,f
  8262     060F                     u3713:
  8263     060F                     l3029:
  8264     060F  083C               	movf	___flmul@b+2,w
  8265     0610  00A0               	movwf	__Umul8_16@multiplicand
  8266     0611  083F               	movf	___flmul@a+1,w
  8267     0612  160A  158A  268E  120A  118A  	fcall	__Umul8_16
  8268     0617  1283               	bcf	3,5	;RP0=0, select bank0
  8269     0618  1303               	bcf	3,6	;RP1=0, select bank0
  8270     0619  0821               	movf	?__Umul8_16+1,w
  8271     061A  00D3               	movwf	___flmul@temp+1
  8272     061B  0820               	movf	?__Umul8_16,w
  8273     061C  00D2               	movwf	___flmul@temp
  8274     061D                     l3031:
  8275     061D  0852               	movf	___flmul@temp,w
  8276     061E  00C2               	movwf	??___flmul
  8277     061F  0853               	movf	___flmul@temp+1,w
  8278     0620  00C3               	movwf	??___flmul+1
  8279     0621  01C4               	clrf	??___flmul+2
  8280     0622  01C5               	clrf	??___flmul+3
  8281     0623  0842               	movf	??___flmul,w
  8282     0624  07CE               	addwf	___flmul@prod,f
  8283     0625  0843               	movf	??___flmul+1,w
  8284     0626  1103               	clrz
  8285     0627  1803               	skipnc
  8286     0628  3E01               	addlw	1
  8287     0629  1903               	skipnz
  8288     062A  2E2C               	goto	u3721
  8289     062B  07CF               	addwf	___flmul@prod+1,f
  8290     062C                     u3721:
  8291     062C  0844               	movf	??___flmul+2,w
  8292     062D  1103               	clrz
  8293     062E  1803               	skipnc
  8294     062F  3E01               	addlw	1
  8295     0630  1903               	skipnz
  8296     0631  2E33               	goto	u3722
  8297     0632  07D0               	addwf	___flmul@prod+2,f
  8298     0633                     u3722:
  8299     0633  0845               	movf	??___flmul+3,w
  8300     0634  1103               	clrz
  8301     0635  1803               	skipnc
  8302     0636  3E01               	addlw	1
  8303     0637  1903               	skipnz
  8304     0638  2E3A               	goto	u3723
  8305     0639  07D1               	addwf	___flmul@prod+3,f
  8306     063A                     u3723:
  8307     063A  083C               	movf	___flmul@b+2,w
  8308     063B  00A0               	movwf	__Umul8_16@multiplicand
  8309     063C  0840               	movf	___flmul@a+2,w
  8310     063D  160A  158A  268E  120A  118A  	fcall	__Umul8_16
  8311     0642  1283               	bcf	3,5	;RP0=0, select bank0
  8312     0643  1303               	bcf	3,6	;RP1=0, select bank0
  8313     0644  0821               	movf	?__Umul8_16+1,w
  8314     0645  00D3               	movwf	___flmul@temp+1
  8315     0646  0820               	movf	?__Umul8_16,w
  8316     0647  00D2               	movwf	___flmul@temp
  8317     0648                     l3033:
  8318     0648  0852               	movf	___flmul@temp,w
  8319     0649  00C2               	movwf	??___flmul
  8320     064A  0853               	movf	___flmul@temp+1,w
  8321     064B  00C3               	movwf	??___flmul+1
  8322     064C  01C4               	clrf	??___flmul+2
  8323     064D  01C5               	clrf	??___flmul+3
  8324     064E  3008               	movlw	8
  8325     064F                     u3735:
  8326     064F  1003               	clrc
  8327     0650  0DC2               	rlf	??___flmul,f
  8328     0651  0DC3               	rlf	??___flmul+1,f
  8329     0652  0DC4               	rlf	??___flmul+2,f
  8330     0653  0DC5               	rlf	??___flmul+3,f
  8331     0654                     u3730:
  8332     0654  3EFF               	addlw	-1
  8333     0655  1D03               	skipz
  8334     0656  2E4F               	goto	u3735
  8335     0657  0842               	movf	??___flmul,w
  8336     0658  07CE               	addwf	___flmul@prod,f
  8337     0659  0843               	movf	??___flmul+1,w
  8338     065A  1103               	clrz
  8339     065B  1803               	skipnc
  8340     065C  3E01               	addlw	1
  8341     065D  1903               	skipnz
  8342     065E  2E60               	goto	u3741
  8343     065F  07CF               	addwf	___flmul@prod+1,f
  8344     0660                     u3741:
  8345     0660  0844               	movf	??___flmul+2,w
  8346     0661  1103               	clrz
  8347     0662  1803               	skipnc
  8348     0663  3E01               	addlw	1
  8349     0664  1903               	skipnz
  8350     0665  2E67               	goto	u3742
  8351     0666  07D0               	addwf	___flmul@prod+2,f
  8352     0667                     u3742:
  8353     0667  0845               	movf	??___flmul+3,w
  8354     0668  1103               	clrz
  8355     0669  1803               	skipnc
  8356     066A  3E01               	addlw	1
  8357     066B  1903               	skipnz
  8358     066C  2E6E               	goto	u3743
  8359     066D  07D1               	addwf	___flmul@prod+3,f
  8360     066E                     u3743:
  8361     066E                     l3035:
  8362     066E  0848               	movf	___flmul@grs,w
  8363     066F  00C2               	movwf	??___flmul
  8364     0670  0849               	movf	___flmul@grs+1,w
  8365     0671  00C3               	movwf	??___flmul+1
  8366     0672  084A               	movf	___flmul@grs+2,w
  8367     0673  00C4               	movwf	??___flmul+2
  8368     0674  084B               	movf	___flmul@grs+3,w
  8369     0675  00C5               	movwf	??___flmul+3
  8370     0676  3018               	movlw	24
  8371     0677                     u3755:
  8372     0677  1003               	clrc
  8373     0678  0CC5               	rrf	??___flmul+3,f
  8374     0679  0CC4               	rrf	??___flmul+2,f
  8375     067A  0CC3               	rrf	??___flmul+1,f
  8376     067B  0CC2               	rrf	??___flmul,f
  8377     067C                     u3750:
  8378     067C  3EFF               	addlw	-1
  8379     067D  1D03               	skipz
  8380     067E  2E77               	goto	u3755
  8381     067F  0842               	movf	??___flmul,w
  8382     0680  07CE               	addwf	___flmul@prod,f
  8383     0681  0843               	movf	??___flmul+1,w
  8384     0682  1103               	clrz
  8385     0683  1803               	skipnc
  8386     0684  3E01               	addlw	1
  8387     0685  1903               	skipnz
  8388     0686  2E88               	goto	u3761
  8389     0687  07CF               	addwf	___flmul@prod+1,f
  8390     0688                     u3761:
  8391     0688  0844               	movf	??___flmul+2,w
  8392     0689  1103               	clrz
  8393     068A  1803               	skipnc
  8394     068B  3E01               	addlw	1
  8395     068C  1903               	skipnz
  8396     068D  2E8F               	goto	u3762
  8397     068E  07D0               	addwf	___flmul@prod+2,f
  8398     068F                     u3762:
  8399     068F  0845               	movf	??___flmul+3,w
  8400     0690  1103               	clrz
  8401     0691  1803               	skipnc
  8402     0692  3E01               	addlw	1
  8403     0693  1903               	skipnz
  8404     0694  2E96               	goto	u3763
  8405     0695  07D1               	addwf	___flmul@prod+3,f
  8406     0696                     u3763:
  8407     0696                     l3037:
  8408     0696  3008               	movlw	8
  8409     0697  00C2               	movwf	??___flmul
  8410     0698                     u3775:
  8411     0698  1003               	clrc
  8412     0699  0DC8               	rlf	___flmul@grs,f
  8413     069A  0DC9               	rlf	___flmul@grs+1,f
  8414     069B  0DCA               	rlf	___flmul@grs+2,f
  8415     069C  0DCB               	rlf	___flmul@grs+3,f
  8416     069D  0BC2               	decfsz	??___flmul,f
  8417     069E  2E98               	goto	u3775
  8418     069F                     l3039:
  8419     069F  084D               	movf	___flmul@bexp,w
  8420     06A0  074C               	addwf	___flmul@aexp,w
  8421     06A1  00C2               	movwf	??___flmul
  8422     06A2  01C3               	clrf	??___flmul+1
  8423     06A3  0DC3               	rlf	??___flmul+1,f
  8424     06A4  0842               	movf	??___flmul,w
  8425     06A5  3E82               	addlw	130
  8426     06A6  00D2               	movwf	___flmul@temp
  8427     06A7  0843               	movf	??___flmul+1,w
  8428     06A8  1803               	skipnc
  8429     06A9  3E01               	addlw	1
  8430     06AA  3EFF               	addlw	255
  8431     06AB  00D3               	movwf	___flmul@temp+1
  8432     06AC  2ECA               	goto	l3051
  8433     06AD                     l3041:
  8434     06AD  3001               	movlw	1
  8435     06AE  00C2               	movwf	??___flmul
  8436     06AF                     u3785:
  8437     06AF  1003               	clrc
  8438     06B0  0DCE               	rlf	___flmul@prod,f
  8439     06B1  0DCF               	rlf	___flmul@prod+1,f
  8440     06B2  0DD0               	rlf	___flmul@prod+2,f
  8441     06B3  0DD1               	rlf	___flmul@prod+3,f
  8442     06B4  0BC2               	decfsz	??___flmul,f
  8443     06B5  2EAF               	goto	u3785
  8444     06B6                     l3043:
  8445     06B6  1FCB               	btfss	___flmul@grs+3,7
  8446     06B7  2EB9               	goto	u3791
  8447     06B8  2EBA               	goto	u3790
  8448     06B9                     u3791:
  8449     06B9  2EBB               	goto	l3047
  8450     06BA                     u3790:
  8451     06BA                     l3045:
  8452     06BA  144E               	bsf	___flmul@prod,0
  8453     06BB                     l3047:
  8454     06BB  3001               	movlw	1
  8455     06BC  00C2               	movwf	??___flmul
  8456     06BD                     u3805:
  8457     06BD  1003               	clrc
  8458     06BE  0DC8               	rlf	___flmul@grs,f
  8459     06BF  0DC9               	rlf	___flmul@grs+1,f
  8460     06C0  0DCA               	rlf	___flmul@grs+2,f
  8461     06C1  0DCB               	rlf	___flmul@grs+3,f
  8462     06C2  0BC2               	decfsz	??___flmul,f
  8463     06C3  2EBD               	goto	u3805
  8464     06C4                     l3049:
  8465     06C4  30FF               	movlw	255
  8466     06C5  07D2               	addwf	___flmul@temp,f
  8467     06C6  1803               	skipnc
  8468     06C7  0AD3               	incf	___flmul@temp+1,f
  8469     06C8  30FF               	movlw	255
  8470     06C9  07D3               	addwf	___flmul@temp+1,f
  8471     06CA                     l3051:
  8472     06CA  1FD0               	btfss	___flmul@prod+2,7
  8473     06CB  2ECD               	goto	u3811
  8474     06CC  2ECE               	goto	u3810
  8475     06CD                     u3811:
  8476     06CD  2EAD               	goto	l3041
  8477     06CE                     u3810:
  8478     06CE                     l3053:
  8479     06CE  01CC               	clrf	___flmul@aexp
  8480     06CF                     l3055:
  8481     06CF  1FCB               	btfss	___flmul@grs+3,7
  8482     06D0  2ED2               	goto	u3821
  8483     06D1  2ED3               	goto	u3820
  8484     06D2                     u3821:
  8485     06D2  2EEF               	goto	l3063
  8486     06D3                     u3820:
  8487     06D3                     l3057:
  8488     06D3  30FF               	movlw	255
  8489     06D4  0548               	andwf	___flmul@grs,w
  8490     06D5  00C2               	movwf	??___flmul
  8491     06D6  30FF               	movlw	255
  8492     06D7  0549               	andwf	___flmul@grs+1,w
  8493     06D8  00C3               	movwf	??___flmul+1
  8494     06D9  30FF               	movlw	255
  8495     06DA  054A               	andwf	___flmul@grs+2,w
  8496     06DB  00C4               	movwf	??___flmul+2
  8497     06DC  307F               	movlw	127
  8498     06DD  054B               	andwf	___flmul@grs+3,w
  8499     06DE  00C5               	movwf	??___flmul+3
  8500     06DF  0845               	movf	??___flmul+3,w
  8501     06E0  0444               	iorwf	??___flmul+2,w
  8502     06E1  0443               	iorwf	??___flmul+1,w
  8503     06E2  0442               	iorwf	??___flmul,w
  8504     06E3  1903               	skipnz
  8505     06E4  2EE6               	goto	u3831
  8506     06E5  2EE7               	goto	u3830
  8507     06E6                     u3831:
  8508     06E6  2EEA               	goto	l863
  8509     06E7                     u3830:
  8510     06E7                     l3059:
  8511     06E7  01CC               	clrf	___flmul@aexp
  8512     06E8  0ACC               	incf	___flmul@aexp,f
  8513     06E9  2EEF               	goto	l3063
  8514     06EA                     l863:
  8515     06EA  1C4E               	btfss	___flmul@prod,0
  8516     06EB  2EED               	goto	u3841
  8517     06EC  2EEE               	goto	u3840
  8518     06ED                     u3841:
  8519     06ED  2EEF               	goto	l3063
  8520     06EE                     u3840:
  8521     06EE  2EE7               	goto	l3059
  8522     06EF                     l3063:
  8523     06EF  084C               	movf	___flmul@aexp,w
  8524     06F0  1903               	btfsc	3,2
  8525     06F1  2EF3               	goto	u3851
  8526     06F2  2EF4               	goto	u3850
  8527     06F3                     u3851:
  8528     06F3  2F25               	goto	l3073
  8529     06F4                     u3850:
  8530     06F4                     l3065:
  8531     06F4  3001               	movlw	1
  8532     06F5  07CE               	addwf	___flmul@prod,f
  8533     06F6  3000               	movlw	0
  8534     06F7  1803               	skipnc
  8535     06F8  3001               	movlw	1
  8536     06F9  07CF               	addwf	___flmul@prod+1,f
  8537     06FA  3000               	movlw	0
  8538     06FB  1803               	skipnc
  8539     06FC  3001               	movlw	1
  8540     06FD  07D0               	addwf	___flmul@prod+2,f
  8541     06FE  3000               	movlw	0
  8542     06FF  1803               	skipnc
  8543     0700  3001               	movlw	1
  8544     0701  07D1               	addwf	___flmul@prod+3,f
  8545     0702                     l3067:
  8546     0702  1C51               	btfss	___flmul@prod+3,0
  8547     0703  2F05               	goto	u3861
  8548     0704  2F06               	goto	u3860
  8549     0705                     u3861:
  8550     0705  2F25               	goto	l3073
  8551     0706                     u3860:
  8552     0706                     l3069:
  8553     0706  084E               	movf	___flmul@prod,w
  8554     0707  00C2               	movwf	??___flmul
  8555     0708  084F               	movf	___flmul@prod+1,w
  8556     0709  00C3               	movwf	??___flmul+1
  8557     070A  0850               	movf	___flmul@prod+2,w
  8558     070B  00C4               	movwf	??___flmul+2
  8559     070C  0851               	movf	___flmul@prod+3,w
  8560     070D  00C5               	movwf	??___flmul+3
  8561     070E  3001               	movlw	1
  8562     070F  00C6               	movwf	??___flmul+4
  8563     0710                     u3875:
  8564     0710  0D45               	rlf	??___flmul+3,w
  8565     0711  0CC5               	rrf	??___flmul+3,f
  8566     0712  0CC4               	rrf	??___flmul+2,f
  8567     0713  0CC3               	rrf	??___flmul+1,f
  8568     0714  0CC2               	rrf	??___flmul,f
  8569     0715                     u3870:
  8570     0715  0BC6               	decfsz	??___flmul+4,f
  8571     0716  2F10               	goto	u3875
  8572     0717  0845               	movf	??___flmul+3,w
  8573     0718  00D1               	movwf	___flmul@prod+3
  8574     0719  0844               	movf	??___flmul+2,w
  8575     071A  00D0               	movwf	___flmul@prod+2
  8576     071B  0843               	movf	??___flmul+1,w
  8577     071C  00CF               	movwf	___flmul@prod+1
  8578     071D  0842               	movf	??___flmul,w
  8579     071E  00CE               	movwf	___flmul@prod
  8580     071F                     l3071:
  8581     071F  3001               	movlw	1
  8582     0720  07D2               	addwf	___flmul@temp,f
  8583     0721  1803               	skipnc
  8584     0722  0AD3               	incf	___flmul@temp+1,f
  8585     0723  3000               	movlw	0
  8586     0724  07D3               	addwf	___flmul@temp+1,f
  8587     0725                     l3073:
  8588     0725  0853               	movf	___flmul@temp+1,w
  8589     0726  3A80               	xorlw	128
  8590     0727  00FF               	movwf	btemp+1
  8591     0728  3080               	movlw	128
  8592     0729  027F               	subwf	btemp+1,w
  8593     072A  1D03               	skipz
  8594     072B  2F2E               	goto	u3885
  8595     072C  30FF               	movlw	255
  8596     072D  0252               	subwf	___flmul@temp,w
  8597     072E                     u3885:
  8598     072E  1C03               	skipc
  8599     072F  2F31               	goto	u3881
  8600     0730  2F32               	goto	u3880
  8601     0731                     u3881:
  8602     0731  2F3D               	goto	l3077
  8603     0732                     u3880:
  8604     0732                     l3075:
  8605     0732  307F               	movlw	127
  8606     0733  1283               	bcf	3,5	;RP0=0, select bank0
  8607     0734  1303               	bcf	3,6	;RP1=0, select bank0
  8608     0735  00D1               	movwf	___flmul@prod+3
  8609     0736  3080               	movlw	128
  8610     0737  00D0               	movwf	___flmul@prod+2
  8611     0738  3000               	movlw	0
  8612     0739  00CF               	movwf	___flmul@prod+1
  8613     073A  3000               	movlw	0
  8614     073B  00CE               	movwf	___flmul@prod
  8615     073C  2F6E               	goto	l869
  8616     073D                     l3077:
  8617     073D  1283               	bcf	3,5	;RP0=0, select bank0
  8618     073E  1303               	bcf	3,6	;RP1=0, select bank0
  8619     073F  0853               	movf	___flmul@temp+1,w
  8620     0740  3A80               	xorlw	128
  8621     0741  00FF               	movwf	btemp+1
  8622     0742  3080               	movlw	128
  8623     0743  027F               	subwf	btemp+1,w
  8624     0744  1D03               	skipz
  8625     0745  2F48               	goto	u3895
  8626     0746  3001               	movlw	1
  8627     0747  0252               	subwf	___flmul@temp,w
  8628     0748                     u3895:
  8629     0748  1803               	skipnc
  8630     0749  2F4B               	goto	u3891
  8631     074A  2F4C               	goto	u3890
  8632     074B                     u3891:
  8633     074B  2F58               	goto	l3083
  8634     074C                     u3890:
  8635     074C                     l3079:
  8636     074C  3000               	movlw	0
  8637     074D  1283               	bcf	3,5	;RP0=0, select bank0
  8638     074E  1303               	bcf	3,6	;RP1=0, select bank0
  8639     074F  00D1               	movwf	___flmul@prod+3
  8640     0750  3000               	movlw	0
  8641     0751  00D0               	movwf	___flmul@prod+2
  8642     0752  3000               	movlw	0
  8643     0753  00CF               	movwf	___flmul@prod+1
  8644     0754  3000               	movlw	0
  8645     0755  00CE               	movwf	___flmul@prod
  8646     0756                     l3081:
  8647     0756  01C7               	clrf	___flmul@sign
  8648     0757  2F6E               	goto	l869
  8649     0758                     l3083:
  8650     0758  1283               	bcf	3,5	;RP0=0, select bank0
  8651     0759  1303               	bcf	3,6	;RP1=0, select bank0
  8652     075A  0852               	movf	___flmul@temp,w
  8653     075B  00CD               	movwf	___flmul@bexp
  8654     075C  30FF               	movlw	255
  8655     075D  05CE               	andwf	___flmul@prod,f
  8656     075E  30FF               	movlw	255
  8657     075F  05CF               	andwf	___flmul@prod+1,f
  8658     0760  307F               	movlw	127
  8659     0761  05D0               	andwf	___flmul@prod+2,f
  8660     0762  3000               	movlw	0
  8661     0763  05D1               	andwf	___flmul@prod+3,f
  8662     0764                     l3085:
  8663     0764  1C4D               	btfss	___flmul@bexp,0
  8664     0765  2F67               	goto	u3901
  8665     0766  2F68               	goto	u3900
  8666     0767                     u3901:
  8667     0767  2F69               	goto	l3089
  8668     0768                     u3900:
  8669     0768                     l3087:
  8670     0768  17D0               	bsf	___flmul@prod+2,7
  8671     0769                     l3089:
  8672     0769  084D               	movf	___flmul@bexp,w
  8673     076A  00C2               	movwf	??___flmul
  8674     076B  1003               	clrc
  8675     076C  0C42               	rrf	??___flmul,w
  8676     076D  00D1               	movwf	___flmul@prod+3
  8677     076E                     l869:
  8678     076E  0847               	movf	___flmul@sign,w
  8679     076F  00C2               	movwf	??___flmul
  8680     0770  0842               	movf	??___flmul,w
  8681     0771  04D1               	iorwf	___flmul@prod+3,f
  8682     0772                     l3091:
  8683     0772  0851               	movf	___flmul@prod+3,w
  8684     0773  00BD               	movwf	?___flmul+3
  8685     0774  0850               	movf	___flmul@prod+2,w
  8686     0775  00BC               	movwf	?___flmul+2
  8687     0776  084F               	movf	___flmul@prod+1,w
  8688     0777  00BB               	movwf	?___flmul+1
  8689     0778  084E               	movf	___flmul@prod,w
  8690     0779  00BA               	movwf	?___flmul
  8691     077A                     l857:
  8692     077A  0008               	return
  8693     077B                     __end_of___flmul:
  8694                           
  8695                           	psect	text30
  8696     1E8E                     __ptext30:	
  8697 ;; *************** function __Umul8_16 *****************
  8698 ;; Defined at:
  8699 ;;		line 4 in file "C:\Program Files\Microchip\xc8\v2.40\pic\sources\c90\common\Umul8_16.c"
  8700 ;; Parameters:    Size  Location     Type
  8701 ;;  multiplier      1    wreg     unsigned char 
  8702 ;;  multiplicand    1    0[BANK0 ] unsigned char 
  8703 ;; Auto vars:     Size  Location     Type
  8704 ;;  multiplier      1    8[BANK0 ] unsigned char 
  8705 ;;  word_mpld       2    6[BANK0 ] unsigned int 
  8706 ;;  product         2    4[BANK0 ] unsigned int 
  8707 ;; Return value:  Size  Location     Type
  8708 ;;                  2    0[BANK0 ] unsigned int 
  8709 ;; Registers used:
  8710 ;;		wreg, status,2, status,0
  8711 ;; Tracked objects:
  8712 ;;		On entry : 0/0
  8713 ;;		On exit  : 0/0
  8714 ;;		Unchanged: 0/0
  8715 ;; Data sizes:     COMMON   BANK0   BANK1   BANK3   BANK2
  8716 ;;      Params:         0       2       0       0       0
  8717 ;;      Locals:         0       5       0       0       0
  8718 ;;      Temps:          0       2       0       0       0
  8719 ;;      Totals:         0       9       0       0       0
  8720 ;;Total ram usage:        9 bytes
  8721 ;; Hardware stack levels used: 1
  8722 ;; Hardware stack levels required when called: 4
  8723 ;; This function calls:
  8724 ;;		Nothing
  8725 ;; This function is called by:
  8726 ;;		___flmul
  8727 ;; This function uses a non-reentrant model
  8728 ;;
  8729                           
  8730     1E8E                     __Umul8_16:	
  8731                           ;psect for function __Umul8_16
  8732                           
  8733                           
  8734                           ;incstack = 0
  8735                           ; Regs used in __Umul8_16: [wreg+status,2+status,0]
  8736                           ;__Umul8_16@multiplier stored from wreg
  8737     1E8E  1283               	bcf	3,5	;RP0=0, select bank0
  8738     1E8F  1303               	bcf	3,6	;RP1=0, select bank0
  8739     1E90  00A8               	movwf	__Umul8_16@multiplier
  8740     1E91                     l2633:
  8741     1E91  01A4               	clrf	__Umul8_16@product
  8742     1E92  01A5               	clrf	__Umul8_16@product+1
  8743     1E93                     l2635:
  8744     1E93  0820               	movf	__Umul8_16@multiplicand,w
  8745     1E94  00A2               	movwf	??__Umul8_16
  8746     1E95  01A3               	clrf	??__Umul8_16+1
  8747     1E96  0822               	movf	??__Umul8_16,w
  8748     1E97  00A6               	movwf	__Umul8_16@word_mpld
  8749     1E98  0823               	movf	??__Umul8_16+1,w
  8750     1E99  00A7               	movwf	__Umul8_16@word_mpld+1
  8751     1E9A                     l2637:
  8752     1E9A  1C28               	btfss	__Umul8_16@multiplier,0
  8753     1E9B  2E9D               	goto	u2921
  8754     1E9C  2E9E               	goto	u2920
  8755     1E9D                     u2921:
  8756     1E9D  2EA4               	goto	l876
  8757     1E9E                     u2920:
  8758     1E9E                     l2639:
  8759     1E9E  0826               	movf	__Umul8_16@word_mpld,w
  8760     1E9F  07A4               	addwf	__Umul8_16@product,f
  8761     1EA0  1803               	skipnc
  8762     1EA1  0AA5               	incf	__Umul8_16@product+1,f
  8763     1EA2  0827               	movf	__Umul8_16@word_mpld+1,w
  8764     1EA3  07A5               	addwf	__Umul8_16@product+1,f
  8765     1EA4                     l876:
  8766     1EA4  3001               	movlw	1
  8767     1EA5                     u2935:
  8768     1EA5  1003               	clrc
  8769     1EA6  0DA6               	rlf	__Umul8_16@word_mpld,f
  8770     1EA7  0DA7               	rlf	__Umul8_16@word_mpld+1,f
  8771     1EA8  3EFF               	addlw	-1
  8772     1EA9  1D03               	skipz
  8773     1EAA  2EA5               	goto	u2935
  8774     1EAB  1003               	clrc
  8775     1EAC  0CA8               	rrf	__Umul8_16@multiplier,f
  8776     1EAD                     l2641:
  8777     1EAD  0828               	movf	__Umul8_16@multiplier,w
  8778     1EAE  1D03               	btfss	3,2
  8779     1EAF  2EB1               	goto	u2941
  8780     1EB0  2EB2               	goto	u2940
  8781     1EB1                     u2941:
  8782     1EB1  2E9A               	goto	l2637
  8783     1EB2                     u2940:
  8784     1EB2                     l2643:
  8785     1EB2  0825               	movf	__Umul8_16@product+1,w
  8786     1EB3  00A1               	movwf	?__Umul8_16+1
  8787     1EB4  0824               	movf	__Umul8_16@product,w
  8788     1EB5  00A0               	movwf	?__Umul8_16
  8789     1EB6                     l878:
  8790     1EB6  0008               	return
  8791     1EB7                     __end_of__Umul8_16:
  8792                           
  8793                           	psect	text31
  8794     154B                     __ptext31:	
  8795 ;; *************** function ___flge *****************
  8796 ;; Defined at:
  8797 ;;		line 4 in file "C:\Program Files\Microchip\xc8\v2.40\pic\sources\c90\common\flge.c"
  8798 ;; Parameters:    Size  Location     Type
  8799 ;;  ff1             4    0[BANK0 ] unsigned int 
  8800 ;;  ff2             4    4[BANK0 ] unsigned int 
  8801 ;; Auto vars:     Size  Location     Type
  8802 ;;		None
  8803 ;; Return value:  Size  Location     Type
  8804 ;;		None               void
  8805 ;; Registers used:
  8806 ;;		wreg, status,2, status,0
  8807 ;; Tracked objects:
  8808 ;;		On entry : 0/0
  8809 ;;		On exit  : 0/0
  8810 ;;		Unchanged: 0/0
  8811 ;; Data sizes:     COMMON   BANK0   BANK1   BANK3   BANK2
  8812 ;;      Params:         0       8       0       0       0
  8813 ;;      Locals:         0       0       0       0       0
  8814 ;;      Temps:          0       4       0       0       0
  8815 ;;      Totals:         0      12       0       0       0
  8816 ;;Total ram usage:       12 bytes
  8817 ;; Hardware stack levels used: 1
  8818 ;; Hardware stack levels required when called: 4
  8819 ;; This function calls:
  8820 ;;		Nothing
  8821 ;; This function is called by:
  8822 ;;		_floattostr
  8823 ;;		_Slave1_Return
  8824 ;; This function uses a non-reentrant model
  8825 ;;
  8826                           
  8827     154B                     ___flge:	
  8828                           ;psect for function ___flge
  8829                           
  8830     154B                     l2743:	
  8831                           ;incstack = 0
  8832                           ; Regs used in ___flge: [wreg+status,2+status,0]
  8833                           
  8834     154B  3000               	movlw	0
  8835     154C  1283               	bcf	3,5	;RP0=0, select bank0
  8836     154D  1303               	bcf	3,6	;RP1=0, select bank0
  8837     154E  0520               	andwf	___flge@ff1,w
  8838     154F  00A8               	movwf	??___flge
  8839     1550  3000               	movlw	0
  8840     1551  0521               	andwf	___flge@ff1+1,w
  8841     1552  00A9               	movwf	??___flge+1
  8842     1553  3080               	movlw	128
  8843     1554  0522               	andwf	___flge@ff1+2,w
  8844     1555  00AA               	movwf	??___flge+2
  8845     1556  307F               	movlw	127
  8846     1557  0523               	andwf	___flge@ff1+3,w
  8847     1558  00AB               	movwf	??___flge+3
  8848     1559  082B               	movf	??___flge+3,w
  8849     155A  042A               	iorwf	??___flge+2,w
  8850     155B  0429               	iorwf	??___flge+1,w
  8851     155C  0428               	iorwf	??___flge,w
  8852     155D  1D03               	skipz
  8853     155E  2D60               	goto	u3071
  8854     155F  2D61               	goto	u3070
  8855     1560                     u3071:
  8856     1560  2D69               	goto	l642
  8857     1561                     u3070:
  8858     1561                     l2745:
  8859     1561  3000               	movlw	0
  8860     1562  00A3               	movwf	___flge@ff1+3
  8861     1563  3000               	movlw	0
  8862     1564  00A2               	movwf	___flge@ff1+2
  8863     1565  3000               	movlw	0
  8864     1566  00A1               	movwf	___flge@ff1+1
  8865     1567  3000               	movlw	0
  8866     1568  00A0               	movwf	___flge@ff1
  8867     1569                     l642:
  8868     1569  3000               	movlw	0
  8869     156A  0524               	andwf	___flge@ff2,w
  8870     156B  00A8               	movwf	??___flge
  8871     156C  3000               	movlw	0
  8872     156D  0525               	andwf	___flge@ff2+1,w
  8873     156E  00A9               	movwf	??___flge+1
  8874     156F  3080               	movlw	128
  8875     1570  0526               	andwf	___flge@ff2+2,w
  8876     1571  00AA               	movwf	??___flge+2
  8877     1572  307F               	movlw	127
  8878     1573  0527               	andwf	___flge@ff2+3,w
  8879     1574  00AB               	movwf	??___flge+3
  8880     1575  082B               	movf	??___flge+3,w
  8881     1576  042A               	iorwf	??___flge+2,w
  8882     1577  0429               	iorwf	??___flge+1,w
  8883     1578  0428               	iorwf	??___flge,w
  8884     1579  1D03               	skipz
  8885     157A  2D7C               	goto	u3081
  8886     157B  2D7D               	goto	u3080
  8887     157C                     u3081:
  8888     157C  2D85               	goto	l2749
  8889     157D                     u3080:
  8890     157D                     l2747:
  8891     157D  3000               	movlw	0
  8892     157E  00A7               	movwf	___flge@ff2+3
  8893     157F  3000               	movlw	0
  8894     1580  00A6               	movwf	___flge@ff2+2
  8895     1581  3000               	movlw	0
  8896     1582  00A5               	movwf	___flge@ff2+1
  8897     1583  3000               	movlw	0
  8898     1584  00A4               	movwf	___flge@ff2
  8899     1585                     l2749:
  8900     1585  1FA3               	btfss	___flge@ff1+3,7
  8901     1586  2D88               	goto	u3091
  8902     1587  2D89               	goto	u3090
  8903     1588                     u3091:
  8904     1588  2DAD               	goto	l2753
  8905     1589                     u3090:
  8906     1589                     l2751:
  8907     1589  3000               	movlw	0
  8908     158A  00A8               	movwf	??___flge
  8909     158B  3000               	movlw	0
  8910     158C  00A9               	movwf	??___flge+1
  8911     158D  3000               	movlw	0
  8912     158E  00AA               	movwf	??___flge+2
  8913     158F  3080               	movlw	128
  8914     1590  00AB               	movwf	??___flge+3
  8915     1591  0820               	movf	___flge@ff1,w
  8916     1592  02A8               	subwf	??___flge,f
  8917     1593  0821               	movf	___flge@ff1+1,w
  8918     1594  1C03               	skipc
  8919     1595  0F21               	incfsz	___flge@ff1+1,w
  8920     1596  2D98               	goto	u3101
  8921     1597  2D99               	goto	u3102
  8922     1598                     u3101:
  8923     1598  02A9               	subwf	??___flge+1,f
  8924     1599                     u3102:
  8925     1599  0822               	movf	___flge@ff1+2,w
  8926     159A  1C03               	skipc
  8927     159B  0F22               	incfsz	___flge@ff1+2,w
  8928     159C  2D9E               	goto	u3103
  8929     159D  2D9F               	goto	u3104
  8930     159E                     u3103:
  8931     159E  02AA               	subwf	??___flge+2,f
  8932     159F                     u3104:
  8933     159F  0823               	movf	___flge@ff1+3,w
  8934     15A0  1C03               	skipc
  8935     15A1  0F23               	incfsz	___flge@ff1+3,w
  8936     15A2  2DA4               	goto	u3105
  8937     15A3  2DA5               	goto	u3106
  8938     15A4                     u3105:
  8939     15A4  02AB               	subwf	??___flge+3,f
  8940     15A5                     u3106:
  8941     15A5  082B               	movf	??___flge+3,w
  8942     15A6  00A3               	movwf	___flge@ff1+3
  8943     15A7  082A               	movf	??___flge+2,w
  8944     15A8  00A2               	movwf	___flge@ff1+2
  8945     15A9  0829               	movf	??___flge+1,w
  8946     15AA  00A1               	movwf	___flge@ff1+1
  8947     15AB  0828               	movf	??___flge,w
  8948     15AC  00A0               	movwf	___flge@ff1
  8949     15AD                     l2753:
  8950     15AD  1FA7               	btfss	___flge@ff2+3,7
  8951     15AE  2DB0               	goto	u3111
  8952     15AF  2DB1               	goto	u3110
  8953     15B0                     u3111:
  8954     15B0  2DD5               	goto	l645
  8955     15B1                     u3110:
  8956     15B1                     l2755:
  8957     15B1  3000               	movlw	0
  8958     15B2  00A8               	movwf	??___flge
  8959     15B3  3000               	movlw	0
  8960     15B4  00A9               	movwf	??___flge+1
  8961     15B5  3000               	movlw	0
  8962     15B6  00AA               	movwf	??___flge+2
  8963     15B7  3080               	movlw	128
  8964     15B8  00AB               	movwf	??___flge+3
  8965     15B9  0824               	movf	___flge@ff2,w
  8966     15BA  02A8               	subwf	??___flge,f
  8967     15BB  0825               	movf	___flge@ff2+1,w
  8968     15BC  1C03               	skipc
  8969     15BD  0F25               	incfsz	___flge@ff2+1,w
  8970     15BE  2DC0               	goto	u3121
  8971     15BF  2DC1               	goto	u3122
  8972     15C0                     u3121:
  8973     15C0  02A9               	subwf	??___flge+1,f
  8974     15C1                     u3122:
  8975     15C1  0826               	movf	___flge@ff2+2,w
  8976     15C2  1C03               	skipc
  8977     15C3  0F26               	incfsz	___flge@ff2+2,w
  8978     15C4  2DC6               	goto	u3123
  8979     15C5  2DC7               	goto	u3124
  8980     15C6                     u3123:
  8981     15C6  02AA               	subwf	??___flge+2,f
  8982     15C7                     u3124:
  8983     15C7  0827               	movf	___flge@ff2+3,w
  8984     15C8  1C03               	skipc
  8985     15C9  0F27               	incfsz	___flge@ff2+3,w
  8986     15CA  2DCC               	goto	u3125
  8987     15CB  2DCD               	goto	u3126
  8988     15CC                     u3125:
  8989     15CC  02AB               	subwf	??___flge+3,f
  8990     15CD                     u3126:
  8991     15CD  082B               	movf	??___flge+3,w
  8992     15CE  00A7               	movwf	___flge@ff2+3
  8993     15CF  082A               	movf	??___flge+2,w
  8994     15D0  00A6               	movwf	___flge@ff2+2
  8995     15D1  0829               	movf	??___flge+1,w
  8996     15D2  00A5               	movwf	___flge@ff2+1
  8997     15D3  0828               	movf	??___flge,w
  8998     15D4  00A4               	movwf	___flge@ff2
  8999     15D5                     l645:
  9000     15D5  3080               	movlw	128
  9001     15D6  06A3               	xorwf	___flge@ff1+3,f
  9002     15D7  3080               	movlw	128
  9003     15D8  06A7               	xorwf	___flge@ff2+3,f
  9004     15D9  0827               	movf	___flge@ff2+3,w
  9005     15DA  0223               	subwf	___flge@ff1+3,w
  9006     15DB  1D03               	skipz
  9007     15DC  2DE7               	goto	u3135
  9008     15DD  0826               	movf	___flge@ff2+2,w
  9009     15DE  0222               	subwf	___flge@ff1+2,w
  9010     15DF  1D03               	skipz
  9011     15E0  2DE7               	goto	u3135
  9012     15E1  0825               	movf	___flge@ff2+1,w
  9013     15E2  0221               	subwf	___flge@ff1+1,w
  9014     15E3  1D03               	skipz
  9015     15E4  2DE7               	goto	u3135
  9016     15E5  0824               	movf	___flge@ff2,w
  9017     15E6  0220               	subwf	___flge@ff1,w
  9018     15E7                     u3135:
  9019     15E7  1803               	skipnc
  9020     15E8  2DEA               	goto	u3131
  9021     15E9  2DEB               	goto	u3130
  9022     15EA                     u3131:
  9023     15EA  2DED               	goto	l2759
  9024     15EB                     u3130:
  9025     15EB                     l2757:
  9026     15EB  1003               	clrc
  9027     15EC  2DEE               	goto	l646
  9028     15ED                     l2759:
  9029     15ED  1403               	setc
  9030     15EE                     l646:
  9031     15EE  0008               	return
  9032     15EF                     __end_of___flge:
  9033                           
  9034                           	psect	text32
  9035     09A1                     __ptext32:	
  9036 ;; *************** function ___fldiv *****************
  9037 ;; Defined at:
  9038 ;;		line 8 in file "C:\Program Files\Microchip\xc8\v2.40\pic\sources\c90\common\sprcdiv.c"
  9039 ;; Parameters:    Size  Location     Type
  9040 ;;  a               4    0[BANK0 ] unsigned int 
  9041 ;;  b               4    4[BANK0 ] unsigned int 
  9042 ;; Auto vars:     Size  Location     Type
  9043 ;;  grs             4   20[BANK0 ] unsigned long 
  9044 ;;  rem             4   13[BANK0 ] unsigned long 
  9045 ;;  new_exp         2   18[BANK0 ] int 
  9046 ;;  aexp            1   25[BANK0 ] unsigned char 
  9047 ;;  bexp            1   24[BANK0 ] unsigned char 
  9048 ;;  sign            1   17[BANK0 ] unsigned char 
  9049 ;; Return value:  Size  Location     Type
  9050 ;;                  4    0[BANK0 ] unsigned char 
  9051 ;; Registers used:
  9052 ;;		wreg, status,2, status,0, btemp+1
  9053 ;; Tracked objects:
  9054 ;;		On entry : 0/0
  9055 ;;		On exit  : 0/0
  9056 ;;		Unchanged: 0/0
  9057 ;; Data sizes:     COMMON   BANK0   BANK1   BANK3   BANK2
  9058 ;;      Params:         0       8       0       0       0
  9059 ;;      Locals:         0      13       0       0       0
  9060 ;;      Temps:          0       5       0       0       0
  9061 ;;      Totals:         0      26       0       0       0
  9062 ;;Total ram usage:       26 bytes
  9063 ;; Hardware stack levels used: 1
  9064 ;; Hardware stack levels required when called: 4
  9065 ;; This function calls:
  9066 ;;		Nothing
  9067 ;; This function is called by:
  9068 ;;		_floattostr
  9069 ;;		_AHT10_Read
  9070 ;; This function uses a non-reentrant model
  9071 ;;
  9072                           
  9073     09A1                     ___fldiv:	
  9074                           ;psect for function ___fldiv
  9075                           
  9076     09A1                     l2813:	
  9077                           ;incstack = 0
  9078                           ; Regs used in ___fldiv: [wreg+status,2+status,0+btemp+1]
  9079                           
  9080     09A1  1283               	bcf	3,5	;RP0=0, select bank0
  9081     09A2  1303               	bcf	3,6	;RP1=0, select bank0
  9082     09A3  0827               	movf	___fldiv@b+3,w
  9083     09A4  3980               	andlw	128
  9084     09A5  00B1               	movwf	___fldiv@sign
  9085     09A6                     l2815:
  9086     09A6  0827               	movf	___fldiv@b+3,w
  9087     09A7  00A8               	movwf	??___fldiv
  9088     09A8  0728               	addwf	??___fldiv,w
  9089     09A9  00B8               	movwf	___fldiv@bexp
  9090     09AA                     l2817:
  9091     09AA  1FA6               	btfss	___fldiv@b+2,7
  9092     09AB  29AD               	goto	u3251
  9093     09AC  29AE               	goto	u3250
  9094     09AD                     u3251:
  9095     09AD  29AF               	goto	l2821
  9096     09AE                     u3250:
  9097     09AE                     l2819:
  9098     09AE  1438               	bsf	___fldiv@bexp,0
  9099     09AF                     l2821:
  9100     09AF  0838               	movf	___fldiv@bexp,w
  9101     09B0  1903               	btfsc	3,2
  9102     09B1  29B3               	goto	u3261
  9103     09B2  29B4               	goto	u3260
  9104     09B3                     u3261:
  9105     09B3  29C4               	goto	l2831
  9106     09B4                     u3260:
  9107     09B4                     l2823:
  9108     09B4  0A38               	incf	___fldiv@bexp,w
  9109     09B5  1D03               	btfss	3,2
  9110     09B6  29B8               	goto	u3271
  9111     09B7  29B9               	goto	u3270
  9112     09B8                     u3271:
  9113     09B8  29C1               	goto	l2827
  9114     09B9                     u3270:
  9115     09B9                     l2825:
  9116     09B9  3000               	movlw	0
  9117     09BA  00A7               	movwf	___fldiv@b+3
  9118     09BB  3000               	movlw	0
  9119     09BC  00A6               	movwf	___fldiv@b+2
  9120     09BD  3000               	movlw	0
  9121     09BE  00A5               	movwf	___fldiv@b+1
  9122     09BF  3000               	movlw	0
  9123     09C0  00A4               	movwf	___fldiv@b
  9124     09C1                     l2827:
  9125     09C1  17A6               	bsf	___fldiv@b+2,7
  9126     09C2                     l2829:
  9127     09C2  01A7               	clrf	___fldiv@b+3
  9128     09C3  29CC               	goto	l2833
  9129     09C4                     l2831:
  9130     09C4  3000               	movlw	0
  9131     09C5  00A7               	movwf	___fldiv@b+3
  9132     09C6  3000               	movlw	0
  9133     09C7  00A6               	movwf	___fldiv@b+2
  9134     09C8  3000               	movlw	0
  9135     09C9  00A5               	movwf	___fldiv@b+1
  9136     09CA  3000               	movlw	0
  9137     09CB  00A4               	movwf	___fldiv@b
  9138     09CC                     l2833:
  9139     09CC  0823               	movf	___fldiv@a+3,w
  9140     09CD  3980               	andlw	128
  9141     09CE  00A8               	movwf	??___fldiv
  9142     09CF  0828               	movf	??___fldiv,w
  9143     09D0  06B1               	xorwf	___fldiv@sign,f
  9144     09D1                     l2835:
  9145     09D1  0823               	movf	___fldiv@a+3,w
  9146     09D2  00A8               	movwf	??___fldiv
  9147     09D3  0728               	addwf	??___fldiv,w
  9148     09D4  00B9               	movwf	___fldiv@aexp
  9149     09D5                     l2837:
  9150     09D5  1FA2               	btfss	___fldiv@a+2,7
  9151     09D6  29D8               	goto	u3281
  9152     09D7  29D9               	goto	u3280
  9153     09D8                     u3281:
  9154     09D8  29DA               	goto	l2841
  9155     09D9                     u3280:
  9156     09D9                     l2839:
  9157     09D9  1439               	bsf	___fldiv@aexp,0
  9158     09DA                     l2841:
  9159     09DA  0839               	movf	___fldiv@aexp,w
  9160     09DB  1903               	btfsc	3,2
  9161     09DC  29DE               	goto	u3291
  9162     09DD  29DF               	goto	u3290
  9163     09DE                     u3291:
  9164     09DE  29EF               	goto	l2851
  9165     09DF                     u3290:
  9166     09DF                     l2843:
  9167     09DF  0A39               	incf	___fldiv@aexp,w
  9168     09E0  1D03               	btfss	3,2
  9169     09E1  29E3               	goto	u3301
  9170     09E2  29E4               	goto	u3300
  9171     09E3                     u3301:
  9172     09E3  29EC               	goto	l2847
  9173     09E4                     u3300:
  9174     09E4                     l2845:
  9175     09E4  3000               	movlw	0
  9176     09E5  00A3               	movwf	___fldiv@a+3
  9177     09E6  3000               	movlw	0
  9178     09E7  00A2               	movwf	___fldiv@a+2
  9179     09E8  3000               	movlw	0
  9180     09E9  00A1               	movwf	___fldiv@a+1
  9181     09EA  3000               	movlw	0
  9182     09EB  00A0               	movwf	___fldiv@a
  9183     09EC                     l2847:
  9184     09EC  17A2               	bsf	___fldiv@a+2,7
  9185     09ED                     l2849:
  9186     09ED  01A3               	clrf	___fldiv@a+3
  9187     09EE  29F7               	goto	l817
  9188     09EF                     l2851:
  9189     09EF  3000               	movlw	0
  9190     09F0  00A3               	movwf	___fldiv@a+3
  9191     09F1  3000               	movlw	0
  9192     09F2  00A2               	movwf	___fldiv@a+2
  9193     09F3  3000               	movlw	0
  9194     09F4  00A1               	movwf	___fldiv@a+1
  9195     09F5  3000               	movlw	0
  9196     09F6  00A0               	movwf	___fldiv@a
  9197     09F7                     l817:
  9198     09F7  0823               	movf	___fldiv@a+3,w
  9199     09F8  0422               	iorwf	___fldiv@a+2,w
  9200     09F9  0421               	iorwf	___fldiv@a+1,w
  9201     09FA  0420               	iorwf	___fldiv@a,w
  9202     09FB  1D03               	skipz
  9203     09FC  29FE               	goto	u3311
  9204     09FD  29FF               	goto	u3310
  9205     09FE                     u3311:
  9206     09FE  2A18               	goto	l2861
  9207     09FF                     u3310:
  9208     09FF                     l2853:
  9209     09FF  3000               	movlw	0
  9210     0A00  00A7               	movwf	___fldiv@b+3
  9211     0A01  3000               	movlw	0
  9212     0A02  00A6               	movwf	___fldiv@b+2
  9213     0A03  3000               	movlw	0
  9214     0A04  00A5               	movwf	___fldiv@b+1
  9215     0A05  3000               	movlw	0
  9216     0A06  00A4               	movwf	___fldiv@b
  9217     0A07  3080               	movlw	128
  9218     0A08  04A6               	iorwf	___fldiv@b+2,f
  9219     0A09  307F               	movlw	127
  9220     0A0A  04A7               	iorwf	___fldiv@b+3,f
  9221     0A0B                     l2855:
  9222     0A0B  0831               	movf	___fldiv@sign,w
  9223     0A0C  00A8               	movwf	??___fldiv
  9224     0A0D  0828               	movf	??___fldiv,w
  9225     0A0E  04A7               	iorwf	___fldiv@b+3,f
  9226     0A0F                     l2857:
  9227     0A0F  0827               	movf	___fldiv@b+3,w
  9228     0A10  00A3               	movwf	?___fldiv+3
  9229     0A11  0826               	movf	___fldiv@b+2,w
  9230     0A12  00A2               	movwf	?___fldiv+2
  9231     0A13  0825               	movf	___fldiv@b+1,w
  9232     0A14  00A1               	movwf	?___fldiv+1
  9233     0A15  0824               	movf	___fldiv@b,w
  9234     0A16  00A0               	movwf	?___fldiv
  9235     0A17  2B73               	goto	l819
  9236     0A18                     l2861:
  9237     0A18  0838               	movf	___fldiv@bexp,w
  9238     0A19  1D03               	btfss	3,2
  9239     0A1A  2A1C               	goto	u3321
  9240     0A1B  2A1D               	goto	u3320
  9241     0A1C                     u3321:
  9242     0A1C  2A26               	goto	l2867
  9243     0A1D                     u3320:
  9244     0A1D                     l2863:
  9245     0A1D  3000               	movlw	0
  9246     0A1E  00A3               	movwf	?___fldiv+3
  9247     0A1F  3000               	movlw	0
  9248     0A20  00A2               	movwf	?___fldiv+2
  9249     0A21  3000               	movlw	0
  9250     0A22  00A1               	movwf	?___fldiv+1
  9251     0A23  3000               	movlw	0
  9252     0A24  00A0               	movwf	?___fldiv
  9253     0A25  2B73               	goto	l819
  9254     0A26                     l2867:
  9255     0A26  0838               	movf	___fldiv@bexp,w
  9256     0A27  00A8               	movwf	??___fldiv
  9257     0A28  01A9               	clrf	??___fldiv+1
  9258     0A29  0829               	movf	??___fldiv+1,w
  9259     0A2A  00AB               	movwf	??___fldiv+3
  9260     0A2B  0839               	movf	___fldiv@aexp,w
  9261     0A2C  0228               	subwf	??___fldiv,w
  9262     0A2D  00AA               	movwf	??___fldiv+2
  9263     0A2E  1C03               	skipc
  9264     0A2F  03AB               	decf	??___fldiv+3,f
  9265     0A30  082A               	movf	??___fldiv+2,w
  9266     0A31  3E7F               	addlw	127
  9267     0A32  00B2               	movwf	___fldiv@new_exp
  9268     0A33  082B               	movf	??___fldiv+3,w
  9269     0A34  1803               	skipnc
  9270     0A35  3E01               	addlw	1
  9271     0A36  3E00               	addlw	0
  9272     0A37  00B3               	movwf	___fldiv@new_exp+1
  9273     0A38                     l2869:
  9274     0A38  0827               	movf	___fldiv@b+3,w
  9275     0A39  00B0               	movwf	___fldiv@rem+3
  9276     0A3A  0826               	movf	___fldiv@b+2,w
  9277     0A3B  00AF               	movwf	___fldiv@rem+2
  9278     0A3C  0825               	movf	___fldiv@b+1,w
  9279     0A3D  00AE               	movwf	___fldiv@rem+1
  9280     0A3E  0824               	movf	___fldiv@b,w
  9281     0A3F  00AD               	movwf	___fldiv@rem
  9282     0A40                     l2871:
  9283     0A40  3000               	movlw	0
  9284     0A41  00A7               	movwf	___fldiv@b+3
  9285     0A42  3000               	movlw	0
  9286     0A43  00A6               	movwf	___fldiv@b+2
  9287     0A44  3000               	movlw	0
  9288     0A45  00A5               	movwf	___fldiv@b+1
  9289     0A46  3000               	movlw	0
  9290     0A47  00A4               	movwf	___fldiv@b
  9291     0A48                     l2873:
  9292     0A48  3000               	movlw	0
  9293     0A49  00B7               	movwf	___fldiv@grs+3
  9294     0A4A  3000               	movlw	0
  9295     0A4B  00B6               	movwf	___fldiv@grs+2
  9296     0A4C  3000               	movlw	0
  9297     0A4D  00B5               	movwf	___fldiv@grs+1
  9298     0A4E  3000               	movlw	0
  9299     0A4F  00B4               	movwf	___fldiv@grs
  9300     0A50                     l2875:
  9301     0A50  01B9               	clrf	___fldiv@aexp
  9302     0A51  2A9C               	goto	l2895
  9303     0A52                     l2877:
  9304     0A52  0839               	movf	___fldiv@aexp,w
  9305     0A53  1903               	btfsc	3,2
  9306     0A54  2A56               	goto	u3331
  9307     0A55  2A57               	goto	u3330
  9308     0A56                     u3331:
  9309     0A56  2A77               	goto	l2887
  9310     0A57                     u3330:
  9311     0A57                     l2879:
  9312     0A57  3001               	movlw	1
  9313     0A58  00A8               	movwf	??___fldiv
  9314     0A59                     u3345:
  9315     0A59  1003               	clrc
  9316     0A5A  0DAD               	rlf	___fldiv@rem,f
  9317     0A5B  0DAE               	rlf	___fldiv@rem+1,f
  9318     0A5C  0DAF               	rlf	___fldiv@rem+2,f
  9319     0A5D  0DB0               	rlf	___fldiv@rem+3,f
  9320     0A5E  0BA8               	decfsz	??___fldiv,f
  9321     0A5F  2A59               	goto	u3345
  9322     0A60  3001               	movlw	1
  9323     0A61  00A8               	movwf	??___fldiv
  9324     0A62                     u3355:
  9325     0A62  1003               	clrc
  9326     0A63  0DA4               	rlf	___fldiv@b,f
  9327     0A64  0DA5               	rlf	___fldiv@b+1,f
  9328     0A65  0DA6               	rlf	___fldiv@b+2,f
  9329     0A66  0DA7               	rlf	___fldiv@b+3,f
  9330     0A67  0BA8               	decfsz	??___fldiv,f
  9331     0A68  2A62               	goto	u3355
  9332     0A69                     l2881:
  9333     0A69  1FB7               	btfss	___fldiv@grs+3,7
  9334     0A6A  2A6C               	goto	u3361
  9335     0A6B  2A6D               	goto	u3360
  9336     0A6C                     u3361:
  9337     0A6C  2A6E               	goto	l2885
  9338     0A6D                     u3360:
  9339     0A6D                     l2883:
  9340     0A6D  1424               	bsf	___fldiv@b,0
  9341     0A6E                     l2885:
  9342     0A6E  3001               	movlw	1
  9343     0A6F  00A8               	movwf	??___fldiv
  9344     0A70                     u3375:
  9345     0A70  1003               	clrc
  9346     0A71  0DB4               	rlf	___fldiv@grs,f
  9347     0A72  0DB5               	rlf	___fldiv@grs+1,f
  9348     0A73  0DB6               	rlf	___fldiv@grs+2,f
  9349     0A74  0DB7               	rlf	___fldiv@grs+3,f
  9350     0A75  0BA8               	decfsz	??___fldiv,f
  9351     0A76  2A70               	goto	u3375
  9352     0A77                     l2887:
  9353     0A77  0823               	movf	___fldiv@a+3,w
  9354     0A78  0230               	subwf	___fldiv@rem+3,w
  9355     0A79  1D03               	skipz
  9356     0A7A  2A85               	goto	u3385
  9357     0A7B  0822               	movf	___fldiv@a+2,w
  9358     0A7C  022F               	subwf	___fldiv@rem+2,w
  9359     0A7D  1D03               	skipz
  9360     0A7E  2A85               	goto	u3385
  9361     0A7F  0821               	movf	___fldiv@a+1,w
  9362     0A80  022E               	subwf	___fldiv@rem+1,w
  9363     0A81  1D03               	skipz
  9364     0A82  2A85               	goto	u3385
  9365     0A83  0820               	movf	___fldiv@a,w
  9366     0A84  022D               	subwf	___fldiv@rem,w
  9367     0A85                     u3385:
  9368     0A85  1C03               	skipc
  9369     0A86  2A88               	goto	u3381
  9370     0A87  2A89               	goto	u3380
  9371     0A88                     u3381:
  9372     0A88  2A98               	goto	l2893
  9373     0A89                     u3380:
  9374     0A89                     l2889:
  9375     0A89  1737               	bsf	___fldiv@grs+3,6
  9376     0A8A                     l2891:
  9377     0A8A  0820               	movf	___fldiv@a,w
  9378     0A8B  02AD               	subwf	___fldiv@rem,f
  9379     0A8C  0821               	movf	___fldiv@a+1,w
  9380     0A8D  1C03               	skipc
  9381     0A8E  0F21               	incfsz	___fldiv@a+1,w
  9382     0A8F  02AE               	subwf	___fldiv@rem+1,f
  9383     0A90  0822               	movf	___fldiv@a+2,w
  9384     0A91  1C03               	skipc
  9385     0A92  0F22               	incfsz	___fldiv@a+2,w
  9386     0A93  02AF               	subwf	___fldiv@rem+2,f
  9387     0A94  0823               	movf	___fldiv@a+3,w
  9388     0A95  1C03               	skipc
  9389     0A96  0F23               	incfsz	___fldiv@a+3,w
  9390     0A97  02B0               	subwf	___fldiv@rem+3,f
  9391     0A98                     l2893:
  9392     0A98  3001               	movlw	1
  9393     0A99  00A8               	movwf	??___fldiv
  9394     0A9A  0828               	movf	??___fldiv,w
  9395     0A9B  07B9               	addwf	___fldiv@aexp,f
  9396     0A9C                     l2895:
  9397     0A9C  301A               	movlw	26
  9398     0A9D  0239               	subwf	___fldiv@aexp,w
  9399     0A9E  1C03               	skipc
  9400     0A9F  2AA1               	goto	u3391
  9401     0AA0  2AA2               	goto	u3390
  9402     0AA1                     u3391:
  9403     0AA1  2A52               	goto	l2877
  9404     0AA2                     u3390:
  9405     0AA2                     l2897:
  9406     0AA2  0830               	movf	___fldiv@rem+3,w
  9407     0AA3  042F               	iorwf	___fldiv@rem+2,w
  9408     0AA4  042E               	iorwf	___fldiv@rem+1,w
  9409     0AA5  042D               	iorwf	___fldiv@rem,w
  9410     0AA6  1903               	skipnz
  9411     0AA7  2AA9               	goto	u3401
  9412     0AA8  2AAA               	goto	u3400
  9413     0AA9                     u3401:
  9414     0AA9  2AC9               	goto	l2911
  9415     0AAA                     u3400:
  9416     0AAA                     l2899:
  9417     0AAA  1434               	bsf	___fldiv@grs,0
  9418     0AAB  2AC9               	goto	l2911
  9419     0AAC                     l2901:
  9420     0AAC  3001               	movlw	1
  9421     0AAD  00A8               	movwf	??___fldiv
  9422     0AAE                     u3415:
  9423     0AAE  1003               	clrc
  9424     0AAF  0DA4               	rlf	___fldiv@b,f
  9425     0AB0  0DA5               	rlf	___fldiv@b+1,f
  9426     0AB1  0DA6               	rlf	___fldiv@b+2,f
  9427     0AB2  0DA7               	rlf	___fldiv@b+3,f
  9428     0AB3  0BA8               	decfsz	??___fldiv,f
  9429     0AB4  2AAE               	goto	u3415
  9430     0AB5                     l2903:
  9431     0AB5  1FB7               	btfss	___fldiv@grs+3,7
  9432     0AB6  2AB8               	goto	u3421
  9433     0AB7  2AB9               	goto	u3420
  9434     0AB8                     u3421:
  9435     0AB8  2ABA               	goto	l2907
  9436     0AB9                     u3420:
  9437     0AB9                     l2905:
  9438     0AB9  1424               	bsf	___fldiv@b,0
  9439     0ABA                     l2907:
  9440     0ABA  3001               	movlw	1
  9441     0ABB  00A8               	movwf	??___fldiv
  9442     0ABC                     u3435:
  9443     0ABC  1003               	clrc
  9444     0ABD  0DB4               	rlf	___fldiv@grs,f
  9445     0ABE  0DB5               	rlf	___fldiv@grs+1,f
  9446     0ABF  0DB6               	rlf	___fldiv@grs+2,f
  9447     0AC0  0DB7               	rlf	___fldiv@grs+3,f
  9448     0AC1  0BA8               	decfsz	??___fldiv,f
  9449     0AC2  2ABC               	goto	u3435
  9450     0AC3                     l2909:
  9451     0AC3  30FF               	movlw	255
  9452     0AC4  07B2               	addwf	___fldiv@new_exp,f
  9453     0AC5  1803               	skipnc
  9454     0AC6  0AB3               	incf	___fldiv@new_exp+1,f
  9455     0AC7  30FF               	movlw	255
  9456     0AC8  07B3               	addwf	___fldiv@new_exp+1,f
  9457     0AC9                     l2911:
  9458     0AC9  1FA6               	btfss	___fldiv@b+2,7
  9459     0ACA  2ACC               	goto	u3441
  9460     0ACB  2ACD               	goto	u3440
  9461     0ACC                     u3441:
  9462     0ACC  2AAC               	goto	l2901
  9463     0ACD                     u3440:
  9464     0ACD                     l2913:
  9465     0ACD  01B9               	clrf	___fldiv@aexp
  9466     0ACE                     l2915:
  9467     0ACE  1FB7               	btfss	___fldiv@grs+3,7
  9468     0ACF  2AD1               	goto	u3451
  9469     0AD0  2AD2               	goto	u3450
  9470     0AD1                     u3451:
  9471     0AD1  2AEE               	goto	l2923
  9472     0AD2                     u3450:
  9473     0AD2                     l2917:
  9474     0AD2  30FF               	movlw	255
  9475     0AD3  0534               	andwf	___fldiv@grs,w
  9476     0AD4  00A8               	movwf	??___fldiv
  9477     0AD5  30FF               	movlw	255
  9478     0AD6  0535               	andwf	___fldiv@grs+1,w
  9479     0AD7  00A9               	movwf	??___fldiv+1
  9480     0AD8  30FF               	movlw	255
  9481     0AD9  0536               	andwf	___fldiv@grs+2,w
  9482     0ADA  00AA               	movwf	??___fldiv+2
  9483     0ADB  307F               	movlw	127
  9484     0ADC  0537               	andwf	___fldiv@grs+3,w
  9485     0ADD  00AB               	movwf	??___fldiv+3
  9486     0ADE  082B               	movf	??___fldiv+3,w
  9487     0ADF  042A               	iorwf	??___fldiv+2,w
  9488     0AE0  0429               	iorwf	??___fldiv+1,w
  9489     0AE1  0428               	iorwf	??___fldiv,w
  9490     0AE2  1903               	skipnz
  9491     0AE3  2AE5               	goto	u3461
  9492     0AE4  2AE6               	goto	u3460
  9493     0AE5                     u3461:
  9494     0AE5  2AE9               	goto	l833
  9495     0AE6                     u3460:
  9496     0AE6                     l2919:
  9497     0AE6  01B9               	clrf	___fldiv@aexp
  9498     0AE7  0AB9               	incf	___fldiv@aexp,f
  9499     0AE8  2AEE               	goto	l2923
  9500     0AE9                     l833:
  9501     0AE9  1C24               	btfss	___fldiv@b,0
  9502     0AEA  2AEC               	goto	u3471
  9503     0AEB  2AED               	goto	u3470
  9504     0AEC                     u3471:
  9505     0AEC  2AEE               	goto	l2923
  9506     0AED                     u3470:
  9507     0AED  2AE6               	goto	l2919
  9508     0AEE                     l2923:
  9509     0AEE  0839               	movf	___fldiv@aexp,w
  9510     0AEF  1903               	btfsc	3,2
  9511     0AF0  2AF2               	goto	u3481
  9512     0AF1  2AF3               	goto	u3480
  9513     0AF2                     u3481:
  9514     0AF2  2B24               	goto	l2933
  9515     0AF3                     u3480:
  9516     0AF3                     l2925:
  9517     0AF3  3001               	movlw	1
  9518     0AF4  07A4               	addwf	___fldiv@b,f
  9519     0AF5  3000               	movlw	0
  9520     0AF6  1803               	skipnc
  9521     0AF7  3001               	movlw	1
  9522     0AF8  07A5               	addwf	___fldiv@b+1,f
  9523     0AF9  3000               	movlw	0
  9524     0AFA  1803               	skipnc
  9525     0AFB  3001               	movlw	1
  9526     0AFC  07A6               	addwf	___fldiv@b+2,f
  9527     0AFD  3000               	movlw	0
  9528     0AFE  1803               	skipnc
  9529     0AFF  3001               	movlw	1
  9530     0B00  07A7               	addwf	___fldiv@b+3,f
  9531     0B01                     l2927:
  9532     0B01  1C27               	btfss	___fldiv@b+3,0
  9533     0B02  2B04               	goto	u3491
  9534     0B03  2B05               	goto	u3490
  9535     0B04                     u3491:
  9536     0B04  2B24               	goto	l2933
  9537     0B05                     u3490:
  9538     0B05                     l2929:
  9539     0B05  0824               	movf	___fldiv@b,w
  9540     0B06  00A8               	movwf	??___fldiv
  9541     0B07  0825               	movf	___fldiv@b+1,w
  9542     0B08  00A9               	movwf	??___fldiv+1
  9543     0B09  0826               	movf	___fldiv@b+2,w
  9544     0B0A  00AA               	movwf	??___fldiv+2
  9545     0B0B  0827               	movf	___fldiv@b+3,w
  9546     0B0C  00AB               	movwf	??___fldiv+3
  9547     0B0D  3001               	movlw	1
  9548     0B0E  00AC               	movwf	??___fldiv+4
  9549     0B0F                     u3505:
  9550     0B0F  0D2B               	rlf	??___fldiv+3,w
  9551     0B10  0CAB               	rrf	??___fldiv+3,f
  9552     0B11  0CAA               	rrf	??___fldiv+2,f
  9553     0B12  0CA9               	rrf	??___fldiv+1,f
  9554     0B13  0CA8               	rrf	??___fldiv,f
  9555     0B14                     u3500:
  9556     0B14  0BAC               	decfsz	??___fldiv+4,f
  9557     0B15  2B0F               	goto	u3505
  9558     0B16  082B               	movf	??___fldiv+3,w
  9559     0B17  00A7               	movwf	___fldiv@b+3
  9560     0B18  082A               	movf	??___fldiv+2,w
  9561     0B19  00A6               	movwf	___fldiv@b+2
  9562     0B1A  0829               	movf	??___fldiv+1,w
  9563     0B1B  00A5               	movwf	___fldiv@b+1
  9564     0B1C  0828               	movf	??___fldiv,w
  9565     0B1D  00A4               	movwf	___fldiv@b
  9566     0B1E                     l2931:
  9567     0B1E  3001               	movlw	1
  9568     0B1F  07B2               	addwf	___fldiv@new_exp,f
  9569     0B20  1803               	skipnc
  9570     0B21  0AB3               	incf	___fldiv@new_exp+1,f
  9571     0B22  3000               	movlw	0
  9572     0B23  07B3               	addwf	___fldiv@new_exp+1,f
  9573     0B24                     l2933:
  9574     0B24  0833               	movf	___fldiv@new_exp+1,w
  9575     0B25  3A80               	xorlw	128
  9576     0B26  00FF               	movwf	btemp+1
  9577     0B27  3080               	movlw	128
  9578     0B28  027F               	subwf	btemp+1,w
  9579     0B29  1D03               	skipz
  9580     0B2A  2B2D               	goto	u3515
  9581     0B2B  30FF               	movlw	255
  9582     0B2C  0232               	subwf	___fldiv@new_exp,w
  9583     0B2D                     u3515:
  9584     0B2D  1C03               	skipc
  9585     0B2E  2B30               	goto	u3511
  9586     0B2F  2B31               	goto	u3510
  9587     0B30                     u3511:
  9588     0B30  2B3F               	goto	l2937
  9589     0B31                     u3510:
  9590     0B31                     l2935:
  9591     0B31  30FF               	movlw	255
  9592     0B32  1283               	bcf	3,5	;RP0=0, select bank0
  9593     0B33  1303               	bcf	3,6	;RP1=0, select bank0
  9594     0B34  00B2               	movwf	___fldiv@new_exp
  9595     0B35  3000               	movlw	0
  9596     0B36  00B3               	movwf	___fldiv@new_exp+1
  9597     0B37  3000               	movlw	0
  9598     0B38  00A7               	movwf	___fldiv@b+3
  9599     0B39  3000               	movlw	0
  9600     0B3A  00A6               	movwf	___fldiv@b+2
  9601     0B3B  3000               	movlw	0
  9602     0B3C  00A5               	movwf	___fldiv@b+1
  9603     0B3D  3000               	movlw	0
  9604     0B3E  00A4               	movwf	___fldiv@b
  9605     0B3F                     l2937:
  9606     0B3F  1283               	bcf	3,5	;RP0=0, select bank0
  9607     0B40  1303               	bcf	3,6	;RP1=0, select bank0
  9608     0B41  0833               	movf	___fldiv@new_exp+1,w
  9609     0B42  3A80               	xorlw	128
  9610     0B43  00FF               	movwf	btemp+1
  9611     0B44  3080               	movlw	128
  9612     0B45  027F               	subwf	btemp+1,w
  9613     0B46  1D03               	skipz
  9614     0B47  2B4A               	goto	u3525
  9615     0B48  3001               	movlw	1
  9616     0B49  0232               	subwf	___fldiv@new_exp,w
  9617     0B4A                     u3525:
  9618     0B4A  1803               	skipnc
  9619     0B4B  2B4D               	goto	u3521
  9620     0B4C  2B4E               	goto	u3520
  9621     0B4D                     u3521:
  9622     0B4D  2B5B               	goto	l839
  9623     0B4E                     u3520:
  9624     0B4E                     l2939:
  9625     0B4E  1283               	bcf	3,5	;RP0=0, select bank0
  9626     0B4F  1303               	bcf	3,6	;RP1=0, select bank0
  9627     0B50  01B2               	clrf	___fldiv@new_exp
  9628     0B51  01B3               	clrf	___fldiv@new_exp+1
  9629     0B52                     l2941:
  9630     0B52  3000               	movlw	0
  9631     0B53  00A7               	movwf	___fldiv@b+3
  9632     0B54  3000               	movlw	0
  9633     0B55  00A6               	movwf	___fldiv@b+2
  9634     0B56  3000               	movlw	0
  9635     0B57  00A5               	movwf	___fldiv@b+1
  9636     0B58  3000               	movlw	0
  9637     0B59  00A4               	movwf	___fldiv@b
  9638     0B5A                     l2943:
  9639     0B5A  01B1               	clrf	___fldiv@sign
  9640     0B5B                     l839:
  9641     0B5B  1283               	bcf	3,5	;RP0=0, select bank0
  9642     0B5C  1303               	bcf	3,6	;RP1=0, select bank0
  9643     0B5D  0832               	movf	___fldiv@new_exp,w
  9644     0B5E  00B8               	movwf	___fldiv@bexp
  9645     0B5F                     l2945:
  9646     0B5F  1C38               	btfss	___fldiv@bexp,0
  9647     0B60  2B62               	goto	u3531
  9648     0B61  2B63               	goto	u3530
  9649     0B62                     u3531:
  9650     0B62  2B65               	goto	l2949
  9651     0B63                     u3530:
  9652     0B63                     l2947:
  9653     0B63  17A6               	bsf	___fldiv@b+2,7
  9654     0B64  2B69               	goto	l841
  9655     0B65                     l2949:
  9656     0B65  307F               	movlw	127
  9657     0B66  00A8               	movwf	??___fldiv
  9658     0B67  0828               	movf	??___fldiv,w
  9659     0B68  05A6               	andwf	___fldiv@b+2,f
  9660     0B69                     l841:
  9661     0B69  0838               	movf	___fldiv@bexp,w
  9662     0B6A  00A8               	movwf	??___fldiv
  9663     0B6B  1003               	clrc
  9664     0B6C  0C28               	rrf	??___fldiv,w
  9665     0B6D  00A7               	movwf	___fldiv@b+3
  9666     0B6E  0831               	movf	___fldiv@sign,w
  9667     0B6F  00A8               	movwf	??___fldiv
  9668     0B70  0828               	movf	??___fldiv,w
  9669     0B71  04A7               	iorwf	___fldiv@b+3,f
  9670     0B72  2A0F               	goto	l2857
  9671     0B73                     l819:
  9672     0B73  0008               	return
  9673     0B74                     __end_of___fldiv:
  9674                           
  9675                           	psect	text33
  9676     10CE                     __ptext33:	
  9677 ;; *************** function _Lcd_Write_String *****************
  9678 ;; Defined at:
  9679 ;;		line 98 in file "LCD.c"
  9680 ;; Parameters:    Size  Location     Type
  9681 ;;  a               2    5[BANK0 ] PTR unsigned char 
  9682 ;;		 -> buffer3(48), STR_4(3), buffer(30), buffer2(48), 
  9683 ;;		 -> STR_1(3), 
  9684 ;; Auto vars:     Size  Location     Type
  9685 ;;  i               2   10[BANK0 ] int 
  9686 ;; Return value:  Size  Location     Type
  9687 ;;                  1    wreg      void 
  9688 ;; Registers used:
  9689 ;;		wreg, fsr0l, fsr0h, status,2, status,0, btemp+1, pclath, cstack
  9690 ;; Tracked objects:
  9691 ;;		On entry : 0/0
  9692 ;;		On exit  : 0/0
  9693 ;;		Unchanged: 0/0
  9694 ;; Data sizes:     COMMON   BANK0   BANK1   BANK3   BANK2
  9695 ;;      Params:         0       2       0       0       0
  9696 ;;      Locals:         0       2       0       0       0
  9697 ;;      Temps:          0       3       0       0       0
  9698 ;;      Totals:         0       7       0       0       0
  9699 ;;Total ram usage:        7 bytes
  9700 ;; Hardware stack levels used: 1
  9701 ;; Hardware stack levels required when called: 6
  9702 ;; This function calls:
  9703 ;;		_Lcd_Write_Char
  9704 ;; This function is called by:
  9705 ;;		_main
  9706 ;;		_AHT10_Read
  9707 ;; This function uses a non-reentrant model
  9708 ;;
  9709                           
  9710     10CE                     _Lcd_Write_String:	
  9711                           ;psect for function _Lcd_Write_String
  9712                           
  9713     10CE                     l3259:	
  9714                           ;incstack = 0
  9715                           ; Regs used in _Lcd_Write_String: [wreg-fsr0h+status,2+status,0+btemp+1+pclath+cstack]
  9716                           
  9717                           
  9718                           ;LCD.c: 99:     int i;;LCD.c: 100:     for (i = 0; a[i] != '\0'; i++)
  9719     10CE  1283               	bcf	3,5	;RP0=0, select bank0
  9720     10CF  1303               	bcf	3,6	;RP1=0, select bank0
  9721     10D0  01AA               	clrf	Lcd_Write_String@i
  9722     10D1  01AB               	clrf	Lcd_Write_String@i+1
  9723     10D2  28F7               	goto	l3265
  9724     10D3                     l3261:
  9725                           
  9726                           ;LCD.c: 101:         Lcd_Write_Char(a[i]);
  9727     10D3  082A               	movf	Lcd_Write_String@i,w
  9728     10D4  0725               	addwf	Lcd_Write_String@a,w
  9729     10D5  00A8               	movwf	??_Lcd_Write_String+1
  9730     10D6  0826               	movf	Lcd_Write_String@a+1,w
  9731     10D7  00A7               	movwf	??_Lcd_Write_String
  9732     10D8  1803               	skipnc
  9733     10D9  0AA7               	incf	??_Lcd_Write_String,f
  9734     10DA  1FAA               	btfss	Lcd_Write_String@i,7
  9735     10DB  28DD               	goto	u4240
  9736     10DC  03A7               	decf	??_Lcd_Write_String,f
  9737     10DD                     u4240:
  9738     10DD  1283               	bcf	3,5	;RP0=0, select bank0
  9739     10DE  1303               	bcf	3,6	;RP1=0, select bank0
  9740     10DF  0827               	movf	??_Lcd_Write_String,w
  9741     10E0  00A9               	movwf	??_Lcd_Write_String+2
  9742     10E1  0829               	movf	??_Lcd_Write_String+2,w
  9743     10E2  00FF               	movwf	btemp+1
  9744     10E3  0828               	movf	??_Lcd_Write_String+1,w
  9745     10E4  0084               	movwf	4
  9746     10E5  160A  158A  2000  160A  118A  	fcall	stringtab
  9747     10EA  160A  158A  278E  160A  118A  	fcall	_Lcd_Write_Char
  9748     10EF                     l3263:
  9749     10EF  3001               	movlw	1
  9750     10F0  1283               	bcf	3,5	;RP0=0, select bank0
  9751     10F1  1303               	bcf	3,6	;RP1=0, select bank0
  9752     10F2  07AA               	addwf	Lcd_Write_String@i,f
  9753     10F3  1803               	skipnc
  9754     10F4  0AAB               	incf	Lcd_Write_String@i+1,f
  9755     10F5  3000               	movlw	0
  9756     10F6  07AB               	addwf	Lcd_Write_String@i+1,f
  9757     10F7                     l3265:
  9758     10F7  082A               	movf	Lcd_Write_String@i,w
  9759     10F8  0725               	addwf	Lcd_Write_String@a,w
  9760     10F9  00A8               	movwf	??_Lcd_Write_String+1
  9761     10FA  0826               	movf	Lcd_Write_String@a+1,w
  9762     10FB  00A7               	movwf	??_Lcd_Write_String
  9763     10FC  1803               	skipnc
  9764     10FD  0AA7               	incf	??_Lcd_Write_String,f
  9765     10FE  1FAA               	btfss	Lcd_Write_String@i,7
  9766     10FF  2901               	goto	u4250
  9767     1100  03A7               	decf	??_Lcd_Write_String,f
  9768     1101                     u4250:
  9769     1101  1283               	bcf	3,5	;RP0=0, select bank0
  9770     1102  1303               	bcf	3,6	;RP1=0, select bank0
  9771     1103  0827               	movf	??_Lcd_Write_String,w
  9772     1104  00A9               	movwf	??_Lcd_Write_String+2
  9773     1105  0829               	movf	??_Lcd_Write_String+2,w
  9774     1106  00FF               	movwf	btemp+1
  9775     1107  0828               	movf	??_Lcd_Write_String+1,w
  9776     1108  0084               	movwf	4
  9777     1109  160A  158A  2000  160A  118A  	fcall	stringtab
  9778     110E  3A00               	xorlw	0
  9779     110F  1D03               	skipz
  9780     1110  2912               	goto	u4261
  9781     1111  2913               	goto	u4260
  9782     1112                     u4261:
  9783     1112  28D3               	goto	l3261
  9784     1113                     u4260:
  9785     1113                     l260:
  9786     1113  0008               	return
  9787     1114                     __end_of_Lcd_Write_String:
  9788                           
  9789                           	psect	text34
  9790     1F8E                     __ptext34:	
  9791 ;; *************** function _Lcd_Write_Char *****************
  9792 ;; Defined at:
  9793 ;;		line 83 in file "LCD.c"
  9794 ;; Parameters:    Size  Location     Type
  9795 ;;  a               1    wreg     unsigned char 
  9796 ;; Auto vars:     Size  Location     Type
  9797 ;;  a               1    4[BANK0 ] unsigned char 
  9798 ;;  y               1    3[BANK0 ] unsigned char 
  9799 ;;  temp            1    2[BANK0 ] unsigned char 
  9800 ;; Return value:  Size  Location     Type
  9801 ;;                  1    wreg      void 
  9802 ;; Registers used:
  9803 ;;		wreg, status,2, status,0, pclath, cstack
  9804 ;; Tracked objects:
  9805 ;;		On entry : 0/0
  9806 ;;		On exit  : 0/0
  9807 ;;		Unchanged: 0/0
  9808 ;; Data sizes:     COMMON   BANK0   BANK1   BANK3   BANK2
  9809 ;;      Params:         0       0       0       0       0
  9810 ;;      Locals:         0       3       0       0       0
  9811 ;;      Temps:          0       1       0       0       0
  9812 ;;      Totals:         0       4       0       0       0
  9813 ;;Total ram usage:        4 bytes
  9814 ;; Hardware stack levels used: 1
  9815 ;; Hardware stack levels required when called: 5
  9816 ;; This function calls:
  9817 ;;		_Lcd_Port
  9818 ;; This function is called by:
  9819 ;;		_Lcd_Write_String
  9820 ;; This function uses a non-reentrant model
  9821 ;;
  9822                           
  9823     1F8E                     _Lcd_Write_Char:	
  9824                           ;psect for function _Lcd_Write_Char
  9825                           
  9826                           
  9827                           ;incstack = 0
  9828                           ; Regs used in _Lcd_Write_Char: [wreg+status,2+status,0+pclath+cstack]
  9829                           ;Lcd_Write_Char@a stored from wreg
  9830     1F8E  1283               	bcf	3,5	;RP0=0, select bank0
  9831     1F8F  1303               	bcf	3,6	;RP1=0, select bank0
  9832     1F90  00A4               	movwf	Lcd_Write_Char@a
  9833     1F91                     l2685:
  9834                           
  9835                           ;LCD.c: 84:     char temp, y;;LCD.c: 85:     temp = a & 0x0F;
  9836     1F91  0824               	movf	Lcd_Write_Char@a,w
  9837     1F92  390F               	andlw	15
  9838     1F93  00A2               	movwf	Lcd_Write_Char@temp
  9839                           
  9840                           ;LCD.c: 86:     y = a & 0xF0;
  9841     1F94  0824               	movf	Lcd_Write_Char@a,w
  9842     1F95  39F0               	andlw	240
  9843     1F96  00A3               	movwf	Lcd_Write_Char@y
  9844     1F97                     l2687:
  9845                           
  9846                           ;LCD.c: 87:     PORTDbits.RD6 = 1;
  9847     1F97  1708               	bsf	8,6	;volatile
  9848     1F98                     l2689:
  9849                           
  9850                           ;LCD.c: 88:     Lcd_Port(y >> 4);
  9851     1F98  0823               	movf	Lcd_Write_Char@y,w
  9852     1F99  00A1               	movwf	??_Lcd_Write_Char
  9853     1F9A  3004               	movlw	4
  9854     1F9B                     u2975:
  9855     1F9B  1003               	clrc
  9856     1F9C  0CA1               	rrf	??_Lcd_Write_Char,f
  9857     1F9D  3EFF               	addlw	-1
  9858     1F9E  1D03               	skipz
  9859     1F9F  2F9B               	goto	u2975
  9860     1FA0  0821               	movf	??_Lcd_Write_Char,w
  9861     1FA1  160A  158A  25DF  160A  158A  	fcall	_Lcd_Port
  9862     1FA6                     l2691:
  9863                           
  9864                           ;LCD.c: 89:     PORTDbits.RD7 = 1;
  9865     1FA6  1283               	bcf	3,5	;RP0=0, select bank0
  9866     1FA7  1303               	bcf	3,6	;RP1=0, select bank0
  9867     1FA8  1788               	bsf	8,7	;volatile
  9868     1FA9                     l2693:
  9869                           
  9870                           ;LCD.c: 90:     _delay((unsigned long)((40)*(8000000/4000000.0)));
  9871     1FA9  3019               	movlw	25
  9872     1FAA  1283               	bcf	3,5	;RP0=0, select bank0
  9873     1FAB  1303               	bcf	3,6	;RP1=0, select bank0
  9874     1FAC  00A1               	movwf	??_Lcd_Write_Char
  9875     1FAD                     u4927:
  9876     1FAD  0BA1               	decfsz	??_Lcd_Write_Char,f
  9877     1FAE  2FAD               	goto	u4927
  9878     1FAF  2FB0               	nop2
  9879     1FB0                     l2695:
  9880                           
  9881                           ;LCD.c: 91:     PORTDbits.RD7 = 0;
  9882     1FB0  1283               	bcf	3,5	;RP0=0, select bank0
  9883     1FB1  1303               	bcf	3,6	;RP1=0, select bank0
  9884     1FB2  1388               	bcf	8,7	;volatile
  9885     1FB3                     l2697:
  9886                           
  9887                           ;LCD.c: 92:     Lcd_Port(temp);
  9888     1FB3  0822               	movf	Lcd_Write_Char@temp,w
  9889     1FB4  160A  158A  25DF  160A  158A  	fcall	_Lcd_Port
  9890     1FB9                     l2699:
  9891                           
  9892                           ;LCD.c: 93:     PORTDbits.RD7 = 1;
  9893     1FB9  1283               	bcf	3,5	;RP0=0, select bank0
  9894     1FBA  1303               	bcf	3,6	;RP1=0, select bank0
  9895     1FBB  1788               	bsf	8,7	;volatile
  9896     1FBC                     l2701:
  9897                           
  9898                           ;LCD.c: 94:     _delay((unsigned long)((40)*(8000000/4000000.0)));
  9899     1FBC  3019               	movlw	25
  9900     1FBD  1283               	bcf	3,5	;RP0=0, select bank0
  9901     1FBE  1303               	bcf	3,6	;RP1=0, select bank0
  9902     1FBF  00A1               	movwf	??_Lcd_Write_Char
  9903     1FC0                     u4937:
  9904     1FC0  0BA1               	decfsz	??_Lcd_Write_Char,f
  9905     1FC1  2FC0               	goto	u4937
  9906     1FC2  2FC3               	nop2
  9907     1FC3                     l2703:
  9908                           
  9909                           ;LCD.c: 95:     PORTDbits.RD7 = 0;
  9910     1FC3  1283               	bcf	3,5	;RP0=0, select bank0
  9911     1FC4  1303               	bcf	3,6	;RP1=0, select bank0
  9912     1FC5  1388               	bcf	8,7	;volatile
  9913     1FC6                     l254:
  9914     1FC6  0008               	return
  9915     1FC7                     __end_of_Lcd_Write_Char:
  9916                           
  9917                           	psect	text35
  9918     115A                     __ptext35:	
  9919 ;; *************** function _Lcd_Set_Cursor *****************
  9920 ;; Defined at:
  9921 ;;		line 48 in file "LCD.c"
  9922 ;; Parameters:    Size  Location     Type
  9923 ;;  a               1    wreg     unsigned char 
  9924 ;;  b               1    4[BANK0 ] unsigned char 
  9925 ;; Auto vars:     Size  Location     Type
  9926 ;;  a               1    6[BANK0 ] unsigned char 
  9927 ;;  temp            1    9[BANK0 ] unsigned char 
  9928 ;;  y               1    8[BANK0 ] unsigned char 
  9929 ;;  z               1    7[BANK0 ] unsigned char 
  9930 ;; Return value:  Size  Location     Type
  9931 ;;                  1    wreg      void 
  9932 ;; Registers used:
  9933 ;;		wreg, status,2, status,0, pclath, cstack
  9934 ;; Tracked objects:
  9935 ;;		On entry : 0/0
  9936 ;;		On exit  : 0/0
  9937 ;;		Unchanged: 0/0
  9938 ;; Data sizes:     COMMON   BANK0   BANK1   BANK3   BANK2
  9939 ;;      Params:         0       1       0       0       0
  9940 ;;      Locals:         0       4       0       0       0
  9941 ;;      Temps:          0       1       0       0       0
  9942 ;;      Totals:         0       6       0       0       0
  9943 ;;Total ram usage:        6 bytes
  9944 ;; Hardware stack levels used: 1
  9945 ;; Hardware stack levels required when called: 6
  9946 ;; This function calls:
  9947 ;;		_Lcd_Cmd
  9948 ;; This function is called by:
  9949 ;;		_main
  9950 ;;		_AHT10_Read
  9951 ;; This function uses a non-reentrant model
  9952 ;;
  9953                           
  9954     115A                     _Lcd_Set_Cursor:	
  9955                           ;psect for function _Lcd_Set_Cursor
  9956                           
  9957                           
  9958                           ;incstack = 0
  9959                           ; Regs used in _Lcd_Set_Cursor: [wreg+status,2+status,0+pclath+cstack]
  9960                           ;Lcd_Set_Cursor@a stored from wreg
  9961     115A  1283               	bcf	3,5	;RP0=0, select bank0
  9962     115B  1303               	bcf	3,6	;RP1=0, select bank0
  9963     115C  00A6               	movwf	Lcd_Set_Cursor@a
  9964     115D                     l3239:
  9965                           
  9966                           ;LCD.c: 49:     char temp, z, y;;LCD.c: 50:     if (a == 1) {
  9967     115D  0326               	decf	Lcd_Set_Cursor@a,w
  9968     115E  1D03               	btfss	3,2
  9969     115F  2961               	goto	u4201
  9970     1160  2962               	goto	u4200
  9971     1161                     u4201:
  9972     1161  2981               	goto	l3249
  9973     1162                     u4200:
  9974     1162                     l3241:
  9975                           
  9976                           ;LCD.c: 51:         temp = 0x80 + b - 1;
  9977     1162  0824               	movf	Lcd_Set_Cursor@b,w
  9978     1163  3E7F               	addlw	127
  9979     1164  00A9               	movwf	Lcd_Set_Cursor@temp
  9980                           
  9981                           ;LCD.c: 52:         z = temp >> 4;
  9982     1165  0829               	movf	Lcd_Set_Cursor@temp,w
  9983     1166  00A5               	movwf	??_Lcd_Set_Cursor
  9984     1167  3004               	movlw	4
  9985     1168                     u4215:
  9986     1168  1003               	clrc
  9987     1169  0CA5               	rrf	??_Lcd_Set_Cursor,f
  9988     116A  3EFF               	addlw	-1
  9989     116B  1D03               	skipz
  9990     116C  2968               	goto	u4215
  9991     116D  0825               	movf	??_Lcd_Set_Cursor,w
  9992     116E  00A7               	movwf	Lcd_Set_Cursor@z
  9993     116F                     l3243:
  9994                           
  9995                           ;LCD.c: 53:         y = temp & 0x0F;
  9996     116F  0829               	movf	Lcd_Set_Cursor@temp,w
  9997     1170  390F               	andlw	15
  9998     1171  00A8               	movwf	Lcd_Set_Cursor@y
  9999     1172                     l3245:
 10000                           
 10001                           ;LCD.c: 54:         Lcd_Cmd(z);
 10002     1172  0827               	movf	Lcd_Set_Cursor@z,w
 10003     1173  160A  158A  25C3  160A  118A  	fcall	_Lcd_Cmd
 10004     1178                     l3247:
 10005                           
 10006                           ;LCD.c: 55:         Lcd_Cmd(y);
 10007     1178  1283               	bcf	3,5	;RP0=0, select bank0
 10008     1179  1303               	bcf	3,6	;RP1=0, select bank0
 10009     117A  0828               	movf	Lcd_Set_Cursor@y,w
 10010     117B  160A  158A  25C3  160A  118A  	fcall	_Lcd_Cmd
 10011                           
 10012                           ;LCD.c: 56:     } else if (a == 2) {
 10013     1180  29A5               	goto	l248
 10014     1181                     l3249:
 10015     1181  3002               	movlw	2
 10016     1182  0626               	xorwf	Lcd_Set_Cursor@a,w
 10017     1183  1D03               	btfss	3,2
 10018     1184  2986               	goto	u4221
 10019     1185  2987               	goto	u4220
 10020     1186                     u4221:
 10021     1186  29A5               	goto	l248
 10022     1187                     u4220:
 10023     1187                     l3251:
 10024                           
 10025                           ;LCD.c: 57:         temp = 0xC0 + b - 1;
 10026     1187  0824               	movf	Lcd_Set_Cursor@b,w
 10027     1188  3EBF               	addlw	191
 10028     1189  00A9               	movwf	Lcd_Set_Cursor@temp
 10029                           
 10030                           ;LCD.c: 58:         z = temp >> 4;
 10031     118A  0829               	movf	Lcd_Set_Cursor@temp,w
 10032     118B  00A5               	movwf	??_Lcd_Set_Cursor
 10033     118C  3004               	movlw	4
 10034     118D                     u4235:
 10035     118D  1003               	clrc
 10036     118E  0CA5               	rrf	??_Lcd_Set_Cursor,f
 10037     118F  3EFF               	addlw	-1
 10038     1190  1D03               	skipz
 10039     1191  298D               	goto	u4235
 10040     1192  0825               	movf	??_Lcd_Set_Cursor,w
 10041     1193  00A7               	movwf	Lcd_Set_Cursor@z
 10042     1194                     l3253:
 10043                           
 10044                           ;LCD.c: 59:         y = temp & 0x0F;
 10045     1194  0829               	movf	Lcd_Set_Cursor@temp,w
 10046     1195  390F               	andlw	15
 10047     1196  00A8               	movwf	Lcd_Set_Cursor@y
 10048     1197                     l3255:
 10049                           
 10050                           ;LCD.c: 60:         Lcd_Cmd(z);
 10051     1197  0827               	movf	Lcd_Set_Cursor@z,w
 10052     1198  160A  158A  25C3  160A  118A  	fcall	_Lcd_Cmd
 10053     119D                     l3257:
 10054                           
 10055                           ;LCD.c: 61:         Lcd_Cmd(y);
 10056     119D  1283               	bcf	3,5	;RP0=0, select bank0
 10057     119E  1303               	bcf	3,6	;RP1=0, select bank0
 10058     119F  0828               	movf	Lcd_Set_Cursor@y,w
 10059     11A0  160A  158A  25C3  160A  118A  	fcall	_Lcd_Cmd
 10060     11A5                     l248:
 10061     11A5  0008               	return
 10062     11A6                     __end_of_Lcd_Set_Cursor:
 10063                           
 10064                           	psect	text36
 10065     1DC3                     __ptext36:	
 10066 ;; *************** function _Lcd_Cmd *****************
 10067 ;; Defined at:
 10068 ;;		line 35 in file "LCD.c"
 10069 ;; Parameters:    Size  Location     Type
 10070 ;;  a               1    wreg     unsigned char 
 10071 ;; Auto vars:     Size  Location     Type
 10072 ;;  a               1    3[BANK0 ] unsigned char 
 10073 ;; Return value:  Size  Location     Type
 10074 ;;                  1    wreg      void 
 10075 ;; Registers used:
 10076 ;;		wreg, status,2, status,0, pclath, cstack
 10077 ;; Tracked objects:
 10078 ;;		On entry : 0/0
 10079 ;;		On exit  : 0/0
 10080 ;;		Unchanged: 0/0
 10081 ;; Data sizes:     COMMON   BANK0   BANK1   BANK3   BANK2
 10082 ;;      Params:         0       0       0       0       0
 10083 ;;      Locals:         0       1       0       0       0
 10084 ;;      Temps:          0       2       0       0       0
 10085 ;;      Totals:         0       3       0       0       0
 10086 ;;Total ram usage:        3 bytes
 10087 ;; Hardware stack levels used: 1
 10088 ;; Hardware stack levels required when called: 5
 10089 ;; This function calls:
 10090 ;;		_Lcd_Port
 10091 ;; This function is called by:
 10092 ;;		_Lcd_Set_Cursor
 10093 ;;		_Lcd_Init
 10094 ;;		_Lcd_Shift_Right
 10095 ;;		_Lcd_Shift_Left
 10096 ;; This function uses a non-reentrant model
 10097 ;;
 10098                           
 10099     1DC3                     _Lcd_Cmd:	
 10100                           ;psect for function _Lcd_Cmd
 10101                           
 10102                           
 10103                           ;incstack = 0
 10104                           ; Regs used in _Lcd_Cmd: [wreg+status,2+status,0+pclath+cstack]
 10105                           ;Lcd_Cmd@a stored from wreg
 10106     1DC3  1283               	bcf	3,5	;RP0=0, select bank0
 10107     1DC4  1303               	bcf	3,6	;RP1=0, select bank0
 10108     1DC5  00A3               	movwf	Lcd_Cmd@a
 10109     1DC6                     l2675:
 10110                           
 10111                           ;LCD.c: 36:     PORTDbits.RD6 = 0;
 10112     1DC6  1308               	bcf	8,6	;volatile
 10113     1DC7                     l2677:
 10114                           
 10115                           ;LCD.c: 37:     Lcd_Port(a);
 10116     1DC7  0823               	movf	Lcd_Cmd@a,w
 10117     1DC8  160A  158A  25DF  160A  158A  	fcall	_Lcd_Port
 10118     1DCD                     l2679:
 10119                           
 10120                           ;LCD.c: 38:     PORTDbits.RD7 = 1;
 10121     1DCD  1283               	bcf	3,5	;RP0=0, select bank0
 10122     1DCE  1303               	bcf	3,6	;RP1=0, select bank0
 10123     1DCF  1788               	bsf	8,7	;volatile
 10124     1DD0                     l2681:
 10125                           
 10126                           ;LCD.c: 39:     _delay((unsigned long)((4)*(8000000/4000.0)));
 10127     1DD0  300B               	movlw	11
 10128     1DD1  1283               	bcf	3,5	;RP0=0, select bank0
 10129     1DD2  1303               	bcf	3,6	;RP1=0, select bank0
 10130     1DD3  00A2               	movwf	??_Lcd_Cmd+1
 10131     1DD4  3061               	movlw	97
 10132     1DD5  00A1               	movwf	??_Lcd_Cmd
 10133     1DD6                     u4947:
 10134     1DD6  0BA1               	decfsz	??_Lcd_Cmd,f
 10135     1DD7  2DD6               	goto	u4947
 10136     1DD8  0BA2               	decfsz	??_Lcd_Cmd+1,f
 10137     1DD9  2DD6               	goto	u4947
 10138     1DDA  2DDB               	nop2
 10139     1DDB                     l2683:
 10140                           
 10141                           ;LCD.c: 40:     PORTDbits.RD7 = 0;
 10142     1DDB  1283               	bcf	3,5	;RP0=0, select bank0
 10143     1DDC  1303               	bcf	3,6	;RP1=0, select bank0
 10144     1DDD  1388               	bcf	8,7	;volatile
 10145     1DDE                     l239:
 10146     1DDE  0008               	return
 10147     1DDF                     __end_of_Lcd_Cmd:
 10148                           
 10149                           	psect	text37
 10150     1DDF                     __ptext37:	
 10151 ;; *************** function _Lcd_Port *****************
 10152 ;; Defined at:
 10153 ;;		line 13 in file "LCD.c"
 10154 ;; Parameters:    Size  Location     Type
 10155 ;;  a               1    wreg     unsigned char 
 10156 ;; Auto vars:     Size  Location     Type
 10157 ;;  a               1    0[BANK0 ] unsigned char 
 10158 ;; Return value:  Size  Location     Type
 10159 ;;                  1    wreg      void 
 10160 ;; Registers used:
 10161 ;;		wreg
 10162 ;; Tracked objects:
 10163 ;;		On entry : 0/0
 10164 ;;		On exit  : 0/0
 10165 ;;		Unchanged: 0/0
 10166 ;; Data sizes:     COMMON   BANK0   BANK1   BANK3   BANK2
 10167 ;;      Params:         0       0       0       0       0
 10168 ;;      Locals:         0       1       0       0       0
 10169 ;;      Temps:          0       0       0       0       0
 10170 ;;      Totals:         0       1       0       0       0
 10171 ;;Total ram usage:        1 bytes
 10172 ;; Hardware stack levels used: 1
 10173 ;; Hardware stack levels required when called: 4
 10174 ;; This function calls:
 10175 ;;		Nothing
 10176 ;; This function is called by:
 10177 ;;		_Lcd_Cmd
 10178 ;;		_Lcd_Init
 10179 ;;		_Lcd_Write_Char
 10180 ;; This function uses a non-reentrant model
 10181 ;;
 10182                           
 10183     1DDF                     _Lcd_Port:	
 10184                           ;psect for function _Lcd_Port
 10185                           
 10186                           
 10187                           ;incstack = 0
 10188                           ; Regs used in _Lcd_Port: [wreg]
 10189                           ;Lcd_Port@a stored from wreg
 10190     1DDF  1283               	bcf	3,5	;RP0=0, select bank0
 10191     1DE0  1303               	bcf	3,6	;RP1=0, select bank0
 10192     1DE1  00A0               	movwf	Lcd_Port@a
 10193     1DE2                     l2425:
 10194                           
 10195                           ;LCD.c: 14:     if (a & 1)
 10196     1DE2  1C20               	btfss	Lcd_Port@a,0
 10197     1DE3  2DE5               	goto	u2401
 10198     1DE4  2DE6               	goto	u2400
 10199     1DE5                     u2401:
 10200     1DE5  2DE8               	goto	l228
 10201     1DE6                     u2400:
 10202     1DE6                     l2427:
 10203                           
 10204                           ;LCD.c: 15:         PORTBbits.RB4 = 1;
 10205     1DE6  1606               	bsf	6,4	;volatile
 10206     1DE7  2DE9               	goto	l229
 10207     1DE8                     l228:	
 10208                           ;LCD.c: 16:     else
 10209                           
 10210                           
 10211                           ;LCD.c: 17:         PORTBbits.RB4 = 0;
 10212     1DE8  1206               	bcf	6,4	;volatile
 10213     1DE9                     l229:
 10214                           
 10215                           ;LCD.c: 19:     if (a & 2)
 10216     1DE9  1CA0               	btfss	Lcd_Port@a,1
 10217     1DEA  2DEC               	goto	u2411
 10218     1DEB  2DED               	goto	u2410
 10219     1DEC                     u2411:
 10220     1DEC  2DEF               	goto	l230
 10221     1DED                     u2410:
 10222     1DED                     l2429:
 10223                           
 10224                           ;LCD.c: 20:         PORTBbits.RB5 = 1;
 10225     1DED  1686               	bsf	6,5	;volatile
 10226     1DEE  2DF0               	goto	l231
 10227     1DEF                     l230:	
 10228                           ;LCD.c: 21:     else
 10229                           
 10230                           
 10231                           ;LCD.c: 22:         PORTBbits.RB5 = 0;
 10232     1DEF  1286               	bcf	6,5	;volatile
 10233     1DF0                     l231:
 10234                           
 10235                           ;LCD.c: 24:     if (a & 4)
 10236     1DF0  1D20               	btfss	Lcd_Port@a,2
 10237     1DF1  2DF3               	goto	u2421
 10238     1DF2  2DF4               	goto	u2420
 10239     1DF3                     u2421:
 10240     1DF3  2DF6               	goto	l232
 10241     1DF4                     u2420:
 10242     1DF4                     l2431:
 10243                           
 10244                           ;LCD.c: 25:         PORTBbits.RB6 = 1;
 10245     1DF4  1706               	bsf	6,6	;volatile
 10246     1DF5  2DF7               	goto	l233
 10247     1DF6                     l232:	
 10248                           ;LCD.c: 26:     else
 10249                           
 10250                           
 10251                           ;LCD.c: 27:         PORTBbits.RB6 = 0;
 10252     1DF6  1306               	bcf	6,6	;volatile
 10253     1DF7                     l233:
 10254                           
 10255                           ;LCD.c: 29:     if (a & 8)
 10256     1DF7  1DA0               	btfss	Lcd_Port@a,3
 10257     1DF8  2DFA               	goto	u2431
 10258     1DF9  2DFB               	goto	u2430
 10259     1DFA                     u2431:
 10260     1DFA  2DFD               	goto	l234
 10261     1DFB                     u2430:
 10262     1DFB                     l2433:
 10263                           
 10264                           ;LCD.c: 30:         PORTBbits.RB7 = 1;
 10265     1DFB  1786               	bsf	6,7	;volatile
 10266     1DFC  2DFE               	goto	l236
 10267     1DFD                     l234:	
 10268                           ;LCD.c: 31:     else
 10269                           
 10270                           
 10271                           ;LCD.c: 32:         PORTBbits.RB7 = 0;
 10272     1DFD  1386               	bcf	6,7	;volatile
 10273     1DFE                     l236:
 10274     1DFE  0008               	return
 10275     1DFF                     __end_of_Lcd_Port:
 10276                           
 10277                           	psect	text38
 10278     1D41                     __ptext38:	
 10279 ;; *************** function _I2C_Ack *****************
 10280 ;; Defined at:
 10281 ;;		line 101 in file "I2C.c"
 10282 ;; Parameters:    Size  Location     Type
 10283 ;;		None
 10284 ;; Auto vars:     Size  Location     Type
 10285 ;;		None
 10286 ;; Return value:  Size  Location     Type
 10287 ;;                  1    wreg      void 
 10288 ;; Registers used:
 10289 ;;		None
 10290 ;; Tracked objects:
 10291 ;;		On entry : 0/0
 10292 ;;		On exit  : 0/0
 10293 ;;		Unchanged: 0/0
 10294 ;; Data sizes:     COMMON   BANK0   BANK1   BANK3   BANK2
 10295 ;;      Params:         0       0       0       0       0
 10296 ;;      Locals:         0       0       0       0       0
 10297 ;;      Temps:          0       0       0       0       0
 10298 ;;      Totals:         0       0       0       0       0
 10299 ;;Total ram usage:        0 bytes
 10300 ;; Hardware stack levels used: 1
 10301 ;; Hardware stack levels required when called: 4
 10302 ;; This function calls:
 10303 ;;		Nothing
 10304 ;; This function is called by:
 10305 ;;		_AHT10_Read
 10306 ;; This function uses a non-reentrant model
 10307 ;;
 10308                           
 10309     1D41                     _I2C_Ack:	
 10310                           ;psect for function _I2C_Ack
 10311                           
 10312     1D41                     l3321:	
 10313                           ;incstack = 0
 10314                           ; Regs used in _I2C_Ack: []
 10315                           
 10316                           
 10317                           ;I2C.c: 103:     SSPCON2bits.ACKDT = 0;
 10318     1D41  1683               	bsf	3,5	;RP0=1, select bank1
 10319     1D42  1303               	bcf	3,6	;RP1=0, select bank1
 10320     1D43  1291               	bcf	17,5	;volatile
 10321                           
 10322                           ;I2C.c: 104:  SSPCON2bits.ACKEN = 1;
 10323     1D44  1611               	bsf	17,4	;volatile
 10324     1D45                     l330:	
 10325                           ;I2C.c: 105:  while(PIR1bits.SSPIF == 0);
 10326                           
 10327     1D45  1283               	bcf	3,5	;RP0=0, select bank0
 10328     1D46  1D8C               	btfss	12,3	;volatile
 10329     1D47  2D49               	goto	u4301
 10330     1D48  2D4A               	goto	u4300
 10331     1D49                     u4301:
 10332     1D49  2D45               	goto	l330
 10333     1D4A                     u4300:
 10334     1D4A                     l332:
 10335                           
 10336                           ;I2C.c: 106:     PIR1bits.SSPIF = 0;
 10337     1D4A  118C               	bcf	12,3	;volatile
 10338     1D4B                     l333:
 10339     1D4B  0008               	return
 10340     1D4C                     __end_of_I2C_Ack:
 10341                           
 10342                           	psect	text39
 10343     14C0                     __ptext39:	
 10344 ;; *************** function _AHT10_Init *****************
 10345 ;; Defined at:
 10346 ;;		line 248 in file "main_master.c"
 10347 ;; Parameters:    Size  Location     Type
 10348 ;;		None
 10349 ;; Auto vars:     Size  Location     Type
 10350 ;;  status          1    0        unsigned char 
 10351 ;; Return value:  Size  Location     Type
 10352 ;;                  1    wreg      void 
 10353 ;; Registers used:
 10354 ;;		wreg, status,2, status,0, pclath, cstack
 10355 ;; Tracked objects:
 10356 ;;		On entry : 0/0
 10357 ;;		On exit  : 0/0
 10358 ;;		Unchanged: 0/0
 10359 ;; Data sizes:     COMMON   BANK0   BANK1   BANK3   BANK2
 10360 ;;      Params:         0       0       0       0       0
 10361 ;;      Locals:         0       0       0       0       0
 10362 ;;      Temps:          0       2       0       0       0
 10363 ;;      Totals:         0       2       0       0       0
 10364 ;;Total ram usage:        2 bytes
 10365 ;; Hardware stack levels used: 1
 10366 ;; Hardware stack levels required when called: 6
 10367 ;; This function calls:
 10368 ;;		_I2C_Master_Read
 10369 ;;		_I2C_Master_RepeatedStart
 10370 ;;		_I2C_Master_Start
 10371 ;;		_I2C_Master_Stop
 10372 ;;		_I2C_Master_Write
 10373 ;;		_I2C_Nack
 10374 ;; This function is called by:
 10375 ;;		_main
 10376 ;; This function uses a non-reentrant model
 10377 ;;
 10378                           
 10379     14C0                     _AHT10_Init:	
 10380                           ;psect for function _AHT10_Init
 10381                           
 10382     14C0                     l3481:	
 10383                           ;incstack = 0
 10384                           ; Regs used in _AHT10_Init: [wreg+status,2+status,0+pclath+cstack]
 10385                           
 10386                           
 10387                           ;main_master.c: 249:     _delay((unsigned long)((40)*(8000000/4000.0)));
 10388     14C0  3068               	movlw	104
 10389     14C1  1283               	bcf	3,5	;RP0=0, select bank0
 10390     14C2  1303               	bcf	3,6	;RP1=0, select bank0
 10391     14C3  00AD               	movwf	??_AHT10_Init+1
 10392     14C4  30E3               	movlw	227
 10393     14C5  00AC               	movwf	??_AHT10_Init
 10394     14C6                     u4957:
 10395     14C6  0BAC               	decfsz	??_AHT10_Init,f
 10396     14C7  2CC6               	goto	u4957
 10397     14C8  0BAD               	decfsz	??_AHT10_Init+1,f
 10398     14C9  2CC6               	goto	u4957
 10399     14CA  2CCB               	nop2
 10400     14CB                     l3483:
 10401                           
 10402                           ;main_master.c: 250:     uint8_t status;;main_master.c: 251:     I2C_Master_Start();
 10403     14CB  160A  158A  251A  160A  118A  	fcall	_I2C_Master_Start
 10404     14D0                     l3485:
 10405                           
 10406                           ;main_master.c: 252:     I2C_Master_Write(0x70);
 10407     14D0  3070               	movlw	112
 10408     14D1  1283               	bcf	3,5	;RP0=0, select bank0
 10409     14D2  1303               	bcf	3,6	;RP1=0, select bank0
 10410     14D3  00AA               	movwf	I2C_Master_Write@d
 10411     14D4  3000               	movlw	0
 10412     14D5  00AB               	movwf	I2C_Master_Write@d+1
 10413     14D6  160A  158A  252C  160A  118A  	fcall	_I2C_Master_Write
 10414     14DB                     l3487:
 10415                           
 10416                           ;main_master.c: 253:     I2C_Master_Write(0x71);
 10417     14DB  3071               	movlw	113
 10418     14DC  1283               	bcf	3,5	;RP0=0, select bank0
 10419     14DD  1303               	bcf	3,6	;RP1=0, select bank0
 10420     14DE  00AA               	movwf	I2C_Master_Write@d
 10421     14DF  3000               	movlw	0
 10422     14E0  00AB               	movwf	I2C_Master_Write@d+1
 10423     14E1  160A  158A  252C  160A  118A  	fcall	_I2C_Master_Write
 10424     14E6                     l3489:
 10425                           
 10426                           ;main_master.c: 254:     I2C_Master_RepeatedStart();
 10427     14E6  160A  158A  2573  160A  118A  	fcall	_I2C_Master_RepeatedStart
 10428     14EB                     l3491:
 10429                           
 10430                           ;main_master.c: 255:     I2C_Master_Write(0x71);
 10431     14EB  3071               	movlw	113
 10432     14EC  1283               	bcf	3,5	;RP0=0, select bank0
 10433     14ED  1303               	bcf	3,6	;RP1=0, select bank0
 10434     14EE  00AA               	movwf	I2C_Master_Write@d
 10435     14EF  3000               	movlw	0
 10436     14F0  00AB               	movwf	I2C_Master_Write@d+1
 10437     14F1  160A  158A  252C  160A  118A  	fcall	_I2C_Master_Write
 10438     14F6                     l3493:
 10439     14F6  3000               	movlw	0
 10440     14F7  1283               	bcf	3,5	;RP0=0, select bank0
 10441     14F8  1303               	bcf	3,6	;RP1=0, select bank0
 10442     14F9  00A0               	movwf	I2C_Master_Read@a
 10443     14FA  00A1               	movwf	I2C_Master_Read@a+1
 10444     14FB  160A  158A  2621  160A  118A  	fcall	_I2C_Master_Read
 10445     1500                     l3495:
 10446                           
 10447                           ;main_master.c: 257:     I2C_Nack();
 10448     1500  160A  158A  2536  160A  118A  	fcall	_I2C_Nack
 10449                           
 10450                           ;main_master.c: 258:     I2C_Master_Stop();
 10451     1505  160A  158A  2523  160A  118A  	fcall	_I2C_Master_Stop
 10452                           
 10453                           ;main_master.c: 260:     I2C_Master_Start();
 10454     150A  160A  158A  251A  160A  118A  	fcall	_I2C_Master_Start
 10455                           
 10456                           ;main_master.c: 261:     I2C_Master_Write(0x70);
 10457     150F  3070               	movlw	112
 10458     1510  1283               	bcf	3,5	;RP0=0, select bank0
 10459     1511  1303               	bcf	3,6	;RP1=0, select bank0
 10460     1512  00AA               	movwf	I2C_Master_Write@d
 10461     1513  3000               	movlw	0
 10462     1514  00AB               	movwf	I2C_Master_Write@d+1
 10463     1515  160A  158A  252C  160A  118A  	fcall	_I2C_Master_Write
 10464                           
 10465                           ;main_master.c: 262:     I2C_Master_Write(0xE1);
 10466     151A  30E1               	movlw	225
 10467     151B  1283               	bcf	3,5	;RP0=0, select bank0
 10468     151C  1303               	bcf	3,6	;RP1=0, select bank0
 10469     151D  00AA               	movwf	I2C_Master_Write@d
 10470     151E  3000               	movlw	0
 10471     151F  00AB               	movwf	I2C_Master_Write@d+1
 10472     1520  160A  158A  252C  160A  118A  	fcall	_I2C_Master_Write
 10473                           
 10474                           ;main_master.c: 263:     I2C_Master_Write(0x08);
 10475     1525  3008               	movlw	8
 10476     1526  1283               	bcf	3,5	;RP0=0, select bank0
 10477     1527  1303               	bcf	3,6	;RP1=0, select bank0
 10478     1528  00AA               	movwf	I2C_Master_Write@d
 10479     1529  3000               	movlw	0
 10480     152A  00AB               	movwf	I2C_Master_Write@d+1
 10481     152B  160A  158A  252C  160A  118A  	fcall	_I2C_Master_Write
 10482                           
 10483                           ;main_master.c: 264:     I2C_Master_Write(0x00);
 10484     1530  3000               	movlw	0
 10485     1531  1283               	bcf	3,5	;RP0=0, select bank0
 10486     1532  1303               	bcf	3,6	;RP1=0, select bank0
 10487     1533  00AA               	movwf	I2C_Master_Write@d
 10488     1534  00AB               	movwf	I2C_Master_Write@d+1
 10489     1535  160A  158A  252C  160A  118A  	fcall	_I2C_Master_Write
 10490                           
 10491                           ;main_master.c: 265:     I2C_Master_Stop();
 10492     153A  160A  158A  2523  160A  118A  	fcall	_I2C_Master_Stop
 10493     153F                     l3497:
 10494                           
 10495                           ;main_master.c: 267:     _delay((unsigned long)((10)*(8000000/4000.0)));
 10496     153F  301A               	movlw	26
 10497     1540  1283               	bcf	3,5	;RP0=0, select bank0
 10498     1541  1303               	bcf	3,6	;RP1=0, select bank0
 10499     1542  00AD               	movwf	??_AHT10_Init+1
 10500     1543  30F7               	movlw	247
 10501     1544  00AC               	movwf	??_AHT10_Init
 10502     1545                     u4967:
 10503     1545  0BAC               	decfsz	??_AHT10_Init,f
 10504     1546  2D45               	goto	u4967
 10505     1547  0BAD               	decfsz	??_AHT10_Init+1,f
 10506     1548  2D45               	goto	u4967
 10507     1549  2D4A               	nop2
 10508     154A                     l197:
 10509     154A  0008               	return
 10510     154B                     __end_of_AHT10_Init:
 10511                           
 10512                           	psect	text40
 10513     1D36                     __ptext40:	
 10514 ;; *************** function _I2C_Nack *****************
 10515 ;; Defined at:
 10516 ;;		line 93 in file "I2C.c"
 10517 ;; Parameters:    Size  Location     Type
 10518 ;;		None
 10519 ;; Auto vars:     Size  Location     Type
 10520 ;;		None
 10521 ;; Return value:  Size  Location     Type
 10522 ;;                  1    wreg      void 
 10523 ;; Registers used:
 10524 ;;		None
 10525 ;; Tracked objects:
 10526 ;;		On entry : 0/0
 10527 ;;		On exit  : 0/0
 10528 ;;		Unchanged: 0/0
 10529 ;; Data sizes:     COMMON   BANK0   BANK1   BANK3   BANK2
 10530 ;;      Params:         0       0       0       0       0
 10531 ;;      Locals:         0       0       0       0       0
 10532 ;;      Temps:          0       0       0       0       0
 10533 ;;      Totals:         0       0       0       0       0
 10534 ;;Total ram usage:        0 bytes
 10535 ;; Hardware stack levels used: 1
 10536 ;; Hardware stack levels required when called: 4
 10537 ;; This function calls:
 10538 ;;		Nothing
 10539 ;; This function is called by:
 10540 ;;		_Read
 10541 ;;		_AHT10_Init
 10542 ;;		_AHT10_Read
 10543 ;; This function uses a non-reentrant model
 10544 ;;
 10545                           
 10546     1D36                     _I2C_Nack:	
 10547                           ;psect for function _I2C_Nack
 10548                           
 10549     1D36                     l2669:	
 10550                           ;incstack = 0
 10551                           ; Regs used in _I2C_Nack: []
 10552                           
 10553                           
 10554                           ;I2C.c: 95:     SSPCON2bits.ACKDT = 1;
 10555     1D36  1683               	bsf	3,5	;RP0=1, select bank1
 10556     1D37  1303               	bcf	3,6	;RP1=0, select bank1
 10557     1D38  1691               	bsf	17,5	;volatile
 10558                           
 10559                           ;I2C.c: 96:  SSPCON2bits.ACKEN = 1;
 10560     1D39  1611               	bsf	17,4	;volatile
 10561     1D3A                     l324:	
 10562                           ;I2C.c: 97:  while(PIR1bits.SSPIF == 0);
 10563                           
 10564     1D3A  1283               	bcf	3,5	;RP0=0, select bank0
 10565     1D3B  1D8C               	btfss	12,3	;volatile
 10566     1D3C  2D3E               	goto	u2961
 10567     1D3D  2D3F               	goto	u2960
 10568     1D3E                     u2961:
 10569     1D3E  2D3A               	goto	l324
 10570     1D3F                     u2960:
 10571     1D3F                     l326:
 10572                           
 10573                           ;I2C.c: 98:     PIR1bits.SSPIF = 0;
 10574     1D3F  118C               	bcf	12,3	;volatile
 10575     1D40                     l327:
 10576     1D40  0008               	return
 10577     1D41                     __end_of_I2C_Nack:
 10578                           
 10579                           	psect	text41
 10580     1D2C                     __ptext41:	
 10581 ;; *************** function _I2C_Master_Write *****************
 10582 ;; Defined at:
 10583 ;;		line 67 in file "I2C.c"
 10584 ;; Parameters:    Size  Location     Type
 10585 ;;  d               2   10[BANK0 ] unsigned int 
 10586 ;; Auto vars:     Size  Location     Type
 10587 ;;		None
 10588 ;; Return value:  Size  Location     Type
 10589 ;;                  1    wreg      void 
 10590 ;; Registers used:
 10591 ;;		wreg, status,2, status,0, pclath, cstack
 10592 ;; Tracked objects:
 10593 ;;		On entry : 0/0
 10594 ;;		On exit  : 0/0
 10595 ;;		Unchanged: 0/0
 10596 ;; Data sizes:     COMMON   BANK0   BANK1   BANK3   BANK2
 10597 ;;      Params:         0       2       0       0       0
 10598 ;;      Locals:         0       0       0       0       0
 10599 ;;      Temps:          0       0       0       0       0
 10600 ;;      Totals:         0       2       0       0       0
 10601 ;;Total ram usage:        2 bytes
 10602 ;; Hardware stack levels used: 1
 10603 ;; Hardware stack levels required when called: 5
 10604 ;; This function calls:
 10605 ;;		_I2C_Master_Wait
 10606 ;; This function is called by:
 10607 ;;		_Read
 10608 ;;		_Set_sec
 10609 ;;		_Set_min
 10610 ;;		_Set_hour
 10611 ;;		_AHT10_Init
 10612 ;;		_AHT10_Read
 10613 ;;		_AHT10_Soft_Reset
 10614 ;;		_Slave1_Total
 10615 ;;		_Slave2
 10616 ;;		_ESP32_Write
 10617 ;;		_Slave1_Return
 10618 ;; This function uses a non-reentrant model
 10619 ;;
 10620                           
 10621     1D2C                     _I2C_Master_Write:	
 10622                           ;psect for function _I2C_Master_Write
 10623                           
 10624     1D2C                     l2651:	
 10625                           ;incstack = 0
 10626                           ; Regs used in _I2C_Master_Write: [wreg+status,2+status,0+pclath+cstack]
 10627                           
 10628                           
 10629                           ;I2C.c: 67: void I2C_Master_Write(unsigned d);I2C.c: 68: {;I2C.c: 69:     I2C_Master_Wai
      +                          t();
 10630     1D2C  160A  158A  2559  160A  158A  	fcall	_I2C_Master_Wait
 10631     1D31                     l2653:
 10632                           
 10633                           ;I2C.c: 70:     SSPBUF = d;
 10634     1D31  1283               	bcf	3,5	;RP0=0, select bank0
 10635     1D32  1303               	bcf	3,6	;RP1=0, select bank0
 10636     1D33  082A               	movf	I2C_Master_Write@d,w
 10637     1D34  0093               	movwf	19	;volatile
 10638     1D35                     l318:
 10639     1D35  0008               	return
 10640     1D36                     __end_of_I2C_Master_Write:
 10641                           
 10642                           	psect	text42
 10643     1D23                     __ptext42:	
 10644 ;; *************** function _I2C_Master_Stop *****************
 10645 ;; Defined at:
 10646 ;;		line 57 in file "I2C.c"
 10647 ;; Parameters:    Size  Location     Type
 10648 ;;		None
 10649 ;; Auto vars:     Size  Location     Type
 10650 ;;		None
 10651 ;; Return value:  Size  Location     Type
 10652 ;;                  1    wreg      void 
 10653 ;; Registers used:
 10654 ;;		wreg, status,2, status,0, pclath, cstack
 10655 ;; Tracked objects:
 10656 ;;		On entry : 0/0
 10657 ;;		On exit  : 0/0
 10658 ;;		Unchanged: 0/0
 10659 ;; Data sizes:     COMMON   BANK0   BANK1   BANK3   BANK2
 10660 ;;      Params:         0       0       0       0       0
 10661 ;;      Locals:         0       0       0       0       0
 10662 ;;      Temps:          0       0       0       0       0
 10663 ;;      Totals:         0       0       0       0       0
 10664 ;;Total ram usage:        0 bytes
 10665 ;; Hardware stack levels used: 1
 10666 ;; Hardware stack levels required when called: 5
 10667 ;; This function calls:
 10668 ;;		_I2C_Master_Wait
 10669 ;; This function is called by:
 10670 ;;		_Read
 10671 ;;		_Set_sec
 10672 ;;		_Set_min
 10673 ;;		_Set_hour
 10674 ;;		_AHT10_Init
 10675 ;;		_AHT10_Read
 10676 ;;		_AHT10_Soft_Reset
 10677 ;;		_Slave1_Total
 10678 ;;		_Slave2
 10679 ;;		_ESP32_Write
 10680 ;;		_Slave1_Return
 10681 ;; This function uses a non-reentrant model
 10682 ;;
 10683                           
 10684     1D23                     _I2C_Master_Stop:	
 10685                           ;psect for function _I2C_Master_Stop
 10686                           
 10687     1D23                     l2671:	
 10688                           ;incstack = 0
 10689                           ; Regs used in _I2C_Master_Stop: [wreg+status,2+status,0+pclath+cstack]
 10690                           
 10691                           
 10692                           ;I2C.c: 59:     I2C_Master_Wait();
 10693     1D23  160A  158A  2559  160A  158A  	fcall	_I2C_Master_Wait
 10694     1D28                     l2673:
 10695                           
 10696                           ;I2C.c: 60:     SSPCON2bits.PEN = 1;
 10697     1D28  1683               	bsf	3,5	;RP0=1, select bank1
 10698     1D29  1303               	bcf	3,6	;RP1=0, select bank1
 10699     1D2A  1511               	bsf	17,2	;volatile
 10700     1D2B                     l315:
 10701     1D2B  0008               	return
 10702     1D2C                     __end_of_I2C_Master_Stop:
 10703                           
 10704                           	psect	text43
 10705     1D1A                     __ptext43:	
 10706 ;; *************** function _I2C_Master_Start *****************
 10707 ;; Defined at:
 10708 ;;		line 39 in file "I2C.c"
 10709 ;; Parameters:    Size  Location     Type
 10710 ;;		None
 10711 ;; Auto vars:     Size  Location     Type
 10712 ;;		None
 10713 ;; Return value:  Size  Location     Type
 10714 ;;                  1    wreg      void 
 10715 ;; Registers used:
 10716 ;;		wreg, status,2, status,0, pclath, cstack
 10717 ;; Tracked objects:
 10718 ;;		On entry : 0/0
 10719 ;;		On exit  : 0/0
 10720 ;;		Unchanged: 0/0
 10721 ;; Data sizes:     COMMON   BANK0   BANK1   BANK3   BANK2
 10722 ;;      Params:         0       0       0       0       0
 10723 ;;      Locals:         0       0       0       0       0
 10724 ;;      Temps:          0       0       0       0       0
 10725 ;;      Totals:         0       0       0       0       0
 10726 ;;Total ram usage:        0 bytes
 10727 ;; Hardware stack levels used: 1
 10728 ;; Hardware stack levels required when called: 5
 10729 ;; This function calls:
 10730 ;;		_I2C_Master_Wait
 10731 ;; This function is called by:
 10732 ;;		_Read
 10733 ;;		_Set_sec
 10734 ;;		_Set_min
 10735 ;;		_Set_hour
 10736 ;;		_AHT10_Init
 10737 ;;		_AHT10_Read
 10738 ;;		_AHT10_Soft_Reset
 10739 ;;		_Slave1_Total
 10740 ;;		_Slave2
 10741 ;;		_ESP32_Write
 10742 ;;		_Slave1_Return
 10743 ;; This function uses a non-reentrant model
 10744 ;;
 10745                           
 10746     1D1A                     _I2C_Master_Start:	
 10747                           ;psect for function _I2C_Master_Start
 10748                           
 10749     1D1A                     l2647:	
 10750                           ;incstack = 0
 10751                           ; Regs used in _I2C_Master_Start: [wreg+status,2+status,0+pclath+cstack]
 10752                           
 10753                           
 10754                           ;I2C.c: 41:     I2C_Master_Wait();
 10755     1D1A  160A  158A  2559  160A  158A  	fcall	_I2C_Master_Wait
 10756     1D1F                     l2649:
 10757                           
 10758                           ;I2C.c: 42:     SSPCON2bits.SEN = 1;
 10759     1D1F  1683               	bsf	3,5	;RP0=1, select bank1
 10760     1D20  1303               	bcf	3,6	;RP1=0, select bank1
 10761     1D21  1411               	bsf	17,0	;volatile
 10762     1D22                     l306:
 10763     1D22  0008               	return
 10764     1D23                     __end_of_I2C_Master_Start:
 10765                           
 10766                           	psect	text44
 10767     1D73                     __ptext44:	
 10768 ;; *************** function _I2C_Master_RepeatedStart *****************
 10769 ;; Defined at:
 10770 ;;		line 47 in file "I2C.c"
 10771 ;; Parameters:    Size  Location     Type
 10772 ;;		None
 10773 ;; Auto vars:     Size  Location     Type
 10774 ;;		None
 10775 ;; Return value:  Size  Location     Type
 10776 ;;                  1    wreg      void 
 10777 ;; Registers used:
 10778 ;;		wreg, status,2, status,0, pclath, cstack
 10779 ;; Tracked objects:
 10780 ;;		On entry : 0/0
 10781 ;;		On exit  : 0/0
 10782 ;;		Unchanged: 0/0
 10783 ;; Data sizes:     COMMON   BANK0   BANK1   BANK3   BANK2
 10784 ;;      Params:         0       0       0       0       0
 10785 ;;      Locals:         0       0       0       0       0
 10786 ;;      Temps:          0       0       0       0       0
 10787 ;;      Totals:         0       0       0       0       0
 10788 ;;Total ram usage:        0 bytes
 10789 ;; Hardware stack levels used: 1
 10790 ;; Hardware stack levels required when called: 5
 10791 ;; This function calls:
 10792 ;;		_I2C_Master_Wait
 10793 ;; This function is called by:
 10794 ;;		_Read
 10795 ;;		_AHT10_Init
 10796 ;;		_AHT10_Read
 10797 ;; This function uses a non-reentrant model
 10798 ;;
 10799                           
 10800     1D73                     _I2C_Master_RepeatedStart:	
 10801                           ;psect for function _I2C_Master_RepeatedStart
 10802                           
 10803     1D73                     l2655:	
 10804                           ;incstack = 0
 10805                           ; Regs used in _I2C_Master_RepeatedStart: [wreg+status,2+status,0+pclath+cstack]
 10806                           
 10807                           
 10808                           ;I2C.c: 49:     I2C_Master_Wait();
 10809     1D73  160A  158A  2559  160A  158A  	fcall	_I2C_Master_Wait
 10810     1D78                     l2657:
 10811                           
 10812                           ;I2C.c: 50:     SSPCON2bits.RSEN = 1;
 10813     1D78  1683               	bsf	3,5	;RP0=1, select bank1
 10814     1D79  1303               	bcf	3,6	;RP1=0, select bank1
 10815     1D7A  1491               	bsf	17,1	;volatile
 10816     1D7B                     l309:	
 10817                           ;I2C.c: 51:     while(PIR1bits.SSPIF == 0);
 10818                           
 10819     1D7B  1283               	bcf	3,5	;RP0=0, select bank0
 10820     1D7C  1D8C               	btfss	12,3	;volatile
 10821     1D7D  2D7F               	goto	u2951
 10822     1D7E  2D80               	goto	u2950
 10823     1D7F                     u2951:
 10824     1D7F  2D7B               	goto	l309
 10825     1D80                     u2950:
 10826     1D80                     l311:
 10827                           
 10828                           ;I2C.c: 52:     PIR1bits.SSPIF = 0;
 10829     1D80  118C               	bcf	12,3	;volatile
 10830     1D81                     l312:
 10831     1D81  0008               	return
 10832     1D82                     __end_of_I2C_Master_RepeatedStart:
 10833                           
 10834                           	psect	text45
 10835     1E21                     __ptext45:	
 10836 ;; *************** function _I2C_Master_Read *****************
 10837 ;; Defined at:
 10838 ;;		line 76 in file "I2C.c"
 10839 ;; Parameters:    Size  Location     Type
 10840 ;;  a               2    0[BANK0 ] unsigned short 
 10841 ;; Auto vars:     Size  Location     Type
 10842 ;;  temp            2    4[BANK0 ] unsigned short 
 10843 ;; Return value:  Size  Location     Type
 10844 ;;                  2    0[BANK0 ] unsigned short 
 10845 ;; Registers used:
 10846 ;;		wreg, status,2, status,0, pclath, cstack
 10847 ;; Tracked objects:
 10848 ;;		On entry : 0/0
 10849 ;;		On exit  : 0/0
 10850 ;;		Unchanged: 0/0
 10851 ;; Data sizes:     COMMON   BANK0   BANK1   BANK3   BANK2
 10852 ;;      Params:         0       2       0       0       0
 10853 ;;      Locals:         0       2       0       0       0
 10854 ;;      Temps:          0       2       0       0       0
 10855 ;;      Totals:         0       6       0       0       0
 10856 ;;Total ram usage:        6 bytes
 10857 ;; Hardware stack levels used: 1
 10858 ;; Hardware stack levels required when called: 5
 10859 ;; This function calls:
 10860 ;;		_I2C_Master_Wait
 10861 ;; This function is called by:
 10862 ;;		_Read
 10863 ;;		_AHT10_Init
 10864 ;;		_AHT10_Read
 10865 ;;		_Slave1_Total
 10866 ;;		_Slave2
 10867 ;; This function uses a non-reentrant model
 10868 ;;
 10869                           
 10870     1E21                     _I2C_Master_Read:	
 10871                           ;psect for function _I2C_Master_Read
 10872                           
 10873     1E21                     l2659:	
 10874                           ;incstack = 0
 10875                           ; Regs used in _I2C_Master_Read: [wreg+status,2+status,0+pclath+cstack]
 10876                           
 10877                           
 10878                           ;I2C.c: 76: unsigned short I2C_Master_Read(unsigned short a);I2C.c: 77: {;I2C.c: 78:    
      +                           unsigned short temp;;I2C.c: 79:     I2C_Master_Wait();
 10879     1E21  160A  158A  2559  160A  158A  	fcall	_I2C_Master_Wait
 10880     1E26                     l2661:
 10881                           
 10882                           ;I2C.c: 80:     SSPCON2bits.RCEN = 1;
 10883     1E26  1683               	bsf	3,5	;RP0=1, select bank1
 10884     1E27  1303               	bcf	3,6	;RP1=0, select bank1
 10885     1E28  1591               	bsf	17,3	;volatile
 10886                           
 10887                           ;I2C.c: 81:     I2C_Master_Wait();
 10888     1E29  160A  158A  2559  160A  158A  	fcall	_I2C_Master_Wait
 10889     1E2E                     l2663:
 10890                           
 10891                           ;I2C.c: 82:     temp = SSPBUF;
 10892     1E2E  1283               	bcf	3,5	;RP0=0, select bank0
 10893     1E2F  1303               	bcf	3,6	;RP1=0, select bank0
 10894     1E30  0813               	movf	19,w	;volatile
 10895     1E31  00A2               	movwf	??_I2C_Master_Read
 10896     1E32  01A3               	clrf	??_I2C_Master_Read+1
 10897     1E33  0822               	movf	??_I2C_Master_Read,w
 10898     1E34  00A4               	movwf	I2C_Master_Read@temp
 10899     1E35  0823               	movf	??_I2C_Master_Read+1,w
 10900     1E36  00A5               	movwf	I2C_Master_Read@temp+1
 10901     1E37                     l2665:
 10902                           
 10903                           ;I2C.c: 83:     I2C_Master_Wait();
 10904     1E37  160A  158A  2559  160A  158A  	fcall	_I2C_Master_Wait
 10905                           
 10906                           ;I2C.c: 90:     return temp;
 10907     1E3C  1283               	bcf	3,5	;RP0=0, select bank0
 10908     1E3D  1303               	bcf	3,6	;RP1=0, select bank0
 10909     1E3E  0825               	movf	I2C_Master_Read@temp+1,w
 10910     1E3F  00A1               	movwf	?_I2C_Master_Read+1
 10911     1E40  0824               	movf	I2C_Master_Read@temp,w
 10912     1E41  00A0               	movwf	?_I2C_Master_Read
 10913     1E42                     l321:
 10914     1E42  0008               	return
 10915     1E43                     __end_of_I2C_Master_Read:
 10916                           
 10917                           	psect	text46
 10918     1D59                     __ptext46:	
 10919 ;; *************** function _I2C_Master_Wait *****************
 10920 ;; Defined at:
 10921 ;;		line 32 in file "I2C.c"
 10922 ;; Parameters:    Size  Location     Type
 10923 ;;		None
 10924 ;; Auto vars:     Size  Location     Type
 10925 ;;		None
 10926 ;; Return value:  Size  Location     Type
 10927 ;;                  1    wreg      void 
 10928 ;; Registers used:
 10929 ;;		wreg, status,2
 10930 ;; Tracked objects:
 10931 ;;		On entry : 0/0
 10932 ;;		On exit  : 0/0
 10933 ;;		Unchanged: 0/0
 10934 ;; Data sizes:     COMMON   BANK0   BANK1   BANK3   BANK2
 10935 ;;      Params:         0       0       0       0       0
 10936 ;;      Locals:         0       0       0       0       0
 10937 ;;      Temps:          0       0       0       0       0
 10938 ;;      Totals:         0       0       0       0       0
 10939 ;;Total ram usage:        0 bytes
 10940 ;; Hardware stack levels used: 1
 10941 ;; Hardware stack levels required when called: 4
 10942 ;; This function calls:
 10943 ;;		Nothing
 10944 ;; This function is called by:
 10945 ;;		_I2C_Master_Start
 10946 ;;		_I2C_Master_RepeatedStart
 10947 ;;		_I2C_Master_Stop
 10948 ;;		_I2C_Master_Write
 10949 ;;		_I2C_Master_Read
 10950 ;; This function uses a non-reentrant model
 10951 ;;
 10952                           
 10953     1D59                     _I2C_Master_Wait:	
 10954                           ;psect for function _I2C_Master_Wait
 10955                           
 10956     1D59                     l2435:	
 10957                           ;incstack = 0
 10958                           ; Regs used in _I2C_Master_Wait: [wreg+status,2]
 10959                           
 10960     1D59                     l300:	
 10961                           ;I2C.c: 34:     while ((SSPSTAT & 0x04) || (SSPCON2 & 0x1F));
 10962                           
 10963     1D59  1683               	bsf	3,5	;RP0=1, select bank1
 10964     1D5A  1303               	bcf	3,6	;RP1=0, select bank1
 10965     1D5B  1914               	btfsc	20,2	;volatile
 10966     1D5C  2D5E               	goto	u2441
 10967     1D5D  2D5F               	goto	u2440
 10968     1D5E                     u2441:
 10969     1D5E  2D59               	goto	l300
 10970     1D5F                     u2440:
 10971     1D5F                     l2437:
 10972     1D5F  0811               	movf	17,w	;volatile
 10973     1D60  391F               	andlw	31
 10974     1D61  1D03               	btfss	3,2
 10975     1D62  2D64               	goto	u2451
 10976     1D63  2D65               	goto	u2450
 10977     1D64                     u2451:
 10978     1D64  2D59               	goto	l300
 10979     1D65                     u2450:
 10980     1D65                     l303:
 10981     1D65  0008               	return
 10982     1D66                     __end_of_I2C_Master_Wait:
 10983                           
 10984                           	psect	text47
 10985     13D9                     __ptext47:	
 10986 ;; *************** function _isr *****************
 10987 ;; Defined at:
 10988 ;;		line 107 in file "main_master.c"
 10989 ;; Parameters:    Size  Location     Type
 10990 ;;		None
 10991 ;; Auto vars:     Size  Location     Type
 10992 ;;		None
 10993 ;; Return value:  Size  Location     Type
 10994 ;;                  1    wreg      void 
 10995 ;; Registers used:
 10996 ;;		wreg, status,2, status,0, pclath, cstack
 10997 ;; Tracked objects:
 10998 ;;		On entry : 0/0
 10999 ;;		On exit  : 0/0
 11000 ;;		Unchanged: 0/0
 11001 ;; Data sizes:     COMMON   BANK0   BANK1   BANK3   BANK2
 11002 ;;      Params:         0       0       0       0       0
 11003 ;;      Locals:         0       0       0       0       0
 11004 ;;      Temps:          5       0       0       0       0
 11005 ;;      Totals:         5       0       0       0       0
 11006 ;;Total ram usage:        5 bytes
 11007 ;; Hardware stack levels used: 1
 11008 ;; Hardware stack levels required when called: 3
 11009 ;; This function calls:
 11010 ;;		_Lcd_Clear
 11011 ;;		i1_Lcd_Init
 11012 ;; This function is called by:
 11013 ;;		Interrupt level 1
 11014 ;; This function uses a non-reentrant model
 11015 ;;
 11016                           
 11017     13D9                     _isr:	
 11018                           ;psect for function _isr
 11019                           
 11020     13D9                     i1l3739:
 11021                           
 11022                           ;main_master.c: 108:     if (INTCONbits.RBIF == 1){
 11023     13D9  1C0B               	btfss	11,0	;volatile
 11024     13DA  2BDC               	goto	u468_21
 11025     13DB  2BDD               	goto	u468_20
 11026     13DC                     u468_21:
 11027     13DC  2C2B               	goto	i1l3769
 11028     13DD                     u468_20:
 11029     13DD                     i1l3741:
 11030                           
 11031                           ;main_master.c: 109:         INTCONbits.RBIF = 0;
 11032     13DD  100B               	bcf	11,0	;volatile
 11033                           
 11034                           ;main_master.c: 110:         if (PORTBbits.RB3 == 0){
 11035     13DE  1283               	bcf	3,5	;RP0=0, select bank0
 11036     13DF  1303               	bcf	3,6	;RP1=0, select bank0
 11037     13E0  1986               	btfsc	6,3	;volatile
 11038     13E1  2BE3               	goto	u469_21
 11039     13E2  2BE4               	goto	u469_20
 11040     13E3                     u469_21:
 11041     13E3  2BF0               	goto	i1l157
 11042     13E4                     u469_20:
 11043     13E4                     i1l3743:
 11044                           
 11045                           ;main_master.c: 111:             _delay((unsigned long)((20)*(8000000/4000.0)));
 11046     13E4  3034               	movlw	52
 11047     13E5  00F7               	movwf	??_isr+1
 11048     13E6  30F1               	movlw	241
 11049     13E7  00F6               	movwf	??_isr
 11050     13E8                     u497_27:
 11051     13E8  0BF6               	decfsz	??_isr,f
 11052     13E9  2BE8               	goto	u497_27
 11053     13EA  0BF7               	decfsz	??_isr+1,f
 11054     13EB  2BE8               	goto	u497_27
 11055     13EC  2BED               	nop2
 11056     13ED                     i1l3745:
 11057                           
 11058                           ;main_master.c: 112:             bandera = 1;
 11059     13ED  01FD               	clrf	_bandera
 11060     13EE  0AFD               	incf	_bandera,f
 11061                           
 11062                           ;main_master.c: 113:         }
 11063     13EF  2C2B               	goto	i1l3769
 11064     13F0                     i1l157:	
 11065                           ;main_master.c: 114:         else if ((PORTBbits.RB3 == 1) && (bandera == 1)){
 11066                           
 11067     13F0  1D86               	btfss	6,3	;volatile
 11068     13F1  2BF3               	goto	u470_21
 11069     13F2  2BF4               	goto	u470_20
 11070     13F3                     u470_21:
 11071     13F3  2C2B               	goto	i1l3769
 11072     13F4                     u470_20:
 11073     13F4                     i1l3747:
 11074     13F4  037D               	decf	_bandera,w
 11075     13F5  1D03               	btfss	3,2
 11076     13F6  2BF8               	goto	u471_21
 11077     13F7  2BF9               	goto	u471_20
 11078     13F8                     u471_21:
 11079     13F8  2C2B               	goto	i1l3769
 11080     13F9                     u471_20:
 11081     13F9                     i1l3749:
 11082                           
 11083                           ;main_master.c: 116:             if (pantalla == 0){
 11084     13F9  1683               	bsf	3,5	;RP0=1, select bank1
 11085     13FA  1303               	bcf	3,6	;RP1=0, select bank1
 11086     13FB  0858               	movf	_pantalla^(0+128),w
 11087     13FC  1D03               	btfss	3,2
 11088     13FD  2BFF               	goto	u472_21
 11089     13FE  2C00               	goto	u472_20
 11090     13FF                     u472_21:
 11091     13FF  2C19               	goto	i1l3757
 11092     1400                     u472_20:
 11093     1400                     i1l3751:
 11094                           
 11095                           ;main_master.c: 117:                 pantalla = 1;
 11096     1400  01D8               	clrf	_pantalla^(0+128)
 11097     1401  0AD8               	incf	_pantalla^(0+128),f
 11098     1402                     i1l3753:
 11099                           
 11100                           ;main_master.c: 118:                 Lcd_Clear();
 11101     1402  160A  158A  254C  160A  118A  	fcall	_Lcd_Clear
 11102                           
 11103                           ;main_master.c: 119:                 Lcd_Init();
 11104     1407  160A  118A  22AE  160A  118A  	fcall	i1_Lcd_Init
 11105     140C                     i1l3755:
 11106                           
 11107                           ;main_master.c: 120:                 _delay((unsigned long)((400)*(8000000/4000.0)));
 11108     140C  3005               	movlw	5
 11109     140D  00F8               	movwf	??_isr+2
 11110     140E  300F               	movlw	15
 11111     140F  00F7               	movwf	??_isr+1
 11112     1410  30F1               	movlw	241
 11113     1411  00F6               	movwf	??_isr
 11114     1412                     u498_27:
 11115     1412  0BF6               	decfsz	??_isr,f
 11116     1413  2C12               	goto	u498_27
 11117     1414  0BF7               	decfsz	??_isr+1,f
 11118     1415  2C12               	goto	u498_27
 11119     1416  0BF8               	decfsz	??_isr+2,f
 11120     1417  2C12               	goto	u498_27
 11121                           
 11122                           ;main_master.c: 121:             }
 11123     1418  2C2A               	goto	i1l3767
 11124     1419                     i1l3757:
 11125     1419  0358               	decf	_pantalla^(0+128),w
 11126     141A  1D03               	btfss	3,2
 11127     141B  2C1D               	goto	u473_21
 11128     141C  2C1E               	goto	u473_20
 11129     141D                     u473_21:
 11130     141D  2C2A               	goto	i1l3767
 11131     141E                     u473_20:
 11132     141E                     i1l3759:
 11133                           
 11134                           ;main_master.c: 123:                 pantalla = 0;
 11135     141E  01D8               	clrf	_pantalla^(0+128)
 11136     141F                     i1l3761:
 11137                           
 11138                           ;main_master.c: 124:                 Lcd_Clear();
 11139     141F  160A  158A  254C  160A  118A  	fcall	_Lcd_Clear
 11140     1424                     i1l3763:
 11141                           
 11142                           ;main_master.c: 125:                 Lcd_Init();
 11143     1424  160A  118A  22AE  160A  118A  	fcall	i1_Lcd_Init
 11144     1429  2C0C               	goto	i1l3755
 11145     142A                     i1l3767:
 11146                           
 11147                           ;main_master.c: 128:             bandera = 0;
 11148     142A  01FD               	clrf	_bandera
 11149     142B                     i1l3769:
 11150                           
 11151                           ;main_master.c: 131:     if (INTCONbits.T0IF == 1){
 11152     142B  1D0B               	btfss	11,2	;volatile
 11153     142C  2C2E               	goto	u474_21
 11154     142D  2C2F               	goto	u474_20
 11155     142E                     u474_21:
 11156     142E  2C41               	goto	i1l165
 11157     142F                     u474_20:
 11158     142F                     i1l3771:
 11159                           
 11160                           ;main_master.c: 132:         time++;
 11161     142F  3001               	movlw	1
 11162     1430  00F6               	movwf	??_isr
 11163     1431  0876               	movf	??_isr,w
 11164     1432  07FB               	addwf	_time,f
 11165                           
 11166                           ;main_master.c: 133:         if (time == 175){
 11167     1433  30AF               	movlw	175
 11168     1434  067B               	xorwf	_time,w
 11169     1435  1D03               	btfss	3,2
 11170     1436  2C38               	goto	u475_21
 11171     1437  2C39               	goto	u475_20
 11172     1438                     u475_21:
 11173     1438  2C3C               	goto	i1l3777
 11174     1439                     u475_20:
 11175     1439                     i1l3773:
 11176                           
 11177                           ;main_master.c: 134:             det = 0;
 11178     1439  01FC               	clrf	_det
 11179                           
 11180                           ;main_master.c: 135:             time = 0;
 11181     143A  01FB               	clrf	_time
 11182     143B                     i1l3775:
 11183                           
 11184                           ;main_master.c: 136:             INTCONbits.T0IE = 0;
 11185     143B  128B               	bcf	11,5	;volatile
 11186     143C                     i1l3777:
 11187                           
 11188                           ;main_master.c: 138:         INTCONbits.T0IF = 0;
 11189     143C  110B               	bcf	11,2	;volatile
 11190     143D                     i1l3779:
 11191                           
 11192                           ;main_master.c: 139:         TMR0 = 100;
 11193     143D  3064               	movlw	100
 11194     143E  1283               	bcf	3,5	;RP0=0, select bank0
 11195     143F  1303               	bcf	3,6	;RP1=0, select bank0
 11196     1440  0081               	movwf	1	;volatile
 11197     1441                     i1l165:
 11198     1441  087A               	movf	??_isr+4,w
 11199     1442  008A               	movwf	10
 11200     1443  0E79               	swapf	??_isr+3,w
 11201     1444  0083               	movwf	3
 11202     1445  0EFE               	swapf	btemp,f
 11203     1446  0E7E               	swapf	btemp,w
 11204     1447  0009               	retfie
 11205     1448                     __end_of_isr:
 11206                           
 11207                           	psect	intentry
 11208     0004                     __pintentry:	
 11209                           ;incstack = 0
 11210                           ; Regs used in _isr: [wreg+status,2+status,0+pclath+cstack]
 11211                           
 11212     0004                     interrupt_function:
 11213     007E                     saved_w	set	btemp
 11214     0004  00FE               	movwf	btemp
 11215     0005  0E03               	swapf	3,w
 11216     0006  00F9               	movwf	??_isr+3
 11217     0007  080A               	movf	10,w
 11218     0008  00FA               	movwf	??_isr+4
 11219     0009  160A  118A  2BD9   	ljmp	_isr
 11220                           
 11221                           	psect	text48
 11222     12AE                     __ptext48:	
 11223 ;; *************** function i1_Lcd_Init *****************
 11224 ;; Defined at:
 11225 ;;		line 65 in file "LCD.c"
 11226 ;; Parameters:    Size  Location     Type
 11227 ;;		None
 11228 ;; Auto vars:     Size  Location     Type
 11229 ;;		None
 11230 ;; Return value:  Size  Location     Type
 11231 ;;                  1    wreg      void 
 11232 ;; Registers used:
 11233 ;;		wreg, status,2, status,0, pclath, cstack
 11234 ;; Tracked objects:
 11235 ;;		On entry : 0/0
 11236 ;;		On exit  : 0/0
 11237 ;;		Unchanged: 0/0
 11238 ;; Data sizes:     COMMON   BANK0   BANK1   BANK3   BANK2
 11239 ;;      Params:         0       0       0       0       0
 11240 ;;      Locals:         0       0       0       0       0
 11241 ;;      Temps:          2       0       0       0       0
 11242 ;;      Totals:         2       0       0       0       0
 11243 ;;Total ram usage:        2 bytes
 11244 ;; Hardware stack levels used: 1
 11245 ;; Hardware stack levels required when called: 2
 11246 ;; This function calls:
 11247 ;;		i1_Lcd_Cmd
 11248 ;;		i1_Lcd_Port
 11249 ;; This function is called by:
 11250 ;;		_isr
 11251 ;; This function uses a non-reentrant model
 11252 ;;
 11253                           
 11254     12AE                     i1_Lcd_Init:	
 11255                           ;psect for function i1_Lcd_Init
 11256                           
 11257     12AE                     i1l3683:	
 11258                           ;incstack = 0
 11259                           ; Regs used in i1_Lcd_Init: [wreg+status,2+status,0+pclath+cstack]
 11260                           
 11261                           
 11262                           ;LCD.c: 66:     Lcd_Port(0x00);
 11263     12AE  3000               	movlw	0
 11264     12AF  160A  158A  25FF  160A  118A  	fcall	i1_Lcd_Port
 11265     12B4                     i1l3685:
 11266                           
 11267                           ;LCD.c: 67:     _delay((unsigned long)((20)*(8000000/4000.0)));
 11268     12B4  3034               	movlw	52
 11269     12B5  00F5               	movwf	??i1_Lcd_Init+1
 11270     12B6  30F1               	movlw	241
 11271     12B7  00F4               	movwf	??i1_Lcd_Init
 11272     12B8                     u499_27:
 11273     12B8  0BF4               	decfsz	??i1_Lcd_Init,f
 11274     12B9  2AB8               	goto	u499_27
 11275     12BA  0BF5               	decfsz	??i1_Lcd_Init+1,f
 11276     12BB  2AB8               	goto	u499_27
 11277     12BC  2ABD               	nop2
 11278     12BD                     i1l3687:
 11279                           
 11280                           ;LCD.c: 68:     Lcd_Cmd(0x03);
 11281     12BD  3003               	movlw	3
 11282     12BE  120A  158A  2001  160A  118A  	fcall	i1_Lcd_Cmd
 11283                           
 11284                           ;LCD.c: 69:     _delay((unsigned long)((5)*(8000000/4000.0)));
 11285     12C3  300D               	movlw	13
 11286     12C4  00F5               	movwf	??i1_Lcd_Init+1
 11287     12C5  30FB               	movlw	251
 11288     12C6  00F4               	movwf	??i1_Lcd_Init
 11289     12C7                     u500_27:
 11290     12C7  0BF4               	decfsz	??i1_Lcd_Init,f
 11291     12C8  2AC7               	goto	u500_27
 11292     12C9  0BF5               	decfsz	??i1_Lcd_Init+1,f
 11293     12CA  2AC7               	goto	u500_27
 11294     12CB  2ACC               	nop2
 11295     12CC                     i1l3689:
 11296                           
 11297                           ;LCD.c: 70:     Lcd_Cmd(0x03);
 11298     12CC  3003               	movlw	3
 11299     12CD  120A  158A  2001  160A  118A  	fcall	i1_Lcd_Cmd
 11300     12D2                     i1l3691:
 11301                           
 11302                           ;LCD.c: 71:     _delay((unsigned long)((200)*(8000000/4000000.0)));
 11303     12D2  3085               	movlw	133
 11304     12D3  00F4               	movwf	??i1_Lcd_Init
 11305     12D4                     u501_27:
 11306     12D4  0BF4               	decfsz	??i1_Lcd_Init,f
 11307     12D5  2AD4               	goto	u501_27
 11308                           
 11309                           ;LCD.c: 72:     Lcd_Cmd(0x03);
 11310     12D6  3003               	movlw	3
 11311     12D7  120A  158A  2001  160A  118A  	fcall	i1_Lcd_Cmd
 11312                           
 11313                           ;LCD.c: 73:     Lcd_Cmd(0x02);
 11314     12DC  3002               	movlw	2
 11315     12DD  120A  158A  2001  160A  118A  	fcall	i1_Lcd_Cmd
 11316                           
 11317                           ;LCD.c: 74:     Lcd_Cmd(0x02);
 11318     12E2  3002               	movlw	2
 11319     12E3  120A  158A  2001  160A  118A  	fcall	i1_Lcd_Cmd
 11320                           
 11321                           ;LCD.c: 75:     Lcd_Cmd(0x08);
 11322     12E8  3008               	movlw	8
 11323     12E9  120A  158A  2001  160A  118A  	fcall	i1_Lcd_Cmd
 11324                           
 11325                           ;LCD.c: 76:     Lcd_Cmd(0x00);
 11326     12EE  3000               	movlw	0
 11327     12EF  120A  158A  2001  160A  118A  	fcall	i1_Lcd_Cmd
 11328                           
 11329                           ;LCD.c: 77:     Lcd_Cmd(0x0C);
 11330     12F4  300C               	movlw	12
 11331     12F5  120A  158A  2001  160A  118A  	fcall	i1_Lcd_Cmd
 11332                           
 11333                           ;LCD.c: 78:     Lcd_Cmd(0x00);
 11334     12FA  3000               	movlw	0
 11335     12FB  120A  158A  2001  160A  118A  	fcall	i1_Lcd_Cmd
 11336                           
 11337                           ;LCD.c: 79:     Lcd_Cmd(0x06);
 11338     1300  3006               	movlw	6
 11339     1301  120A  158A  2001  160A  118A  	fcall	i1_Lcd_Cmd
 11340     1306                     i1l3693:
 11341                           
 11342                           ;LCD.c: 80:  _delay((unsigned long)((100)*(8000000/4000000.0)));
 11343     1306  3042               	movlw	66
 11344     1307  00F4               	movwf	??i1_Lcd_Init
 11345     1308                     u502_27:
 11346     1308  0BF4               	decfsz	??i1_Lcd_Init,f
 11347     1309  2B08               	goto	u502_27
 11348     130A  0000               	nop
 11349     130B                     i1l251:
 11350     130B  0008               	return
 11351     130C                     __end_ofi1_Lcd_Init:
 11352                           
 11353                           	psect	text49
 11354     1D4C                     __ptext49:	
 11355 ;; *************** function _Lcd_Clear *****************
 11356 ;; Defined at:
 11357 ;;		line 43 in file "LCD.c"
 11358 ;; Parameters:    Size  Location     Type
 11359 ;;		None
 11360 ;; Auto vars:     Size  Location     Type
 11361 ;;		None
 11362 ;; Return value:  Size  Location     Type
 11363 ;;                  1    wreg      void 
 11364 ;; Registers used:
 11365 ;;		wreg, status,2, status,0, pclath, cstack
 11366 ;; Tracked objects:
 11367 ;;		On entry : 0/0
 11368 ;;		On exit  : 0/0
 11369 ;;		Unchanged: 0/0
 11370 ;; Data sizes:     COMMON   BANK0   BANK1   BANK3   BANK2
 11371 ;;      Params:         0       0       0       0       0
 11372 ;;      Locals:         0       0       0       0       0
 11373 ;;      Temps:          0       0       0       0       0
 11374 ;;      Totals:         0       0       0       0       0
 11375 ;;Total ram usage:        0 bytes
 11376 ;; Hardware stack levels used: 1
 11377 ;; Hardware stack levels required when called: 2
 11378 ;; This function calls:
 11379 ;;		i1_Lcd_Cmd
 11380 ;; This function is called by:
 11381 ;;		_isr
 11382 ;; This function uses a non-reentrant model
 11383 ;;
 11384                           
 11385     1D4C                     _Lcd_Clear:	
 11386                           ;psect for function _Lcd_Clear
 11387                           
 11388     1D4C                     i1l3681:	
 11389                           ;incstack = 0
 11390                           ; Regs used in _Lcd_Clear: [wreg+status,2+status,0+pclath+cstack]
 11391                           
 11392                           
 11393                           ;LCD.c: 44:     Lcd_Cmd(0);
 11394     1D4C  3000               	movlw	0
 11395     1D4D  120A  158A  2001  160A  158A  	fcall	i1_Lcd_Cmd
 11396                           
 11397                           ;LCD.c: 45:     Lcd_Cmd(1);
 11398     1D52  3001               	movlw	1
 11399     1D53  120A  158A  2001  160A  158A  	fcall	i1_Lcd_Cmd
 11400     1D58                     i1l242:
 11401     1D58  0008               	return
 11402     1D59                     __end_of_Lcd_Clear:
 11403                           
 11404                           	psect	text50
 11405     0801                     __ptext50:	
 11406 ;; *************** function i1_Lcd_Cmd *****************
 11407 ;; Defined at:
 11408 ;;		line 35 in file "LCD.c"
 11409 ;; Parameters:    Size  Location     Type
 11410 ;;  a               1    wreg     unsigned char 
 11411 ;; Auto vars:     Size  Location     Type
 11412 ;;  a               1    3[COMMON] unsigned char 
 11413 ;; Return value:  Size  Location     Type
 11414 ;;                  1    wreg      void 
 11415 ;; Registers used:
 11416 ;;		wreg, status,2, status,0, pclath, cstack
 11417 ;; Tracked objects:
 11418 ;;		On entry : 0/0
 11419 ;;		On exit  : 0/0
 11420 ;;		Unchanged: 0/0
 11421 ;; Data sizes:     COMMON   BANK0   BANK1   BANK3   BANK2
 11422 ;;      Params:         0       0       0       0       0
 11423 ;;      Locals:         1       0       0       0       0
 11424 ;;      Temps:          2       0       0       0       0
 11425 ;;      Totals:         3       0       0       0       0
 11426 ;;Total ram usage:        3 bytes
 11427 ;; Hardware stack levels used: 1
 11428 ;; Hardware stack levels required when called: 1
 11429 ;; This function calls:
 11430 ;;		i1_Lcd_Port
 11431 ;; This function is called by:
 11432 ;;		_Lcd_Clear
 11433 ;;		i1_Lcd_Init
 11434 ;; This function uses a non-reentrant model
 11435 ;;
 11436                           
 11437     0801                     i1_Lcd_Cmd:	
 11438                           ;psect for function i1_Lcd_Cmd
 11439                           
 11440                           
 11441                           ;incstack = 0
 11442                           ; Regs used in i1_Lcd_Cmd: [wreg+status,2+status,0+pclath+cstack]
 11443                           ;i1Lcd_Cmd@a stored from wreg
 11444     0801  00F3               	movwf	i1Lcd_Cmd@a
 11445     0802                     i1l3397:
 11446                           
 11447                           ;LCD.c: 36:     PORTDbits.RD6 = 0;
 11448     0802  1283               	bcf	3,5	;RP0=0, select bank0
 11449     0803  1303               	bcf	3,6	;RP1=0, select bank0
 11450     0804  1308               	bcf	8,6	;volatile
 11451     0805                     i1l3399:
 11452                           
 11453                           ;LCD.c: 37:     Lcd_Port(a);
 11454     0805  0873               	movf	i1Lcd_Cmd@a,w
 11455     0806  160A  158A  25FF  120A  158A  	fcall	i1_Lcd_Port
 11456     080B                     i1l3401:
 11457                           
 11458                           ;LCD.c: 38:     PORTDbits.RD7 = 1;
 11459     080B  1283               	bcf	3,5	;RP0=0, select bank0
 11460     080C  1303               	bcf	3,6	;RP1=0, select bank0
 11461     080D  1788               	bsf	8,7	;volatile
 11462     080E                     i1l3403:
 11463                           
 11464                           ;LCD.c: 39:     _delay((unsigned long)((4)*(8000000/4000.0)));
 11465     080E  300B               	movlw	11
 11466     080F  00F2               	movwf	??i1_Lcd_Cmd+1
 11467     0810  3062               	movlw	98
 11468     0811  00F1               	movwf	??i1_Lcd_Cmd
 11469     0812                     u503_27:
 11470     0812  0BF1               	decfsz	??i1_Lcd_Cmd,f
 11471     0813  2812               	goto	u503_27
 11472     0814  0BF2               	decfsz	??i1_Lcd_Cmd+1,f
 11473     0815  2812               	goto	u503_27
 11474     0816  0000               	nop
 11475     0817                     i1l3405:
 11476                           
 11477                           ;LCD.c: 40:     PORTDbits.RD7 = 0;
 11478     0817  1283               	bcf	3,5	;RP0=0, select bank0
 11479     0818  1303               	bcf	3,6	;RP1=0, select bank0
 11480     0819  1388               	bcf	8,7	;volatile
 11481     081A                     i1l239:
 11482     081A  0008               	return
 11483     081B                     __end_ofi1_Lcd_Cmd:
 11484                           
 11485                           	psect	text51
 11486     1DFF                     __ptext51:	
 11487 ;; *************** function i1_Lcd_Port *****************
 11488 ;; Defined at:
 11489 ;;		line 13 in file "LCD.c"
 11490 ;; Parameters:    Size  Location     Type
 11491 ;;  a               1    wreg     unsigned char 
 11492 ;; Auto vars:     Size  Location     Type
 11493 ;;  a               1    0[COMMON] unsigned char 
 11494 ;; Return value:  Size  Location     Type
 11495 ;;                  1    wreg      void 
 11496 ;; Registers used:
 11497 ;;		wreg
 11498 ;; Tracked objects:
 11499 ;;		On entry : 0/0
 11500 ;;		On exit  : 0/0
 11501 ;;		Unchanged: 0/0
 11502 ;; Data sizes:     COMMON   BANK0   BANK1   BANK3   BANK2
 11503 ;;      Params:         0       0       0       0       0
 11504 ;;      Locals:         1       0       0       0       0
 11505 ;;      Temps:          0       0       0       0       0
 11506 ;;      Totals:         1       0       0       0       0
 11507 ;;Total ram usage:        1 bytes
 11508 ;; Hardware stack levels used: 1
 11509 ;; This function calls:
 11510 ;;		Nothing
 11511 ;; This function is called by:
 11512 ;;		i1_Lcd_Cmd
 11513 ;;		i1_Lcd_Init
 11514 ;; This function uses a non-reentrant model
 11515 ;;
 11516                           
 11517     1DFF                     i1_Lcd_Port:	
 11518                           ;psect for function i1_Lcd_Port
 11519                           
 11520                           
 11521                           ;incstack = 0
 11522                           ; Regs used in i1_Lcd_Port: [wreg]
 11523                           ;i1Lcd_Port@a stored from wreg
 11524     1DFF  00F0               	movwf	i1Lcd_Port@a
 11525     1E00                     i1l3139:
 11526                           
 11527                           ;LCD.c: 14:     if (a & 1)
 11528     1E00  1C70               	btfss	i1Lcd_Port@a,0
 11529     1E01  2E03               	goto	u405_21
 11530     1E02  2E04               	goto	u405_20
 11531     1E03                     u405_21:
 11532     1E03  2E08               	goto	i1l228
 11533     1E04                     u405_20:
 11534     1E04                     i1l3141:
 11535                           
 11536                           ;LCD.c: 15:         PORTBbits.RB4 = 1;
 11537     1E04  1283               	bcf	3,5	;RP0=0, select bank0
 11538     1E05  1303               	bcf	3,6	;RP1=0, select bank0
 11539     1E06  1606               	bsf	6,4	;volatile
 11540     1E07  2E0B               	goto	i1l229
 11541     1E08                     i1l228:	
 11542                           ;LCD.c: 16:     else
 11543                           
 11544                           
 11545                           ;LCD.c: 17:         PORTBbits.RB4 = 0;
 11546     1E08  1283               	bcf	3,5	;RP0=0, select bank0
 11547     1E09  1303               	bcf	3,6	;RP1=0, select bank0
 11548     1E0A  1206               	bcf	6,4	;volatile
 11549     1E0B                     i1l229:
 11550                           
 11551                           ;LCD.c: 19:     if (a & 2)
 11552     1E0B  1CF0               	btfss	i1Lcd_Port@a,1
 11553     1E0C  2E0E               	goto	u406_21
 11554     1E0D  2E0F               	goto	u406_20
 11555     1E0E                     u406_21:
 11556     1E0E  2E11               	goto	i1l230
 11557     1E0F                     u406_20:
 11558     1E0F                     i1l3143:
 11559                           
 11560                           ;LCD.c: 20:         PORTBbits.RB5 = 1;
 11561     1E0F  1686               	bsf	6,5	;volatile
 11562     1E10  2E12               	goto	i1l231
 11563     1E11                     i1l230:	
 11564                           ;LCD.c: 21:     else
 11565                           
 11566                           
 11567                           ;LCD.c: 22:         PORTBbits.RB5 = 0;
 11568     1E11  1286               	bcf	6,5	;volatile
 11569     1E12                     i1l231:
 11570                           
 11571                           ;LCD.c: 24:     if (a & 4)
 11572     1E12  1D70               	btfss	i1Lcd_Port@a,2
 11573     1E13  2E15               	goto	u407_21
 11574     1E14  2E16               	goto	u407_20
 11575     1E15                     u407_21:
 11576     1E15  2E18               	goto	i1l232
 11577     1E16                     u407_20:
 11578     1E16                     i1l3145:
 11579                           
 11580                           ;LCD.c: 25:         PORTBbits.RB6 = 1;
 11581     1E16  1706               	bsf	6,6	;volatile
 11582     1E17  2E19               	goto	i1l233
 11583     1E18                     i1l232:	
 11584                           ;LCD.c: 26:     else
 11585                           
 11586                           
 11587                           ;LCD.c: 27:         PORTBbits.RB6 = 0;
 11588     1E18  1306               	bcf	6,6	;volatile
 11589     1E19                     i1l233:
 11590                           
 11591                           ;LCD.c: 29:     if (a & 8)
 11592     1E19  1DF0               	btfss	i1Lcd_Port@a,3
 11593     1E1A  2E1C               	goto	u408_21
 11594     1E1B  2E1D               	goto	u408_20
 11595     1E1C                     u408_21:
 11596     1E1C  2E1F               	goto	i1l234
 11597     1E1D                     u408_20:
 11598     1E1D                     i1l3147:
 11599                           
 11600                           ;LCD.c: 30:         PORTBbits.RB7 = 1;
 11601     1E1D  1786               	bsf	6,7	;volatile
 11602     1E1E  2E20               	goto	i1l236
 11603     1E1F                     i1l234:	
 11604                           ;LCD.c: 31:     else
 11605                           
 11606                           
 11607                           ;LCD.c: 32:         PORTBbits.RB7 = 0;
 11608     1E1F  1386               	bcf	6,7	;volatile
 11609     1E20                     i1l236:
 11610     1E20  0008               	return
 11611     1E21                     __end_ofi1_Lcd_Port:
 11612     007E                     btemp	set	126	;btemp
 11613     007E                     wtemp0	set	126
 11614                           
 11615                           	psect	idloc
 11616                           
 11617                           ;Config register IDLOC0 @ 0x2000
 11618                           ;	unspecified, using default values
 11619     2000                     	org	8192
 11620     2000  3FFF               	dw	16383
 11621                           
 11622                           ;Config register IDLOC1 @ 0x2001
 11623                           ;	unspecified, using default values
 11624     2001                     	org	8193
 11625     2001  3FFF               	dw	16383
 11626                           
 11627                           ;Config register IDLOC2 @ 0x2002
 11628                           ;	unspecified, using default values
 11629     2002                     	org	8194
 11630     2002  3FFF               	dw	16383
 11631                           
 11632                           ;Config register IDLOC3 @ 0x2003
 11633                           ;	unspecified, using default values
 11634     2003                     	org	8195
 11635     2003  3FFF               	dw	16383
 11636                           
 11637                           	psect	config
 11638                           
 11639                           ;Config register CONFIG1 @ 0x2007
 11640                           ;	Oscillator Selection bits
 11641                           ;	FOSC = INTRC_NOCLKOUT, INTOSCIO oscillator: I/O function on RA6/OSC2/CLKOUT pin, I/O f
      +                          unction on RA7/OSC1/CLKIN
 11642                           ;	Watchdog Timer Enable bit
 11643                           ;	WDTE = OFF, WDT disabled and can be enabled by SWDTEN bit of the WDTCON register
 11644                           ;	Power-up Timer Enable bit
 11645                           ;	PWRTE = OFF, PWRT disabled
 11646                           ;	RE3/MCLR pin function select bit
 11647                           ;	MCLRE = OFF, RE3/MCLR pin function is digital input, MCLR internally tied to VDD
 11648                           ;	Code Protection bit
 11649                           ;	CP = OFF, Program memory code protection is disabled
 11650                           ;	Data Code Protection bit
 11651                           ;	CPD = OFF, Data memory code protection is disabled
 11652                           ;	Brown Out Reset Selection bits
 11653                           ;	BOREN = OFF, BOR disabled
 11654                           ;	Internal External Switchover bit
 11655                           ;	IESO = OFF, Internal/External Switchover mode is disabled
 11656                           ;	Fail-Safe Clock Monitor Enabled bit
 11657                           ;	FCMEN = OFF, Fail-Safe Clock Monitor is disabled
 11658                           ;	Low Voltage Programming Enable bit
 11659                           ;	LVP = OFF, RB3 pin has digital I/O, HV on MCLR must be used for programming
 11660                           ;	In-Circuit Debugger Mode bit
 11661                           ;	DEBUG = 0x1, unprogramme 11662     2007                     	org	8199
 11663     2007  20D4               	dw	8404
 11664                           
 11665                           ;Config register CONFIG2 @ 0x2008
 11666                           ;	Brown-out Reset Selection bit
 11667                           ;	BOR4V = BOR40V, Brown-out Reset set to 4.0V
 11668                           ;	Flash Program Memory Self Write Enable bits
 11669                           ;	WRT = OFF, Write protection off
 11670     2008                     	org	8200
 11671     2008  3FFF               	dw	16383

Data Sizes:
    Strings     18
    Constant    10
    Data        0
    BSS         143
    Persistent  0
    Stack       0

Auto Spaces:
    Space          Size  Autos    Used
    COMMON           14     11      14
    BANK0            80     80      80
    BANK1            80     46      60
    BANK3            96      0      78
    BANK2            96      0      48

Pointer List with Targets:

    sprintf@f	PTR const unsigned char  size(1) Largest target is 15
		 -> STR_3(CODE[5]), STR_2(CODE[15]), 

    sprintf@sp	PTR unsigned char  size(1) Largest target is 30
		 -> buffer(BANK3[30]), 

    sprintf@ap	PTR void [1] size(1) Largest target is 2
		 -> ?_sprintf(BANK0[2]), 

    Lcd_Write_String@a	PTR unsigned char  size(2) Largest target is 48
		 -> buffer3(BANK2[48]), STR_4(CODE[3]), buffer(BANK3[30]), buffer2(BANK3[48]), 
		 -> STR_1(CODE[3]), 

    Read_Time@h	PTR unsigned char  size(1) Largest target is 1
		 -> horas(BANK1[1]), 

    Read_Time@m	PTR unsigned char  size(1) Largest target is 1
		 -> minutos(BANK1[1]), 

    Read_Time@s	PTR unsigned char  size(1) Largest target is 1
		 -> segundos(BANK1[1]), 

    floattostr@cadena_	PTR unsigned char  size(1) Largest target is 48
		 -> buffer3(BANK2[48]), buffer2(BANK3[48]), 


Critical Paths under _main in COMMON

    None.

Critical Paths under _isr in COMMON

    _isr->i1_Lcd_Init
    i1_Lcd_Init->i1_Lcd_Cmd
    _Lcd_Clear->i1_Lcd_Cmd
    i1_Lcd_Cmd->i1_Lcd_Port

Critical Paths under _main in BANK0

    _sprintf->___lwmod
    ___lwmod->___lwdiv
    _setup->_I2C_Master_Init
    _I2C_Master_Init->___lldiv
    _Slave2->___xxtofl
    _Slave1_Total->_I2C_Master_Write
    _Set_sec->_I2C_Master_Write
    _Set_min->_I2C_Master_Write
    _Set_hour->_I2C_Master_Write
    _Read_Time->_Read
    _Read->_I2C_Master_Write
    _Bcd_to_Dec->___bmul
    _Lcd_Init->_Lcd_Cmd
    _ESP32_Write->_I2C_Master_Write
    _AHT10_Soft_Reset->_I2C_Master_Write
    _floattostr->___flsub
    ___xxtofl->_I2C_Master_Read
    ___flsub->___fladd
    ___fladd->___flmul
    ___flmul->___fldiv
    _Lcd_Write_String->_Lcd_Write_Char
    _Lcd_Write_Char->_Lcd_Port
    _Lcd_Set_Cursor->_Lcd_Cmd
    _Lcd_Cmd->_Lcd_Port
    _AHT10_Init->_I2C_Master_Write
    _I2C_Master_Write->___fltol

Critical Paths under _isr in BANK0

    None.

Critical Paths under _main in BANK1

    _main->_AHT10_Read
    _AHT10_Read->_floattostr

Critical Paths under _isr in BANK1

    None.

Critical Paths under _main in BANK3

    None.

Critical Paths under _isr in BANK3

    None.

Critical Paths under _main in BANK2

    None.

Critical Paths under _isr in BANK2

    None.

Call Graph Tables:

 ---------------------------------------------------------------------------------
 (Depth) Function   	        Calls       Base Space   Used Autos Params    Refs
 ---------------------------------------------------------------------------------
 (0) _main                                                 6     6      0   75830
                                             40 BANK1      6     6      0
                         _AHT10_Init
                         _AHT10_Read
                   _AHT10_Soft_Reset
                        _ESP32_Write
                           _Lcd_Init
                     _Lcd_Set_Cursor
                   _Lcd_Write_String
                          _Read_Time
                           _Set_hour
                            _Set_min
                            _Set_sec
                       _Slave1_Total
                             _Slave2
                         _floattostr
                              _setup
                            _sprintf
 ---------------------------------------------------------------------------------
 (1) _sprintf                                             27    20      7    1883
                                             14 BANK0     19    12      7
                            ___lwdiv
                            ___lwmod
                             ___wmul
                            _isdigit
 ---------------------------------------------------------------------------------
 (2) _isdigit                                              2     2      0      68
                                              0 BANK0      2     2      0
 ---------------------------------------------------------------------------------
 (2) ___wmul                                               6     2      4     244
                                              0 BANK0      6     2      4
 ---------------------------------------------------------------------------------
 (2) ___lwmod                                              6     2      4     311
                                              8 BANK0      6     2      4
                            ___lwdiv (ARG)
 ---------------------------------------------------------------------------------
 (2) ___lwdiv                                              8     4      4     314
                                              0 BANK0      8     4      4
 ---------------------------------------------------------------------------------
 (1) _setup                                                0     0      0     412
                    _I2C_Master_Init
 ---------------------------------------------------------------------------------
 (2) _I2C_Master_Init                                      8     4      4     412
                                             14 BANK0      8     4      4
                            ___lldiv
 ---------------------------------------------------------------------------------
 (3) ___lldiv                                             14     6      8     314
                                              0 BANK0     14     6      8
 ---------------------------------------------------------------------------------
 (1) _Slave2                                               4     4      0    4471
                                             20 BANK0      4     4      0
                    _I2C_Master_Read
                   _I2C_Master_Start
                    _I2C_Master_Stop
                   _I2C_Master_Write
                           ___xxtofl
 ---------------------------------------------------------------------------------
 (1) _Slave1_Total                                         2     2      0    3845
                                             12 BANK0      2     2      0
                    _I2C_Master_Read
                   _I2C_Master_Start
                    _I2C_Master_Stop
                   _I2C_Master_Write
 ---------------------------------------------------------------------------------
 (1) _Set_sec                                              3     3      0    3068
                                             12 BANK0      3     3      0
                         _Dec_to_Bcd
                   _I2C_Master_Start
                    _I2C_Master_Stop
                   _I2C_Master_Write
 ---------------------------------------------------------------------------------
 (1) _Set_min                                              3     3      0    3068
                                             12 BANK0      3     3      0
                         _Dec_to_Bcd
                   _I2C_Master_Start
                    _I2C_Master_Stop
                   _I2C_Master_Write
 ---------------------------------------------------------------------------------
 (1) _Set_hour                                             3     3      0    3068
                                             12 BANK0      3     3      0
                         _Dec_to_Bcd
                   _I2C_Master_Start
                    _I2C_Master_Stop
                   _I2C_Master_Write
 ---------------------------------------------------------------------------------
 (2) _Dec_to_Bcd                                           2     2      0     136
                                              0 BANK0      2     2      0
 ---------------------------------------------------------------------------------
 (1) _Read_Time                                            3     1      2    4377
                                             16 BANK0      3     1      2
                         _Bcd_to_Dec
                               _Read
 ---------------------------------------------------------------------------------
 (2) _Read                                                 4     4      0    3891
                                             12 BANK0      4     4      0
                    _I2C_Master_Read
           _I2C_Master_RepeatedStart
                   _I2C_Master_Start
                    _I2C_Master_Stop
                   _I2C_Master_Write
                           _I2C_Nack
 ---------------------------------------------------------------------------------
 (2) _Bcd_to_Dec                                           4     4      0     235
                                              4 BANK0      4     4      0
                             ___bmul
 ---------------------------------------------------------------------------------
 (3) ___bmul                                               4     3      1     168
                                              0 BANK0      4     3      1
 ---------------------------------------------------------------------------------
 (1) _Lcd_Init                                             2     2      0     198
                                              4 BANK0      2     2      0
                            _Lcd_Cmd
                           _Lcd_Port
 ---------------------------------------------------------------------------------
 (1) _ESP32_Write                                          2     2      0    3367
                                             12 BANK0      2     2      0
                   _I2C_Master_Start
                    _I2C_Master_Stop
                   _I2C_Master_Write
                            ___fltol
 ---------------------------------------------------------------------------------
 (1) _AHT10_Soft_Reset                                     2     2      0    2910
                                             12 BANK0      2     2      0
                   _I2C_Master_Start
                    _I2C_Master_Stop
                   _I2C_Master_Write
 ---------------------------------------------------------------------------------
 (1) _AHT10_Read                                          22    22      0   26458
                                             19 BANK1     21    21      0
                            _I2C_Ack
                    _I2C_Master_Read
           _I2C_Master_RepeatedStart
                   _I2C_Master_Start
                    _I2C_Master_Stop
                   _I2C_Master_Write
                           _I2C_Nack
                     _Lcd_Set_Cursor
                   _Lcd_Write_String
                            ___fladd
                            ___fldiv
                            ___flmul
                           ___xxtofl
                         _floattostr
 ---------------------------------------------------------------------------------
 (1) _floattostr                                          19    13      6   13147
                                              0 BANK1     19    13      6
                            ___fladd
                            ___fldiv
                             ___flge
                            ___flmul
                            ___flneg
                            ___flsub
                            ___fltol
                           ___xxtofl
 ---------------------------------------------------------------------------------
 (2) ___xxtofl                                            14    10      4     626
                                              6 BANK0     14    10      4
                    _I2C_Master_Read (ARG)
 ---------------------------------------------------------------------------------
 (2) ___fltol                                             10     6      4     457
                                              0 BANK0     10     6      4
 ---------------------------------------------------------------------------------
 (2) ___flsub                                              8     0      8    2637
                                             72 BANK0      8     0      8
                            ___fladd
                           ___xxtofl (ARG)
 ---------------------------------------------------------------------------------
 (3) ___fladd                                             20    12      8    2440
                                             52 BANK0     20    12      8
                            ___fldiv (ARG)
                            ___flmul (ARG)
 ---------------------------------------------------------------------------------
 (2) ___flneg                                              4     0      4     121
                                              0 BANK0      4     0      4
 ---------------------------------------------------------------------------------
 (2) ___flmul                                             26    18      8    2721
                                             26 BANK0     26    18      8
                          __Umul8_16
                            ___fldiv (ARG)
 ---------------------------------------------------------------------------------
 (3) __Umul8_16                                            9     7      2     799
                                              0 BANK0      9     7      2
 ---------------------------------------------------------------------------------
 (2) ___flge                                              12     4      8    1094
                                              0 BANK0     12     4      8
 ---------------------------------------------------------------------------------
 (2) ___fldiv                                             26    18      8    1729
                                              0 BANK0     26    18      8
 ---------------------------------------------------------------------------------
 (1) _Lcd_Write_String                                     7     5      2     800
                                              5 BANK0      7     5      2
                     _Lcd_Write_Char
 ---------------------------------------------------------------------------------
 (2) _Lcd_Write_Char                                       4     4      0     178
                                              1 BANK0      4     4      0
                           _Lcd_Port
 ---------------------------------------------------------------------------------
 (1) _Lcd_Set_Cursor                                       6     5      1     912
                                              4 BANK0      6     5      1
                            _Lcd_Cmd
 ---------------------------------------------------------------------------------
 (2) _Lcd_Cmd                                              3     3      0     110
                                              1 BANK0      3     3      0
                           _Lcd_Port
 ---------------------------------------------------------------------------------
 (3) _Lcd_Port                                             1     1      0      88
                                              0 BANK0      1     1      0
 ---------------------------------------------------------------------------------
 (2) _I2C_Ack                                              0     0      0       0
 ---------------------------------------------------------------------------------
 (1) _AHT10_Init                                           3     3      0    3846
                                             12 BANK0      2     2      0
                    _I2C_Master_Read
           _I2C_Master_RepeatedStart
                   _I2C_Master_Start
                    _I2C_Master_Stop
                   _I2C_Master_Write
                           _I2C_Nack
 ---------------------------------------------------------------------------------
 (3) _I2C_Nack                                             0     0      0       0
 ---------------------------------------------------------------------------------
 (2) _I2C_Master_Write                                     2     0      2    2910
                                             10 BANK0      2     0      2
                         _Dec_to_Bcd (ARG)
                    _I2C_Master_Wait
                            ___fltol (ARG)
 ---------------------------------------------------------------------------------
 (2) _I2C_Master_Stop                                      0     0      0       0
                    _I2C_Master_Wait
 ---------------------------------------------------------------------------------
 (2) _I2C_Master_Start                                     0     0      0       0
                    _I2C_Master_Wait
 ---------------------------------------------------------------------------------
 (3) _I2C_Master_RepeatedStart                             0     0      0       0
                    _I2C_Master_Wait
 ---------------------------------------------------------------------------------
 (2) _I2C_Master_Read                                      6     4      2     935
                                              0 BANK0      6     4      2
                    _I2C_Master_Wait
 ---------------------------------------------------------------------------------
 (3) _I2C_Master_Wait                                      0     0      0       0
 ---------------------------------------------------------------------------------
 Estimated maximum stack depth 3
 ---------------------------------------------------------------------------------
 (Depth) Function   	        Calls       Base Space   Used Autos Params    Refs
 ---------------------------------------------------------------------------------
 (5) _isr                                                  5     5      0     308
                                              6 COMMON     5     5      0
                          _Lcd_Clear
                         i1_Lcd_Init
 ---------------------------------------------------------------------------------
 (6) i1_Lcd_Init                                           2     2      0     198
                                              4 COMMON     2     2      0
                          i1_Lcd_Cmd
                         i1_Lcd_Port
 ---------------------------------------------------------------------------------
 (6) _Lcd_Clear                                            0     0      0     110
                          i1_Lcd_Cmd
 ---------------------------------------------------------------------------------
 (7) i1_Lcd_Cmd                                            3     3      0     110
                                              1 COMMON     3     3      0
                         i1_Lcd_Port
 ---------------------------------------------------------------------------------
 (7) i1_Lcd_Port                                           1     1      0      88
                                              0 COMMON     1     1      0
 ---------------------------------------------------------------------------------
 Estimated maximum stack depth 7
 ---------------------------------------------------------------------------------

 Call Graph Graphs:

 _main (ROOT)
   _AHT10_Init
     _I2C_Master_Read
       _I2C_Master_Wait
     _I2C_Master_RepeatedStart
       _I2C_Master_Wait
     _I2C_Master_Start
       _I2C_Master_Wait
     _I2C_Master_Stop
       _I2C_Master_Wait
     _I2C_Master_Write
       _Dec_to_Bcd (ARG)
       _I2C_Master_Wait (ARG)
       ___fltol (ARG)
     _I2C_Nack
   _AHT10_Read
     _I2C_Ack
     _I2C_Master_Read
     _I2C_Master_RepeatedStart
     _I2C_Master_Start
     _I2C_Master_Stop
     _I2C_Master_Write
     _I2C_Nack
     _Lcd_Set_Cursor
       _Lcd_Cmd
         _Lcd_Port
     _Lcd_Write_String
       _Lcd_Write_Char
         _Lcd_Port
     ___fladd
       ___fldiv (ARG)
       ___flmul (ARG)
         __Umul8_16
         ___fldiv (ARG)
     ___fldiv
     ___flmul
     ___xxtofl
       _I2C_Master_Read (ARG)
     _floattostr
       ___fladd
       ___fldiv
       ___flge
       ___flmul
       ___flneg
       ___flsub
         ___fladd
         ___xxtofl (ARG)
       ___fltol
       ___xxtofl
   _AHT10_Soft_Reset
     _I2C_Master_Start
     _I2C_Master_Stop
     _I2C_Master_Write
   _ESP32_Write
     _I2C_Master_Start
     _I2C_Master_Stop
     _I2C_Master_Write
     ___fltol
   _Lcd_Init
     _Lcd_Cmd
     _Lcd_Port
   _Lcd_Set_Cursor
   _Lcd_Write_String
   _Read_Time
     _Bcd_to_Dec
       ___bmul
     _Read
       _I2C_Master_Read
       _I2C_Master_RepeatedStart
       _I2C_Master_Start
       _I2C_Master_Stop
       _I2C_Master_Write
       _I2C_Nack
   _Set_hour
     _Dec_to_Bcd
     _I2C_Master_Start
     _I2C_Master_Stop
     _I2C_Master_Write
   _Set_min
     _Dec_to_Bcd
     _I2C_Master_Start
     _I2C_Master_Stop
     _I2C_Master_Write
   _Set_sec
     _Dec_to_Bcd
     _I2C_Master_Start
     _I2C_Master_Stop
     _I2C_Master_Write
   _Slave1_Total
     _I2C_Master_Read
     _I2C_Master_Start
     _I2C_Master_Stop
     _I2C_Master_Write
   _Slave2
     _I2C_Master_Read
     _I2C_Master_Start
     _I2C_Master_Stop
     _I2C_Master_Write
     ___xxtofl
   _floattostr
   _setup
     _I2C_Master_Init
       ___lldiv
   _sprintf
     ___lwdiv
     ___lwmod
       ___lwdiv (ARG)
     ___wmul
     _isdigit

 _isr (ROOT)
   _Lcd_Clear
     i1_Lcd_Cmd
       i1_Lcd_Port
   i1_Lcd_Init
     i1_Lcd_Cmd
     i1_Lcd_Port

 Address spaces:
Name               Size   Autos  Total    Cost      Usage
BITCOMMON            E      0       0       0        0.0%
EEDATA             100      0       0       0        0.0%
NULL                 0      0       0       0        0.0%
CODE                 0      0       0       0        0.0%
COMMON               E      B       E       1      100.0%
BITSFR0              0      0       0       1        0.0%
SFR0                 0      0       0       1        0.0%
BITSFR1              0      0       0       2        0.0%
SFR1                 0      0       0       2        0.0%
STACK                0      0       0       2        0.0%
ABS                  0      0     118       3        0.0%
BITBANK0            50      0       0       4        0.0%
BITSFR3              0      0       0       4        0.0%
SFR3                 0      0       0       4        0.0%
BANK0               50     50      50       5      100.0%
BITSFR2              0      0       0       5        0.0%
SFR2                 0      0       0       5        0.0%
BITBANK1            50      0       0       6        0.0%
BANK1               50     2E      3C       7       75.0%
BITBANK3            60      0       0       8        0.0%
BANK3               60      0      4E       9       81.2%
BITBANK2            60      0       0      10        0.0%
BANK2               60      0      30      11       50.0%
DATA                 0      0     118      12        0.0%


Microchip Technology PIC Macro Assembler V2.40 build 20220703182018 
Symbol Table                                                                                   Wed Aug 30 15:46:30 2023

                    ___fldiv@aexp 0039                      ___fldiv@bexp 0038                                 pc 0002  
                    ___fldiv@sign 0031                    ___bmul@product 0022                        _Bcd_to_Dec 1003  
                              fsr 0004               ___wmul@multiplicand 0022               __Umul8_16@word_mpld 0026  
                             l112 0435                               l203 0DA7                               l300 1D59  
                             l230 1DEF                               l206 1F55                               l303 1D65  
                             l311 1D80                               l231 1DF0                               l312 1D81  
                             l232 1DF6                               l216 1251                               l321 1E42  
                             l233 1DF7                               l209 12AD                               l306 1D22  
                             l330 1D45                               l234 1DFD                               l315 1D2B  
                             l219 07FB                               l251 1370                               l171 11F9  
                             l324 1D3A                               l332 1D4A                               l236 1DFE  
                             l228 1DE8                               l260 1113                               l180 1057  
                             l309 1D7B                               l333 1D4B                               l229 1DE9  
                             l318 1D35                               l326 1D3F                               l254 1FC6  
                             l174 1F1E                               l327 1D40                               l239 1DDE  
                             l191 1DAB                               l183 1FFF                               l248 11A5  
                             l504 13D8                               l168 1EE9                               l177 1F8D  
                             l194 101E                               l434 0835                               l197 154A  
                             l470 1E8D                               l464 09A0                               l297 1091  
                             l642 1569                               l650 1D72                               l803 0FF5  
                             l804 0FFF                               l740 1159                               l468 1E75  
                             l645 15D5                               l661 14AA                               l901 1613  
                             l646 15EE                               l654 14BF                               l494 1DC2  
                             l750 10CD                               l807 1E66                               l903 16A8  
                             l664 14BF                               l841 0B69                               l833 0AE9  
                             l817 09F7                               l761 0E03                               l921 1D95  
                             l914 1672                               l819 0B73                               l915 167E  
                             l907 1656                               l765 0E86                               l782 0F4F  
                             l774 0FFF                               l839 0B5B                               l863 06EA  
                             l767 0E5F                               l792 0F95                               l857 077A  
                             l786 0F73                               l795 0FD3                               l876 1EA4  
                             l869 076E                               l878 1EB6                               _GIE 005F  
                             _det 007C                   __end_of_I2C_Ack 1D4C                               _isr 13D9  
                             fsr0 0004                               indf 0000                      ___flmul@aexp 004C  
                    ___flmul@bexp 004D                      ___flmul@sign 0047                      ___flmul@temp 0052  
                    ___flmul@prod 004E                        _Dec_to_Bcd 1D96               floattostr@tempo_int 00A7  
                    ___fltol@exp1 0029                              l3001 04AB                              l3011 0535  
                            l3003 04B8                              l3021 0593                              l3013 0551  
                            l3005 04D3                              l3101 160B                              l3031 061D  
                            l3023 05B0                              l3015 055A                              l3007 04EF  
                            l3111 1634                              l3103 161B                              l3041 06AD  
                            l3033 0648                              l3025 05C7                              l3017 0568  
                            l3009 0519                              l3121 1668                              l3113 163B  
                            l3201 02EA                              l3043 06B6                              l3051 06CA  
                            l3035 066E                              l3027 05E4                              l3019 0585  
                            l3131 169B                              l3123 166C                              l3115 163F  
                            l3107 1624                              l3211 0306                              l3203 02EE  
                            l3053 06CE                              l3045 06BA                              l3037 0696  
                            l3029 060F                              l2501 0E1F                              l3133 169F  
                            l3125 1676                              l3117 164D                              l3109 1627  
                            l3221 034E                              l3213 030C                              l3205 02F6  
                            l2431 1DF4                              l3071 071F                              l3063 06EF  
                            l3055 06CF                              l3047 06BB                              l3039 069F  
                            l2511 0E29                              l2503 0E21                              l3135 16A0  
                            l3127 1680                              l3119 165D                              l3231 03DC  
                            l3223 0352                              l3207 02FB                              l3215 031A  
                            l3151 0039                              l3303 1006                              l3311 1D9A  
                            l3321 1D41                              l2433 1DFB                              l2425 1DE2  
                            l3241 1162                              l3081 0756                              l3065 06F4  
                            l3073 0725                              l3057 06D3                              l3049 06C4  
                            l2601 0F92                              l2521 0E47                              l2513 0E2B  
                            l2505 0E23                              l2441 0DAD                              l3129 1696  
                            l3233 041B                              l3225 035C                              l3217 031F  
                            l3209 0302                              l3161 00A0                              l3153 003B  
                            l3305 101D                              l3313 1DA0                              l2435 1D59  
                            l2427 1DE6                              l3251 1187                              l3243 116F  
                            l3091 0772                              l3083 0758                              l3075 0732  
                            l3067 0702                              l3059 06E7                              l2611 0FB1  
                            l2531 0E71                              l2523 0E63                              l2515 0E2D  
                            l2507 0E25                              l2451 0DC0                              l2443 0DB1  
                            l3227 0360                              l3219 0348                              l3235 0421  
                            l3171 013B                              l3155 0062                              l3315 1DA7  
                            l3411 1EBF                              l3331 1D94                              l3323 1D85  
                            l2437 1D5F                              l2429 1DED                              l3253 1194  
                            l3245 1172                              l2701 1FBC                              l3261 10D3  
                            l3085 0764                              l3077 073D                              l3069 0706  
                            l2621 0FEA                              l2613 0FCF                              l2605 0F9A  
                            l2533 0E7A                              l2525 0E6A                              l2509 0E27  
                            l2517 0E2F                              l2461 0DD6                              l2453 0DC8  
                            l2445 0DB5                              l3237 042F                              l3229 0364  
                            l3181 01E5                              l3173 017A                              l3165 00CC  
                            l3157 0069                              l3149 0030                              l3317 1DAA  
                            l3309 1D99                              l3501 1022                              l3421 1EC6  
                            l3413 1EC0                              l3341 1E7C                              l3325 1D86  
                            l3255 1197                              l3247 1178                              l3239 115D  
                            l2703 1FC3                              l3263 10EF                              l3087 0768  
                            l3079 074C                              l2631 0FFE                              l2623 0FEB  
                            l2615 0FD8                              l2607 0F9F                              l2551 0EBE  
                            l2543 0E98                              l2527 0E6C                              l2535 0E7E  
                            l2519 0E30                              l2471 0DE6                              l2463 0DDC  
                            l2455 0DC9                              l2447 0DB6                              l2439 0DA8  
                            l3095 15F2                              l3191 02C3                              l3183 0224  
                            l3167 010B                              l3175 0180                              l3159 006D  
                            l2711 1DB8                              l3503 1FCA                              l3511 1286  
                            l3271 105F                              l3431 1ECD                              l3423 1EC7  
                            l3415 1EC1                              l3407 1EB7                              l3351 1118  
                            l3343 1E83                              l3335 1E67                              l3327 1D8C  
                            l3257 119D                              l3249 1181                              l3265 10F7  
                            l2641 1EAD                              l2633 1E91                              l3089 0769  
                            l2625 0FEF                              l2617 0FDD                              l2609 0FAD  
                            l2553 0EC0                              l2545 0EAF                              l2537 0E8A  
                            l2561 0ED3                              l2529 0E70                              l2473 0DEB  
                            l2481 0DFB                              l2465 0DDD                              l2449 0DBB  
                            l2457 0DCB                              l2801 149F                              l3097 15F7  
                            l3193 02D3                              l3185 022A                              l3177 01A9  
                            l3169 0111                              l3521 0B74                              l2713 1DBA  
                            l2705 1DAF                              l3281 11A9                              l3513 1291  
                            l3505 1252                              l2721 1383                              l3273 108E  
                            l3441 1ED2                              l3433 1ECE                              l3425 1EC8  
                            l3417 1EC4                              l3409 1EBB                              l3361 1130  
                            l3353 111E                              l3345 1E89                              l3337 1E6B  
                            l3329 1D92                              l3601 085D                              l2651 1D2C  
                            l3259 10CE                              l2643 1EB2                              l2635 1E93  
                            l2627 0FF1                              l2619 0FE5                              l2563 0EE9  
                            l2571 0F41                              l2555 0EC4                              l2547 0EB3  
                            l2539 0E8F                              l2491 0E15                              l2483 0E09  
                            l2475 0DF0                              l2467 0DE1                              l2459 0DD3  
                            l2803 14AF                              l3099 15FB                              l3195 02D9  
                            l3187 0238                              l3179 01B3                              l3531 0BCE  
                            l3523 0BA9                              l2715 1DC1                              l2707 1DB0  
                            l3291 11D7                              l3283 11AE                              l3515 12A1  
                            l3507 1277                              l2731 13B2                              l2723 1386  
                            l3275 108F                              l3267 1058                              l3451 1ED7  
                            l3443 1ED3                              l3435 1ECF                              l3427 1ECB  
                            l3419 1EC5                              l3363 1141                              l3355 1121  
                            l3371 1155                              l3339 1E6F                              l3611 089E  
                            l3603 0861                              l2661 1E26                              l2653 1D31  
                            l2901 0AAC                              l2821 09AF                              l2813 09A1  
                            l2637 1E9A                              l2629 0FFA                              l2581 0F6E  
                            l2573 0F57                              l2565 0F27                              l2557 0EC5  
                            l2549 0EB7                              l2493 0E17                              l2485 0E0D  
                            l2477 0DF8                              l2469 0DE5                              l2805 14B4  
                            l3197 02DE                              l3189 029C                              l3541 0BF2  
                            l3533 0BD3                              l3525 0BB3                              l3461 1312  
                            l2709 1DB4                              l3293 11E5                              l3285 11B9  
                            l3517 12A6                              l3509 1281                              l2733 13C0  
                            l2725 1393                              l3277 1090                              l3269 105C  
                            l3453 1ED8                              l3445 1ED4                              l3437 1ED0  
                            l3429 1ECC                              l3365 1147                              l3357 1128  
                            l3349 1114                              l3381 10A4                              l3621 08CB  
                            l3605 0876                              l3701 16E3                              l2663 1E2E  
                            l2655 1D73                              l2647 1D1A                              l2671 1D23  
                            l2903 0AB5                              l2911 0AC9                              l2823 09B4  
                            l2831 09C4                              l2815 09A6                              l2751 1589  
                            l2743 154B                              l2639 1E9E                              l2591 0F81  
                            l2583 0F72                              l2575 0F5C                              l2567 0F2D  
                            l2559 0ECE                              l2495 0E19                              l2487 0E11  
                            l2479 0DF9                              l2807 1E43                              l3199 02E2  
                            l3551 0C3C                              l3543 0BF2                              l3535 0BDE  
                            l3527 0BB8                              l3471 1F1F                              l3463 131C  
                            l3295 11EA                              l3287 11C7                              l3279 11A9  
                            l3519 1EED                              l2735 13C1                              l2727 1397  
                            l2719 1371                              l3455 1ED9                              l3447 1ED5  
                            l3439 1ED1                              l3367 1148                              l3359 112C  
                            l3391 10C3                              l3383 10A8                              l3375 1092  
                            l3631 08E9                              l3607 0889                              l3615 08A3  
                            l3711 1709                              l3703 16E8                              l2665 1E37  
                            l2657 1D78                              l2649 1D1F                              l2673 1D28  
                            l3481 14C0                              l2681 1DD0                              l2913 0ACD  
                            l2905 0AB9                              l2841 09DA                              l2833 09CC  
                            l2825 09B9                              l2817 09AA                              l2753 15AD  
                            l2745 1561                              l2585 0F77                              l2593 0F83  
                            l2569 0F32                              l2497 0E1B                              l2489 0E13  
                            l2809 1E47                              l3561 0C90                              l3553 0C51  
                            l3545 0C12                              l3537 0BED                              l3529 0BC3  
                            l3473 1F2A                              l3465 132C                              l3297 11EF  
                            l3289 11CC                              l2737 13CA                              l2729 13A0  
                            l3457 1EDA                              l3449 1ED6                              l3369 114F  
                            l3385 10AC                              l3377 109A                              l3393 10C9  
                            l3641 0912                              l3633 08F3                              l3617 08BF  
                            l3609 088D                              l3721 173F                              l3713 170E  
                            l3705 16F4                              l2659 1E21                              l3491 14EB  
                            l3483 14CB                              l2683 1DDB                              l2675 1DC6  
                            l2691 1FA6                              l2931 0B1E                              l2923 0AEE  
                            l2915 0ACE                              l2907 0ABA                              l2843 09DF  
                            l2851 09EF                              l2835 09D1                              l2827 09C1  
                            l2819 09AE                              l2755 15B1                              l2747 157D  
                            l2763 1D66                              l2587 0F7A                              l2579 0F65  
                            l2595 0F87                              l2499 0E1D                              l2771 1448  
                            l3571 0D92                              l3563 0C95                              l3555 0C56  
                            l3547 0C17                              l3539 0BF2                              l3475 1F2F  
                            l3467 1332                              l3459 130C                              l3299 11F6  
                            l2739 13D0                              l3387 10B6                              l3379 109D  
                            l3651 0934                              l3643 0918                              l3635 08FE  
                            l3627 08CD                              l3619 08C7                              l3731 17BF  
                            l3723 1749                              l3715 1715                              l3707 16F9  
                            l2669 1D36                              l3493 14F6                              l3485 14D0  
                            l2677 1DC7                              l2693 1FA9                              l2685 1F91  
                            l2941 0B52                              l2925 0AF3                              l2933 0B24  
                            l2917 0AD2                              l2909 0AC3                              l2853 09FF  
                            l2861 0A18                              l2845 09E4                              l2837 09D5  
                            l2829 09C2                              l2757 15EB                              l2749 1585  
                            l2765 1D70                              l2597 0F88                              l2589 0F7C  
                            l2781 1470                              l2773 1453                              l3573 0D9C  
                            l3565 0C9A                              l3557 0C6B                              l3549 0C2C  
                            l3477 1F3A                              l3581 07F0                              l3469 1369  
                            l3389 10BC                              l3661 097A                              l3653 0939  
                            l3645 091D                              l3637 090A                              l3733 17C9  
                            l3725 1780                              l3717 171F                              l3709 16FE  
                            l3495 1500                              l3487 14DB                              l2679 1DCD  
                            l2695 1FB0                              l2687 1F97                              l2943 0B5A  
                            l2935 0B31                              l2927 0B01                              l2919 0AE6  
                            l2871 0A40                              l2863 0A1D                              l2855 0A0B  
                            l2847 09EC                              l2839 09D9                              l2759 15ED  
                            l2767 1D72                              l2599 0F8C                              l2783 1478  
                            l3567 0D14                              l3559 0C7B                              l3479 1F45  
                            l3575 11FA                              l3663 097F                              l3655 093D  
                            l3647 0921                              l3639 090E                              l3591 0831  
                            l3583 081E                              l3735 17D4                              l3727 178B  
                            l3719 172A                              l3497 153F                              l3489 14E6  
                            l2697 1FB3                              l2689 1F98                              l2945 0B5F  
                            l2937 0B3F                              l2929 0B05                              l2881 0A69  
                            l2873 0A48                              l2857 0A0F                              l2849 09ED  
                            l2961 0443                              l2793 1486                              l2785 147A  
                            l2777 145C                              l3569 0D81                              l3577 1247  
                            l3665 0983                              l3657 0949                              l3649 092E  
                            l3841 0848                              l3593 0836                              l3585 0821  
                            l3737 17F1                              l3729 17BA                              l2699 1FB9  
                            l2947 0B63                              l2939 0B4E                              l2891 0A8A  
                            l2883 0A6D                              l2875 0A50                              l2867 0A26  
                            l2971 0458                              l2963 0444                              l2955 0436  
                            l2787 147E                              l2795 1498                              l2779 146F  
                            l3579 077B                              l3499 1F59                              l3659 094C  
                            l3843 08B7                              l3587 0827                              l3667 098C  
                            l2949 0B65                              l2893 0A98                              l2885 0A6E  
                            l2877 0A52                              l2869 0A38                              l2981 046E  
                            l2973 0460                              l2965 0449                              l2957 043B  
                            l3669 099C                              l3597 083A                              l3589 082C  
                            l2879 0A57                              l2887 0A77                              l2895 0A9C  
                            l2991 048A                              l2983 0473                              l2975 0465  
                            l2967 044E                              l2959 043F                              l3599 084D  
                            l3695 16A9                              l2897 0AA2                              l2889 0A89  
                            l2993 048F                              l2985 0478                              l2977 0469  
                            l2969 0456                              l3697 16CF                              l2899 0AAA  
                            l2995 0494                              l2987 0480                              l2979 046D  
                            l3699 16DD                              l2989 0482                              l2999 049D  
                            ?_isr 0070                              STR_1 1829                              STR_2 181A  
                            STR_3 1824                              STR_4 1829                              u3000 1383  
                            u3001 1382                              u3020 1397                              u3101 1598  
                            u3021 1396                              u3110 15B1                              u3102 1599  
                            u3111 15B0                              u3103 159E                              u3015 1388  
                            u2400 1DE6                              u3104 159F                              u3200 1497  
                            u4000 1672                              u3040 13B2                              u2401 1DE5  
                            u3121 15C0                              u3105 15A4                              u3201 1496  
                            u4001 1671                              u3041 13B1                              u2410 1DED  
                            u3130 15EB                              u3122 15C1                              u3106 15A5  
                            u3210 149E                              u4010 1676                              u2411 1DEC  
                            u3131 15EA                              u3123 15C6                              u3211 149D  
                            u4011 1675                              u3035 1399                              u2420 1DF4  
                            u3300 09E4                              u3124 15C7                              u3140 1D70  
                            u2500 0DE5                              u4020 168B                              u4100 00CB  
                            u3060 13D0                              u2421 1DF3                              u3301 09E3  
                            u3125 15CC                              u3141 1D6F                              u2501 0DE4  
                            u4101 00CA                              u3061 13CF                              u3045 13AE  
                            u2430 1DFB                              u3310 09FF                              u3126 15CD  
                            u3070 1561                              u2510 0DEB                              u3230 14AF  
                            u3150 1453                              u4030 169B                              u4110 013A  
                            u2431 1DFA                              u3311 09FE                              u3135 15E7  
                            u3071 1560                              u2511 0DEA                              u3231 14AE  
                            u3151 1452                              u4031 169A                              u4111 0139  
                            u3055 13C2                              u2440 1D5F                              u4200 1162  
                            u3400 0AAA                              u3320 0A1D                              u3080 157D  
                            u2520 0DF0                              u3240 14B4                              u3160 146A  
                            u4040 169F                              u4120 01A9                              u2441 1D5E  
                            u4201 1161                              u3401 0AA9                              u3321 0A1C  
                            u3081 157C                              u2521 0DEF                              u3241 14B3  
                            u3225 14A1                              u4041 169E                              u4025 1686  
                            u4121 01A8                              u2450 1D65                              u3330 0A57  
                            u3250 09AE                              u3090 1589                              u2610 0E86  
                            u2530 0E09                              u3170 147E                              u4130 0238  
                            u2451 1D64                              u3331 0A56                              u3251 09AD  
                            u3091 1588                              u2611 0E85                              u2531 0E08  
                            u3171 147D                              u4131 0237                              u4300 1D4A  
                            u4220 1187                              u3500 0B14                              u3420 0AB9  
                            u3260 09B4                              u2620 0E8A                              u2540 0E0D  
                            u2460 0DB5                              u3180 1485                              u4140 02C3  
                            u4301 1D49                              u4221 1186                              u3421 0AB8  
                            u3261 09B3                              u2701 0F00                              u2621 0E89  
                            u2605 0E73                              u2541 0E0C                              u2461 0DB4  
                            u3181 1484                              u3165 1465                              u4141 02C2  
                            u3510 0B31                              u3270 09B9                              u2710 0F14  
                            u2702 0F01                              u2630 0E8F                              u2550 0E47  
                            u2470 0DBB                              u4150 02D9                              u4310 1D8C  
                            u4215 1168                              u3511 0B30                              u3415 0AAE  
                            u3271 09B8                              u2711 0F15                              u2703 0F06  
                            u2631 0E8E                              u2551 0E46                              u2471 0DBA  
                            u4151 02D8                              u4135 0234                              u4311 1D8B  
                            u4240 10DD                              u3520 0B4E                              u3440 0ACD  
                            u3360 0A6D                              u3280 09D9                              u3600 048F  
                            u2800 0F8C                              u2720 0F32                              u2712 0F1A  
                            u2704 0F07                              u2560 0E52                              u2480 0DC0  
                            u4160 02EE                              u4320 1D92                              u3521 0B4D  
                            u3505 0B0F                              u3441 0ACC                              u3361 0A6C  
                            u3345 0A59                              u3281 09D8                              u3601 048E  
                            u2801 0F8B                              u2721 0F31                              u2713 0F1B  
                            u2705 0F0C                              u2641 0EA1                              u2561 0E50  
                            u2481 0DBF                              u4161 02ED                              u4321 1D91  
                            u4250 1101                              u3530 0B63                              u3450 0AD2  
                            u3290 09DF                              u3610 0494                              u2810 0F92  
                            u2730 0F57                              u2706 0F0D                              u2650 0EB3  
                            u2642 0EA8                              u2570 0E53                              u2490 0DDC  
                            u4170 031A                              u4090 0062                              u4410 1141  
                            u4330 1E6F                              u4235 118D                              u3531 0B62  
                            u3515 0B2D                              u3451 0AD1                              u3435 0ABC  
                            u3355 0A62                              u3291 09DE                              u3611 0493  
                            u2811 0F91                              u2731 0F56                              u2651 0EB2  
                            u2643 0EAF                              u2555 0E43                              u2491 0DDB  
                            u3195 1487                              u4171 0319                              u4091 0061  
                            u4411 1140                              u4331 1E6E                              u4260 1113  
                            u3460 0AE6                              u3380 0A89                              u3540 0443  
                            u2900 0FEF                              u2820 0F99                              u2740 0F5C  
                            u2660 0EB7                              u2580 0E63                              u4180 035C  
                            u4500 0CB9                              u4261 1112                              u3525 0B4A  
                            u3461 0AE5                              u3381 0A88                              u3701 05D6  
                            u3621 04E1                              u3541 0442                              u2901 0FEE  
                            u2821 0F98                              u2741 0F5B                              u2661 0EB6  
                            u2581 0E62                              u4181 035B                              u4405 1131  
                            u3470 0AED                              u3390 0AA2                              u3702 05DD  
                            u3622 04E8                              u3550 0449                              u2910 0FFE  
                            u2830 0F9F                              u2670 0EC4                              u2590 0E70  
                            u4190 042F                              u4510 0CC3                              u4270 106F  
                            u4430 1155                              u3471 0AEC                              u3391 0AA1  
                            u3375 0A70                              u3711 0601                              u3703 05E4  
                            u3631 04FD                              u3623 04EF                              u3551 0448  
                            u2911 0FFD                              u2831 0F9E                              u2671 0EC3  
                            u2591 0E6F                              u4191 042E                              u4175 0316  
                            u4511 0CC4                              u4431 1154                              u4415 113D  
                            u3480 0AF3                              u2920 1E9E                              u3712 0608  
                            u3632 0504                              u3560 044E                              u2840 0FB1  
                            u2760 0F72                              u4520 0CD5                              u4512 0CC9  
                            u4440 109A                              u4360 1E89                              u4600 0918  
                            u3481 0AF2                              u3385 0A85                              u2921 1E9D  
                            u3721 062C                              u3713 060F                              u3641 0527  
                            u3633 050B                              u3561 044D                              u2841 0FB0  
                            u2761 0F71                              u4185 0358                              u4521 0CD6  
                            u4513 0CCA                              u4505 0CB4                              u4425 1149  
                            u4441 1099                              u4361 1E88                              u4345 1E76  
                            u4601 0917                              u3490 0B05                              u3810 06CE  
                            u3730 0654                              u3722 0633                              u3642 052E  
                            u3570 046D                              u2850 0FC0                              u2770 0F77  
                            u2690 0EE9                              u4522 0CDB                              u4290 1DA0  
                            u4370 111E                              u4610 092D                              u4530 0827  
                            u3491 0B04                              u3811 06CD                              u3723 063A  
                            u3651 0543                              u3643 0535                              u3571 046C  
                            u2771 0F76                              u2755 0F67                              u2691 0EE8  
                            u4195 042B                              u4523 0CDC                              u4291 1D9F  
                            u4275 106A                              u4371 111D                              u4355 1E7D  
                            u4611 092C                              u4531 0826                              _PEIE 005E  
                            u2940 1EB2                              u3900 0768                              u3820 06D3  
                            u3652 054A                              u3580 0473                              u2860 0FCF  
                            u2780 0F81                              u4460 10AC                              u4620 0934  
                            u4540 085D                              u2941 1EB1                              u3901 0767  
                            u3821 06D2                              u3805 06BD                              u3741 0660  
                            u3653 0551                              u3581 0472                              u2861 0FCE  
                            u2781 0F80                              u2693 0EE5                              u2685 0EC7  
                            u4285 100E                              u4461 10AB                              u4621 0933  
                            u4541 085C                              u2950 1D80                              u3830 06E7  
                            u3750 067C                              u3742 0667                              u3590 0478  
                            u2870 0FD8                              u2790 0F87                              u3910 15F7  
                            u4390 1130                              u4470 10B6                              u4630 0949  
                            u4550 089D                              u2951 1D7F                              u2935 1EA5  
                            u3831 06E6                              u3743 066E                              u3735 064F  
                            u3671 0577                              u3591 0477                              u2871 0FD7  
                            u2855 0FBB                              u2791 0F86                              u3911 15F6  
                            u4391 112F                              u4471 10B5                              u4455 109E  
                            u4631 0948                              u4551 089C                              u2960 1D3F  
                            u3840 06EE                              u3672 057E                              u2880 0FDD  
                            u3920 15FB                              u4640 098C                              u4560 08E8  
                            u2961 1D3E                              u3841 06ED                              u3761 0688  
                            u3681 05A2                              u3673 0585                              u3665 0553  
                            u2881 0FDC                              u3921 15FA                              u4385 1122  
                            u4641 098B                              u4561 08E7                              u3850 06F4  
                            u3762 068F                              u3682 05A9                              u2890 0FEA  
                            u3930 161B                              u4490 10C9                              u4650 099C  
                            u4570 08F3                              u3851 06F3                              u3763 0696  
                            u3755 0677                              u3683 05B0                              u2891 0FE9  
                            u3931 161A                              u4491 10C8                              u4475 10B2  
                            u4651 099B                              u4571 08F2                              u3860 0706  
                            u2980 1DB4                              u4580 08FE                              u4660 1715  
                            u3861 0705                              u2981 1DB3                              u4485 10BD  
                            u4581 08FD                              u4565 08E4                              u4661 1714  
                            u3870 0715                              u3790 06BA                              u3950 163A  
                            u2990 1DC1                              u4590 0912                              u4670 17BF  
                            u2975 1F9B                              u3791 06B9                              u3775 0698  
                            u3695 05B2                              u3951 1639                              u2991 1DC0  
                            u4807 124D                              u4591 0911                              u4671 17BE  
                            u3880 0732                              u3881 0731                              u3785 06AF  
                            u3945 162C                              u4817 127D                              u4585 08FA  
                            u3890 074C                              u3970 165C                              u3891 074B  
                            u3875 0710                              u3971 165B                              u4907 1F50  
                            u4827 12AA                              u3885 072E                              u3965 164E  
                            u4917 0BAF                              u4837 11F3                              u3990 166C  
                            u4927 1FAD                              u3895 0748                              u3991 166B  
                            u4847 1318                              u4937 1FC0                              u3985 1661  
                            u4857 1328                              u4947 1DD6                              u4867 1336  
                            u4787 16D7                              u4957 14C6                              u4877 136D  
                            u4797 1704                              u4967 1545                              u4887 07F6  
                            u4897 1F25                              _TMR0 0001                              _Read 11A6  
               ?_Lcd_Write_String 0025  __end_of_I2C_Master_RepeatedStart 1D82                              _cont 00D7  
                            _main 16A9                  __end_of_I2C_Nack 1D41                              _time 007B  
                            btemp 007E                              start 000C                ??_Lcd_Write_String 0027  
                 ___fldiv@new_exp 0032                   __end_of_Lcd_Cmd 1DDF                        Read_Time@h 0031  
                      Read_Time@m 0030                        Read_Time@s 0032                 ___bmul@multiplier 0023  
                     Read@address 002E                             ??_isr 0076                    AHT10_Read@data 00C1  
                 __end_of_Set_min 1058                   __end_of_Set_sec 1F8E                  ?_I2C_Master_Init 002E  
                ?_I2C_Master_Read 0020                  ?_I2C_Master_Wait 0070                  ?_I2C_Master_Stop 0070  
                           ?_Read 0070                     ___fltol@sign1 0028                   __end_of___fladd 1000  
                           ?_main 0070                   __end_of___fldiv 0B74                   __end_of___flneg 1D73  
                 __end_of___flmul 077B                   __end_of___flsub 1E67                   __end_of___fltol 14C0  
                           _ANSEL 0188                   __end_of___lldiv 13D9                   __end_of___lwdiv 115A  
                           i1l230 1E11                             i1l231 1E12                             i1l232 1E18  
                           i1l233 1E19                             i1l234 1E1F                             i1l242 1D58  
                           i1l251 130B                             i1l236 1E20                             i1l228 1E08  
                           i1l229 1E0B                             i1l165 1441                             i1l157 13F0  
                           i1l239 081A                   __end_of___lwmod 10CE                             _PORTA 0005  
                           _PORTB 0006                             _PORTC 0007                             _PORTD 0008  
                           _PORTE 0009                             _TRISB 0086                             _TRISD 0088  
                           _SSPIE 0463                             _TRISE 0089                             _SSPIF 0063  
                     ?i1_Lcd_Init 0070                       ?i1_Lcd_Port 0070                   __end_of_dpowers 181A  
                           _horas 00D9                   __end_of_isdigit 1D96                             _setup 1EB7  
                           pclath 000A                             status 0003                             wtemp0 007E  
                 __end_of_sprintf 09A1                  __end_of_Lcd_Init 1371                  __end_of_Lcd_Port 1DFF  
                 __initialization 000F                      __end_of_Read 11FA                      __end_of_main 1800  
                     ?_Bcd_to_Dec 0070                         ??_I2C_Ack 0020                            ??_Read 002C  
           floattostr@tempo_float 00A9                            ??_main 00C8                  __end_of_Set_hour 2000  
               ?_I2C_Master_Start 0070                 ?_I2C_Master_Write 002A                      ??_AHT10_Init 002C  
                    ??_AHT10_Read 00B3                  _AHT10_Soft_Reset 1F1F                       ?_Dec_to_Bcd 0070  
              ??_I2C_Master_Start 0020                ??_I2C_Master_Write 002C                        Set_min@min 002E  
                      Set_sec@sec 002E                            ?_setup 0070                            _ANSELH 0189  
                          i1l3141 1E04                            i1l3143 1E0F                            i1l3145 1E16  
                          i1l3401 080B                            i1l3147 1E1D                            i1l3139 1E00  
                          i1l3403 080E                            i1l3405 0817                            i1l3397 0802  
                          i1l3741 13DD                            i1l3399 0805                            i1l3751 1400  
                          i1l3743 13E4                            i1l3681 1D4C                            i1l3761 141F  
                          i1l3753 1402                            i1l3745 13ED                            i1l3691 12D2  
                          i1l3683 12AE                            i1l3771 142F                            i1l3763 1424  
                          i1l3755 140C                            i1l3747 13F4                            i1l3739 13D9  
                          i1l3693 1306                            i1l3685 12B4                            i1l3773 1439  
                          i1l3757 1419                            i1l3749 13F9                            i1l3687 12BD  
                          i1l3775 143B                            i1l3759 141E                            i1l3767 142A  
                          i1l3689 12CC                            i1l3777 143C                            i1l3769 142B  
                          i1l3779 143D                            u500_27 12C7                            u405_20 1E04  
                          u405_21 1E03                            u501_27 12D4                            u406_20 1E0F  
                          u406_21 1E0E                            u502_27 1308                            u407_20 1E16  
                          u407_21 1E15                            u503_27 0812                            u408_20 1E1D  
                          u408_21 1E1C                            u470_20 13F4                            u470_21 13F3  
                          u471_20 13F9                            u471_21 13F8                            u472_20 1400  
                          u472_21 13FF                            u473_20 141E                            u473_21 141D  
                          u474_20 142F                            u474_21 142E                            u475_20 1439  
                          u475_21 1438                            u468_20 13DD                            u468_21 13DC  
                          u469_20 13E4                            u469_21 13E3                         ??_Lcd_Cmd 0021  
                          u497_27 13E8                            u498_27 1412                            u499_27 12B8  
                          _SSPADD 0093                            _TRISC3 043B                            _TRISC4 043C  
                          _SSPCON 0014                            _SSPBUF 0013                  __end_of___xxtofl 16A9  
                          _Slave2 11FA                         ??_Set_min 002C                         ??_Set_sec 002C  
        _I2C_Master_RepeatedStart 1D73                 __end_ofi1_Lcd_Cmd 081B                            ___flge 154B  
                          ___bmul 1DAC                         ??___fladd 005C                            ___wmul 1E67  
                       ??___fldiv 0028                         ??___flneg 0024                         ??___flmul 0042  
                       ??___flsub 0070                         ??___fltol 0024                         ??___lldiv 0028  
              __end_of_AHT10_Init 154B                __end_of_AHT10_Read 0DA8                         ??___lwdiv 0024  
                       ??___lwmod 002C                            _buffer 01C0              Dec_to_Bcd@bcd_number 0021  
                       ?_I2C_Nack 0070                         ??_isdigit 0020                            saved_w 007E  
                       ??_sprintf 0035                   Lcd_Set_Cursor@a 0026                   Lcd_Set_Cursor@b 0024  
                 Lcd_Set_Cursor@y 0028                   Lcd_Set_Cursor@z 0027                        ___flge@ff1 0020  
                      ___flge@ff2 0024                      ___xxtofl@arg 0030                      ___xxtofl@exp 002F  
                    ___xxtofl@val 0026              Dec_to_Bcd@dec_number 0020           __end_of__initialization 002C  
                      ___flneg@f1 0020                 __end_of_Lcd_Clear 1D59                        ___fltol@f1 0020  
             ___bmul@multiplicand 0020                    __pcstackCOMMON 0070                     __end_of_setup 1EEA  
                   ?_Slave1_Total 0070                 __end_of_Read_Time 1F1F                    _Lcd_Set_Cursor 115A  
                      ??_I2C_Nack 0020                    _OPTION_REGbits 0081                         ?_Lcd_Init 0070  
                       ?_Lcd_Port 0070                      sprintf@width 003E                           ??_setup 0036  
                      __pbssBANK1 00CE                        __pbssBANK2 0110                        __pbssBANK3 0190  
               __end_of__Umul8_16 1EB7                         ?_Set_hour 0070                           ?_Slave2 0070  
                      __pmaintext 16A9                           ?___flge 0020                           ?___bmul 0020  
                         ?___wmul 0020                        __pintentry 0004                           _I2C_Ack 1D41  
          __end_of_Lcd_Set_Cursor 11A6                    ??_Slave1_Total 002C                      ??i1_Lcd_Init 0074  
                       ?___xxtofl 0026                      ??i1_Lcd_Port 0070                        ??_Lcd_Init 0024  
                      ??_Lcd_Port 0020                           _SSPCON2 0091                           _SSPSTAT 0094  
                      __stringtab 1800                    _Lcd_Write_Char 1F8E                           _Lcd_Cmd 1DC3  
                      _floattostr 0030                        ??_Set_hour 002C                           _Set_min 101F  
                         _Set_sec 1F56          __end_of_AHT10_Soft_Reset 1F56                __end_ofi1_Lcd_Init 130C  
              __end_ofi1_Lcd_Port 1E21                           ___fladd 0DA8                           ___fldiv 09A1  
                         ___flneg 1D66                           ___flmul 0436                           ___flsub 1E43  
                         ___fltol 1448                           ___lldiv 1371                           ___lwdiv 1114  
                         ___lwmod 1092                      ??_Bcd_to_Dec 0024                           _bandera 007D  
                 ?_Lcd_Set_Cursor 0024                           __ptext1 081B                           __ptext2 1D82  
                         __ptext3 1E67                           __ptext4 1092                           __ptext5 1114  
                         __ptext6 1EB7                           __ptext7 1058                           __ptext8 1371  
                         __ptext9 11FA                           _buffer2 0190                           _buffer3 0110  
                         _dpowers 1810                           _isdigit 1D82                        ??___xxtofl 002A  
                         _minutos 00DA                      ??_Dec_to_Bcd 0020                           _sprintf 081B  
                         clrloop0 1D13            __end_of_Lcd_Write_Char 1FC7              end_of_initialization 002C  
      ??_I2C_Master_RepeatedStart 0020                __end_of_Bcd_to_Dec 101F                     Bcd_to_Dec@bcd 0027  
                   Bcd_to_Dec@dec 0026                   ___lldiv@divisor 0020                   ___lldiv@counter 002D  
                I2C_Master_Init@c 002E                  I2C_Master_Read@a 0020                         Lcd_Port@a 0020  
              __end_of_Dec_to_Bcd 1DAC                         i1_Lcd_Cmd 0801                 floattostr@cadena_ 00A4  
                       _PORTBbits 0006                     ??_ESP32_Write 002C                         _PORTDbits 0008  
                     ___fladd@grs 0067                     ___xxtofl@sign 002E                 floattostr@largo_n 00AD  
                       _TRISCbits 0087                       ___fldiv@grs 0034                       ___fldiv@rem 002D  
                 ?_Lcd_Write_Char 0070                 floattostr@numero_ 00A0                 Lcd_Write_String@a 0025  
               Lcd_Write_String@i 002A                       ___flmul@grs 0048                       ?_floattostr 00A0  
            __end_of_Slave1_Total 12AE                         _Lcd_Clear 1D4C                    __end_of_Slave2 1252  
                  __end_of___flge 15EF                    __end_of___bmul 1DC3                    __end_of___wmul 1E8E  
                      ?i1_Lcd_Cmd 0070                  _Lcd_Write_String 10CE               start_initialization 000F  
                     __end_of_isr 1448                         _Read_Time 1EEA               __end_of_ESP32_Write 07FC  
               ??_I2C_Master_Init 0032                 ??_I2C_Master_Read 0022                 ??_I2C_Master_Wait 0020  
               ??_I2C_Master_Stop 0020                          ??_Slave2 0034                        ?_Lcd_Clear 0070  
                        ??___flge 0028                          ??___bmul 0021                          ??___wmul 0024  
                       __Umul8_16 1E8E                          ?_I2C_Ack 0070                   Lcd_Write_Char@a 0024  
                 Lcd_Write_Char@y 0023                         ___fladd@a 0058                         ___fladd@b 0054  
                       ___fldiv@a 0020                         ___fldiv@b 0024                         ___flmul@a 003E  
                       ___flmul@b 003A                       __pbssCOMMON 007B                         ___flsub@a 0068  
                       ___flsub@b 006C                         ___latbits 0002                     __pcstackBANK0 0020  
                   __pcstackBANK1 00A0                        ?_Read_Time 0030                      _isdigit$1066 0020  
                        ?_Lcd_Cmd 0070                       sprintf@flag 0039                       sprintf@prec 003C  
                _I2C_Master_Start 1D1A                  _I2C_Master_Write 1D2C                  ___lwdiv@dividend 0022  
                        ?_Set_min 0070                          ?_Set_sec 0070                  ??_Lcd_Set_Cursor 0025  
               ?_AHT10_Soft_Reset 0070                          ?___fladd 0054                          ?___fldiv 0020  
                        ?___flneg 0020                          ?___flmul 003A                          ?___flsub 0068  
                        ?___fltol 0020                          ?___lldiv 0020                        ?__Umul8_16 0020  
                        ?___lwdiv 0020                          ?___lwmod 0028                ??_AHT10_Soft_Reset 002C  
                     ??i1_Lcd_Cmd 0071                         __pstrings 1800                         _distancia 00D2  
                     _ESP32_Write 077B                          _I2C_Nack 1D36                          ?_isdigit 0070  
                ___lwdiv@quotient 0025                          ?_sprintf 002E                      Set_hour@hour 002E  
               interrupt_function 0004                    ___wmul@product 0024                          _IOCBbits 0096  
                       clear_ram0 1D12                          Lcd_Cmd@a 0023                          _PIR1bits 000C  
                     ??_Lcd_Clear 0074                       __stringbase 180F                 ___wmul@multiplier 0020  
                    _Slave1_Total 1252                          Read@dato 002F                          _WPUBbits 0095  
                ??_Lcd_Write_Char 0021                        _AHT10_Init 14C0                        _AHT10_Read 0B74  
                        _Lcd_Init 130C                       ??_Read_Time 0032                          _Lcd_Port 1DDF  
             I2C_Master_Read@temp 0024          __end_of_Lcd_Write_String 1114                      ??_floattostr 00A6  
                        _Set_hour 1FC7                       ??__Umul8_16 0022         ?_I2C_Master_RepeatedStart 0070  
              __end_of__stringtab 1810                        sprintf@val 003A                   _I2C_Master_Init 1058  
                 _I2C_Master_Read 1E21                          ___xxtofl 15EF                __end_of_floattostr 0436  
                 _I2C_Master_Wait 1D59                   _I2C_Master_Stop 1D23                   ___lwdiv@divisor 0020  
                 ___lwdiv@counter 0027                          __ptext10 1252                          __ptext11 1F56  
                        __ptext20 077B                          __ptext12 101F                          __ptext21 1F1F  
                        __ptext13 1FC7                          __ptext30 1E8E                          __ptext22 0B74  
                        __ptext14 1D96                          __ptext31 154B                          __ptext23 0030  
                        __ptext15 1EEA                          __ptext40 1D36                          __ptext32 09A1  
                        __ptext24 15EF                          __ptext16 11A6                          __ptext41 1D2C  
                        __ptext33 10CE                          __ptext25 1448                          __ptext17 1003  
                        __ptext50 0801                          __ptext42 1D23                          __ptext34 1F8E  
                        __ptext26 1E43                          __ptext18 1DAC                          __ptext51 1DFF  
                        __ptext43 1D1A                          __ptext35 115A                          __ptext27 0DA8  
                        __ptext19 130C                          __ptext44 1D73                          __ptext36 1DC3  
                        __ptext28 1D66                          __ptext45 1E21                          __ptext37 1DDF  
                        __ptext29 0436                          __ptext46 1D59                          __ptext38 1D41  
                        __ptext47 13D9                          __ptext39 14C0                          __ptext48 12AE  
                        __ptext49 1D4C                          _contador 00D6                          _pantalla 00D8  
                     i1Lcd_Port@a 0070                          _segundos 00DB          __end_of_I2C_Master_Start 1D23  
        __end_of_I2C_Master_Write 1D36                        _INTCONbits 000B                       ?_AHT10_Init 0070  
                     ?_AHT10_Read 0070                          isdigit@c 0021                Lcd_Write_Char@temp 0022  
            floattostr@decimales_ 00A5                          intlevel1 0000                         sprintf@ap 0038  
                       sprintf@sp 003D                  ___lwmod@dividend 002A                  ___lldiv@dividend 0024  
                      i1Lcd_Cmd@a 0073                         stringcode 180A                        _OSCCONbits 008F  
         __end_of_I2C_Master_Init 1092           __end_of_I2C_Master_Read 1E43           __end_of_I2C_Master_Wait 1D66  
         __end_of_I2C_Master_Stop 1D2C                Lcd_Set_Cursor@temp 0029                      ?_ESP32_Write 0070  
          __Umul8_16@multiplicand 0020                       _temperatura 00CE                          sprintf@c 0040  
                        sprintf@f 002E                  ___lldiv@quotient 0029                 I2C_Master_Write@d 002A  
                 ___lwmod@divisor 0028                        i1_Lcd_Init 12AE                   ___lwmod@counter 002D  
                      i1_Lcd_Port 1DFF                          stringdir 180A                          stringtab 1800  
          floattostr@largo_entera 00B1                       _SSPCON2bits 0091                     ___fladd@signs 0064  
                    ___fladd@aexp 0065                      ___fladd@bexp 0066              __Umul8_16@multiplier 0028  
              floattostr@cont_for 00AF                 __Umul8_16@product 0024  
